

Microchip Technology PIC PRO Macro Assembler V1.30 build 55553 
                                                                                               Thu Sep 11 09:24:46 2014

Microchip Technology Omniscient Code Generator (PRO mode) build 55553
     1  0000                     opt subtitle "Microchip Technology Omniscient Code Generator (PRO mode) build 55553"
     2                           
     3                           opt pagewidth 120
     4                           
     5                           	opt pm
     6                           
     7                           	processor	16F946
     8                           clrc	macro
     9                           	bcf	3,0
    10  0000                     	endm
    11                           clrz	macro
    12                           	bcf	3,2
    13  0000                     	endm
    14                           setc	macro
    15                           	bsf	3,0
    16  0000                     	endm
    17                           setz	macro
    18                           	bsf	3,2
    19  0000                     	endm
    20                           skipc	macro
    21                           	btfss	3,0
    22  0000                     	endm
    23                           skipz	macro
    24                           	btfss	3,2
    25  0000                     	endm
    26                           skipnc	macro
    27                           	btfsc	3,0
    28  0000                     	endm
    29                           skipnz	macro
    30                           	btfsc	3,2
    31  0000                     	endm
    32  0000                     indf	equ	0
    33  0000                     indf0	equ	0
    34  0002                     pc	equ	2
    35  0002                     pcl	equ	2
    36  0003                     status	equ	3
    37  0004                     fsr	equ	4
    38  0004                     fsr0	equ	4
    39  0001                     c	equ	1
    40  0000                     z	equ	0
    41  000A                     pclath	equ	10
    42                           # 46 "C:\Program Files (x86)\Microchip\xc8\v1.30\include\pic16f946.h"
    43  0000                     INDF equ 00h ;# 
    44                           # 52 "C:\Program Files (x86)\Microchip\xc8\v1.30\include\pic16f946.h"
    45  0001                     TMR0 equ 01h ;# 
    46                           # 58 "C:\Program Files (x86)\Microchip\xc8\v1.30\include\pic16f946.h"
    47  0002                     PCL equ 02h ;# 
    48                           # 64 "C:\Program Files (x86)\Microchip\xc8\v1.30\include\pic16f946.h"
    49  0003                     STATUS equ 03h ;# 
    50                           # 151 "C:\Program Files (x86)\Microchip\xc8\v1.30\include\pic16f946.h"
    51  0004                     FSR equ 04h ;# 
    52                           # 157 "C:\Program Files (x86)\Microchip\xc8\v1.30\include\pic16f946.h"
    53  0005                     PORTA equ 05h ;# 
    54                           # 218 "C:\Program Files (x86)\Microchip\xc8\v1.30\include\pic16f946.h"
    55  0006                     PORTB equ 06h ;# 
    56                           # 279 "C:\Program Files (x86)\Microchip\xc8\v1.30\include\pic16f946.h"
    57  0007                     PORTC equ 07h ;# 
    58                           # 340 "C:\Program Files (x86)\Microchip\xc8\v1.30\include\pic16f946.h"
    59  0008                     PORTD equ 08h ;# 
    60                           # 401 "C:\Program Files (x86)\Microchip\xc8\v1.30\include\pic16f946.h"
    61  0009                     PORTE equ 09h ;# 
    62                           # 462 "C:\Program Files (x86)\Microchip\xc8\v1.30\include\pic16f946.h"
    63  000A                     PCLATH equ 0Ah ;# 
    64                           # 468 "C:\Program Files (x86)\Microchip\xc8\v1.30\include\pic16f946.h"
    65  000B                     INTCON equ 0Bh ;# 
    66                           # 545 "C:\Program Files (x86)\Microchip\xc8\v1.30\include\pic16f946.h"
    67  000C                     PIR1 equ 0Ch ;# 
    68                           # 606 "C:\Program Files (x86)\Microchip\xc8\v1.30\include\pic16f946.h"
    69  000D                     PIR2 equ 0Dh ;# 
    70                           # 657 "C:\Program Files (x86)\Microchip\xc8\v1.30\include\pic16f946.h"
    71  000E                     TMR1 equ 0Eh ;# 
    72                           # 663 "C:\Program Files (x86)\Microchip\xc8\v1.30\include\pic16f946.h"
    73  000E                     TMR1L equ 0Eh ;# 
    74                           # 669 "C:\Program Files (x86)\Microchip\xc8\v1.30\include\pic16f946.h"
    75  000F                     TMR1H equ 0Fh ;# 
    76                           # 675 "C:\Program Files (x86)\Microchip\xc8\v1.30\include\pic16f946.h"
    77  0010                     T1CON equ 010h ;# 
    78                           # 767 "C:\Program Files (x86)\Microchip\xc8\v1.30\include\pic16f946.h"
    79  0011                     TMR2 equ 011h ;# 
    80                           # 773 "C:\Program Files (x86)\Microchip\xc8\v1.30\include\pic16f946.h"
    81  0012                     T2CON equ 012h ;# 
    82                           # 843 "C:\Program Files (x86)\Microchip\xc8\v1.30\include\pic16f946.h"
    83  0013                     SSPBUF equ 013h ;# 
    84                           # 849 "C:\Program Files (x86)\Microchip\xc8\v1.30\include\pic16f946.h"
    85  0014                     SSPCON equ 014h ;# 
    86                           # 918 "C:\Program Files (x86)\Microchip\xc8\v1.30\include\pic16f946.h"
    87  0015                     CCPR1 equ 015h ;# 
    88                           # 924 "C:\Program Files (x86)\Microchip\xc8\v1.30\include\pic16f946.h"
    89  0015                     CCPR1L equ 015h ;# 
    90                           # 930 "C:\Program Files (x86)\Microchip\xc8\v1.30\include\pic16f946.h"
    91  0016                     CCPR1H equ 016h ;# 
    92                           # 936 "C:\Program Files (x86)\Microchip\xc8\v1.30\include\pic16f946.h"
    93  0017                     CCP1CON equ 017h ;# 
    94                           # 993 "C:\Program Files (x86)\Microchip\xc8\v1.30\include\pic16f946.h"
    95  0018                     RCSTA equ 018h ;# 
    96                           # 1087 "C:\Program Files (x86)\Microchip\xc8\v1.30\include\pic16f946.h"
    97  0019                     TXREG equ 019h ;# 
    98                           # 1093 "C:\Program Files (x86)\Microchip\xc8\v1.30\include\pic16f946.h"
    99  001A                     RCREG equ 01Ah ;# 
   100                           # 1099 "C:\Program Files (x86)\Microchip\xc8\v1.30\include\pic16f946.h"
   101  001B                     CCPR2 equ 01Bh ;# 
   102                           # 1105 "C:\Program Files (x86)\Microchip\xc8\v1.30\include\pic16f946.h"
   103  001B                     CCPR2L equ 01Bh ;# 
   104                           # 1111 "C:\Program Files (x86)\Microchip\xc8\v1.30\include\pic16f946.h"
   105  001C                     CCPR2H equ 01Ch ;# 
   106                           # 1117 "C:\Program Files (x86)\Microchip\xc8\v1.30\include\pic16f946.h"
   107  001D                     CCP2CON equ 01Dh ;# 
   108                           # 1174 "C:\Program Files (x86)\Microchip\xc8\v1.30\include\pic16f946.h"
   109  001E                     ADRESH equ 01Eh ;# 
   110                           # 1180 "C:\Program Files (x86)\Microchip\xc8\v1.30\include\pic16f946.h"
   111  001F                     ADCON0 equ 01Fh ;# 
   112                           # 1280 "C:\Program Files (x86)\Microchip\xc8\v1.30\include\pic16f946.h"
   113  0081                     OPTION_REG equ 081h ;# 
   114                           # 1349 "C:\Program Files (x86)\Microchip\xc8\v1.30\include\pic16f946.h"
   115  0085                     TRISA equ 085h ;# 
   116                           # 1410 "C:\Program Files (x86)\Microchip\xc8\v1.30\include\pic16f946.h"
   117  0086                     TRISB equ 086h ;# 
   118                           # 1471 "C:\Program Files (x86)\Microchip\xc8\v1.30\include\pic16f946.h"
   119  0087                     TRISC equ 087h ;# 
   120                           # 1532 "C:\Program Files (x86)\Microchip\xc8\v1.30\include\pic16f946.h"
   121  0088                     TRISD equ 088h ;# 
   122                           # 1593 "C:\Program Files (x86)\Microchip\xc8\v1.30\include\pic16f946.h"
   123  0089                     TRISE equ 089h ;# 
   124                           # 1654 "C:\Program Files (x86)\Microchip\xc8\v1.30\include\pic16f946.h"
   125  008C                     PIE1 equ 08Ch ;# 
   126                           # 1715 "C:\Program Files (x86)\Microchip\xc8\v1.30\include\pic16f946.h"
   127  008D                     PIE2 equ 08Dh ;# 
   128                           # 1766 "C:\Program Files (x86)\Microchip\xc8\v1.30\include\pic16f946.h"
   129  008E                     PCON equ 08Eh ;# 
   130                           # 1806 "C:\Program Files (x86)\Microchip\xc8\v1.30\include\pic16f946.h"
   131  008F                     OSCCON equ 08Fh ;# 
   132                           # 1870 "C:\Program Files (x86)\Microchip\xc8\v1.30\include\pic16f946.h"
   133  0090                     OSCTUNE equ 090h ;# 
   134                           # 1921 "C:\Program Files (x86)\Microchip\xc8\v1.30\include\pic16f946.h"
   135  0091                     ANSEL equ 091h ;# 
   136                           # 2040 "C:\Program Files (x86)\Microchip\xc8\v1.30\include\pic16f946.h"
   137  0092                     PR2 equ 092h ;# 
   138                           # 2046 "C:\Program Files (x86)\Microchip\xc8\v1.30\include\pic16f946.h"
   139  0093                     SSPADD equ 093h ;# 
   140                           # 2052 "C:\Program Files (x86)\Microchip\xc8\v1.30\include\pic16f946.h"
   141  0094                     SSPSTAT equ 094h ;# 
   142                           # 2220 "C:\Program Files (x86)\Microchip\xc8\v1.30\include\pic16f946.h"
   143  0095                     WPUB equ 095h ;# 
   144                           # 2225 "C:\Program Files (x86)\Microchip\xc8\v1.30\include\pic16f946.h"
   145  0095                     WPU equ 095h ;# 
   146                           # 2457 "C:\Program Files (x86)\Microchip\xc8\v1.30\include\pic16f946.h"
   147  0096                     IOCB equ 096h ;# 
   148                           # 2462 "C:\Program Files (x86)\Microchip\xc8\v1.30\include\pic16f946.h"
   149  0096                     IOC equ 096h ;# 
   150                           # 2604 "C:\Program Files (x86)\Microchip\xc8\v1.30\include\pic16f946.h"
   151  0097                     CMCON1 equ 097h ;# 
   152                           # 2629 "C:\Program Files (x86)\Microchip\xc8\v1.30\include\pic16f946.h"
   153  0098                     TXSTA equ 098h ;# 
   154                           # 2709 "C:\Program Files (x86)\Microchip\xc8\v1.30\include\pic16f946.h"
   155  0099                     SPBRG equ 099h ;# 
   156                           # 2715 "C:\Program Files (x86)\Microchip\xc8\v1.30\include\pic16f946.h"
   157  009C                     CMCON0 equ 09Ch ;# 
   158                           # 2784 "C:\Program Files (x86)\Microchip\xc8\v1.30\include\pic16f946.h"
   159  009D                     VRCON equ 09Dh ;# 
   160                           # 2843 "C:\Program Files (x86)\Microchip\xc8\v1.30\include\pic16f946.h"
   161  009E                     ADRESL equ 09Eh ;# 
   162                           # 2849 "C:\Program Files (x86)\Microchip\xc8\v1.30\include\pic16f946.h"
   163  009F                     ADCON1 equ 09Fh ;# 
   164                           # 2890 "C:\Program Files (x86)\Microchip\xc8\v1.30\include\pic16f946.h"
   165  0105                     WDTCON equ 0105h ;# 
   166                           # 2947 "C:\Program Files (x86)\Microchip\xc8\v1.30\include\pic16f946.h"
   167  0107                     LCDCON equ 0107h ;# 
   168                           # 3022 "C:\Program Files (x86)\Microchip\xc8\v1.30\include\pic16f946.h"
   169  0108                     LCDPS equ 0108h ;# 
   170                           # 3091 "C:\Program Files (x86)\Microchip\xc8\v1.30\include\pic16f946.h"
   171  0109                     LVDCON equ 0109h ;# 
   172                           # 3143 "C:\Program Files (x86)\Microchip\xc8\v1.30\include\pic16f946.h"
   173  010C                     EEDATL equ 010Ch ;# 
   174                           # 3148 "C:\Program Files (x86)\Microchip\xc8\v1.30\include\pic16f946.h"
   175  010C                     EEDATA equ 010Ch ;# 
   176                           # 3280 "C:\Program Files (x86)\Microchip\xc8\v1.30\include\pic16f946.h"
   177  010D                     EEADRL equ 010Dh ;# 
   178                           # 3285 "C:\Program Files (x86)\Microchip\xc8\v1.30\include\pic16f946.h"
   179  010D                     EEADR equ 010Dh ;# 
   180                           # 3417 "C:\Program Files (x86)\Microchip\xc8\v1.30\include\pic16f946.h"
   181  010E                     EEDATH equ 010Eh ;# 
   182                           # 3466 "C:\Program Files (x86)\Microchip\xc8\v1.30\include\pic16f946.h"
   183  010F                     EEADRH equ 010Fh ;# 
   184                           # 3509 "C:\Program Files (x86)\Microchip\xc8\v1.30\include\pic16f946.h"
   185  0110                     LCDDATA0 equ 0110h ;# 
   186                           # 3670 "C:\Program Files (x86)\Microchip\xc8\v1.30\include\pic16f946.h"
   187  0111                     LCDDATA1 equ 0111h ;# 
   188                           # 3831 "C:\Program Files (x86)\Microchip\xc8\v1.30\include\pic16f946.h"
   189  0112                     LCDDATA2 equ 0112h ;# 
   190                           # 3992 "C:\Program Files (x86)\Microchip\xc8\v1.30\include\pic16f946.h"
   191  0113                     LCDDATA3 equ 0113h ;# 
   192                           # 4153 "C:\Program Files (x86)\Microchip\xc8\v1.30\include\pic16f946.h"
   193  0114                     LCDDATA4 equ 0114h ;# 
   194                           # 4314 "C:\Program Files (x86)\Microchip\xc8\v1.30\include\pic16f946.h"
   195  0115                     LCDDATA5 equ 0115h ;# 
   196                           # 4475 "C:\Program Files (x86)\Microchip\xc8\v1.30\include\pic16f946.h"
   197  0116                     LCDDATA6 equ 0116h ;# 
   198                           # 4636 "C:\Program Files (x86)\Microchip\xc8\v1.30\include\pic16f946.h"
   199  0117                     LCDDATA7 equ 0117h ;# 
   200                           # 4797 "C:\Program Files (x86)\Microchip\xc8\v1.30\include\pic16f946.h"
   201  0118                     LCDDATA8 equ 0118h ;# 
   202                           # 4958 "C:\Program Files (x86)\Microchip\xc8\v1.30\include\pic16f946.h"
   203  0119                     LCDDATA9 equ 0119h ;# 
   204                           # 5119 "C:\Program Files (x86)\Microchip\xc8\v1.30\include\pic16f946.h"
   205  011A                     LCDDATA10 equ 011Ah ;# 
   206                           # 5280 "C:\Program Files (x86)\Microchip\xc8\v1.30\include\pic16f946.h"
   207  011B                     LCDDATA11 equ 011Bh ;# 
   208                           # 5441 "C:\Program Files (x86)\Microchip\xc8\v1.30\include\pic16f946.h"
   209  011C                     LCDSE0 equ 011Ch ;# 
   210                           # 5602 "C:\Program Files (x86)\Microchip\xc8\v1.30\include\pic16f946.h"
   211  011D                     LCDSE1 equ 011Dh ;# 
   212                           # 5763 "C:\Program Files (x86)\Microchip\xc8\v1.30\include\pic16f946.h"
   213  011E                     LCDSE2 equ 011Eh ;# 
   214                           # 5924 "C:\Program Files (x86)\Microchip\xc8\v1.30\include\pic16f946.h"
   215  0185                     TRISF equ 0185h ;# 
   216                           # 5985 "C:\Program Files (x86)\Microchip\xc8\v1.30\include\pic16f946.h"
   217  0187                     TRISG equ 0187h ;# 
   218                           # 6034 "C:\Program Files (x86)\Microchip\xc8\v1.30\include\pic16f946.h"
   219  0188                     PORTF equ 0188h ;# 
   220                           # 6095 "C:\Program Files (x86)\Microchip\xc8\v1.30\include\pic16f946.h"
   221  0189                     PORTG equ 0189h ;# 
   222                           # 6144 "C:\Program Files (x86)\Microchip\xc8\v1.30\include\pic16f946.h"
   223  018C                     EECON1 equ 018Ch ;# 
   224                           # 6202 "C:\Program Files (x86)\Microchip\xc8\v1.30\include\pic16f946.h"
   225  018D                     EECON2 equ 018Dh ;# 
   226                           # 6208 "C:\Program Files (x86)\Microchip\xc8\v1.30\include\pic16f946.h"
   227  0190                     LCDDATA12 equ 0190h ;# 
   228                           # 6369 "C:\Program Files (x86)\Microchip\xc8\v1.30\include\pic16f946.h"
   229  0191                     LCDDATA13 equ 0191h ;# 
   230                           # 6530 "C:\Program Files (x86)\Microchip\xc8\v1.30\include\pic16f946.h"
   231  0192                     LCDDATA14 equ 0192h ;# 
   232                           # 6583 "C:\Program Files (x86)\Microchip\xc8\v1.30\include\pic16f946.h"
   233  0193                     LCDDATA15 equ 0193h ;# 
   234                           # 6744 "C:\Program Files (x86)\Microchip\xc8\v1.30\include\pic16f946.h"
   235  0194                     LCDDATA16 equ 0194h ;# 
   236                           # 6905 "C:\Program Files (x86)\Microchip\xc8\v1.30\include\pic16f946.h"
   237  0195                     LCDDATA17 equ 0195h ;# 
   238                           # 6958 "C:\Program Files (x86)\Microchip\xc8\v1.30\include\pic16f946.h"
   239  0196                     LCDDATA18 equ 0196h ;# 
   240                           # 7119 "C:\Program Files (x86)\Microchip\xc8\v1.30\include\pic16f946.h"
   241  0197                     LCDDATA19 equ 0197h ;# 
   242                           # 7280 "C:\Program Files (x86)\Microchip\xc8\v1.30\include\pic16f946.h"
   243  0198                     LCDDATA20 equ 0198h ;# 
   244                           # 7333 "C:\Program Files (x86)\Microchip\xc8\v1.30\include\pic16f946.h"
   245  0199                     LCDDATA21 equ 0199h ;# 
   246                           # 7494 "C:\Program Files (x86)\Microchip\xc8\v1.30\include\pic16f946.h"
   247  019A                     LCDDATA22 equ 019Ah ;# 
   248                           # 7655 "C:\Program Files (x86)\Microchip\xc8\v1.30\include\pic16f946.h"
   249  019B                     LCDDATA23 equ 019Bh ;# 
   250                           # 7708 "C:\Program Files (x86)\Microchip\xc8\v1.30\include\pic16f946.h"
   251  019C                     LCDSE3 equ 019Ch ;# 
   252                           # 7869 "C:\Program Files (x86)\Microchip\xc8\v1.30\include\pic16f946.h"
   253  019D                     LCDSE4 equ 019Dh ;# 
   254                           # 8030 "C:\Program Files (x86)\Microchip\xc8\v1.30\include\pic16f946.h"
   255  019E                     LCDSE5 equ 019Eh ;# 
   256                           # 46 "C:\Program Files (x86)\Microchip\xc8\v1.30\include\pic16f946.h"
   257  0000                     INDF equ 00h ;# 
   258                           # 52 "C:\Program Files (x86)\Microchip\xc8\v1.30\include\pic16f946.h"
   259  0001                     TMR0 equ 01h ;# 
   260                           # 58 "C:\Program Files (x86)\Microchip\xc8\v1.30\include\pic16f946.h"
   261  0002                     PCL equ 02h ;# 
   262                           # 64 "C:\Program Files (x86)\Microchip\xc8\v1.30\include\pic16f946.h"
   263  0003                     STATUS equ 03h ;# 
   264                           # 151 "C:\Program Files (x86)\Microchip\xc8\v1.30\include\pic16f946.h"
   265  0004                     FSR equ 04h ;# 
   266                           # 157 "C:\Program Files (x86)\Microchip\xc8\v1.30\include\pic16f946.h"
   267  0005                     PORTA equ 05h ;# 
   268                           # 218 "C:\Program Files (x86)\Microchip\xc8\v1.30\include\pic16f946.h"
   269  0006                     PORTB equ 06h ;# 
   270                           # 279 "C:\Program Files (x86)\Microchip\xc8\v1.30\include\pic16f946.h"
   271  0007                     PORTC equ 07h ;# 
   272                           # 340 "C:\Program Files (x86)\Microchip\xc8\v1.30\include\pic16f946.h"
   273  0008                     PORTD equ 08h ;# 
   274                           # 401 "C:\Program Files (x86)\Microchip\xc8\v1.30\include\pic16f946.h"
   275  0009                     PORTE equ 09h ;# 
   276                           # 462 "C:\Program Files (x86)\Microchip\xc8\v1.30\include\pic16f946.h"
   277  000A                     PCLATH equ 0Ah ;# 
   278                           # 468 "C:\Program Files (x86)\Microchip\xc8\v1.30\include\pic16f946.h"
   279  000B                     INTCON equ 0Bh ;# 
   280                           # 545 "C:\Program Files (x86)\Microchip\xc8\v1.30\include\pic16f946.h"
   281  000C                     PIR1 equ 0Ch ;# 
   282                           # 606 "C:\Program Files (x86)\Microchip\xc8\v1.30\include\pic16f946.h"
   283  000D                     PIR2 equ 0Dh ;# 
   284                           # 657 "C:\Program Files (x86)\Microchip\xc8\v1.30\include\pic16f946.h"
   285  000E                     TMR1 equ 0Eh ;# 
   286                           # 663 "C:\Program Files (x86)\Microchip\xc8\v1.30\include\pic16f946.h"
   287  000E                     TMR1L equ 0Eh ;# 
   288                           # 669 "C:\Program Files (x86)\Microchip\xc8\v1.30\include\pic16f946.h"
   289  000F                     TMR1H equ 0Fh ;# 
   290                           # 675 "C:\Program Files (x86)\Microchip\xc8\v1.30\include\pic16f946.h"
   291  0010                     T1CON equ 010h ;# 
   292                           # 767 "C:\Program Files (x86)\Microchip\xc8\v1.30\include\pic16f946.h"
   293  0011                     TMR2 equ 011h ;# 
   294                           # 773 "C:\Program Files (x86)\Microchip\xc8\v1.30\include\pic16f946.h"
   295  0012                     T2CON equ 012h ;# 
   296                           # 843 "C:\Program Files (x86)\Microchip\xc8\v1.30\include\pic16f946.h"
   297  0013                     SSPBUF equ 013h ;# 
   298                           # 849 "C:\Program Files (x86)\Microchip\xc8\v1.30\include\pic16f946.h"
   299  0014                     SSPCON equ 014h ;# 
   300                           # 918 "C:\Program Files (x86)\Microchip\xc8\v1.30\include\pic16f946.h"
   301  0015                     CCPR1 equ 015h ;# 
   302                           # 924 "C:\Program Files (x86)\Microchip\xc8\v1.30\include\pic16f946.h"
   303  0015                     CCPR1L equ 015h ;# 
   304                           # 930 "C:\Program Files (x86)\Microchip\xc8\v1.30\include\pic16f946.h"
   305  0016                     CCPR1H equ 016h ;# 
   306                           # 936 "C:\Program Files (x86)\Microchip\xc8\v1.30\include\pic16f946.h"
   307  0017                     CCP1CON equ 017h ;# 
   308                           # 993 "C:\Program Files (x86)\Microchip\xc8\v1.30\include\pic16f946.h"
   309  0018                     RCSTA equ 018h ;# 
   310                           # 1087 "C:\Program Files (x86)\Microchip\xc8\v1.30\include\pic16f946.h"
   311  0019                     TXREG equ 019h ;# 
   312                           # 1093 "C:\Program Files (x86)\Microchip\xc8\v1.30\include\pic16f946.h"
   313  001A                     RCREG equ 01Ah ;# 
   314                           # 1099 "C:\Program Files (x86)\Microchip\xc8\v1.30\include\pic16f946.h"
   315  001B                     CCPR2 equ 01Bh ;# 
   316                           # 1105 "C:\Program Files (x86)\Microchip\xc8\v1.30\include\pic16f946.h"
   317  001B                     CCPR2L equ 01Bh ;# 
   318                           # 1111 "C:\Program Files (x86)\Microchip\xc8\v1.30\include\pic16f946.h"
   319  001C                     CCPR2H equ 01Ch ;# 
   320                           # 1117 "C:\Program Files (x86)\Microchip\xc8\v1.30\include\pic16f946.h"
   321  001D                     CCP2CON equ 01Dh ;# 
   322                           # 1174 "C:\Program Files (x86)\Microchip\xc8\v1.30\include\pic16f946.h"
   323  001E                     ADRESH equ 01Eh ;# 
   324                           # 1180 "C:\Program Files (x86)\Microchip\xc8\v1.30\include\pic16f946.h"
   325  001F                     ADCON0 equ 01Fh ;# 
   326                           # 1280 "C:\Program Files (x86)\Microchip\xc8\v1.30\include\pic16f946.h"
   327  0081                     OPTION_REG equ 081h ;# 
   328                           # 1349 "C:\Program Files (x86)\Microchip\xc8\v1.30\include\pic16f946.h"
   329  0085                     TRISA equ 085h ;# 
   330                           # 1410 "C:\Program Files (x86)\Microchip\xc8\v1.30\include\pic16f946.h"
   331  0086                     TRISB equ 086h ;# 
   332                           # 1471 "C:\Program Files (x86)\Microchip\xc8\v1.30\include\pic16f946.h"
   333  0087                     TRISC equ 087h ;# 
   334                           # 1532 "C:\Program Files (x86)\Microchip\xc8\v1.30\include\pic16f946.h"
   335  0088                     TRISD equ 088h ;# 
   336                           # 1593 "C:\Program Files (x86)\Microchip\xc8\v1.30\include\pic16f946.h"
   337  0089                     TRISE equ 089h ;# 
   338                           # 1654 "C:\Program Files (x86)\Microchip\xc8\v1.30\include\pic16f946.h"
   339  008C                     PIE1 equ 08Ch ;# 
   340                           # 1715 "C:\Program Files (x86)\Microchip\xc8\v1.30\include\pic16f946.h"
   341  008D                     PIE2 equ 08Dh ;# 
   342                           # 1766 "C:\Program Files (x86)\Microchip\xc8\v1.30\include\pic16f946.h"
   343  008E                     PCON equ 08Eh ;# 
   344                           # 1806 "C:\Program Files (x86)\Microchip\xc8\v1.30\include\pic16f946.h"
   345  008F                     OSCCON equ 08Fh ;# 
   346                           # 1870 "C:\Program Files (x86)\Microchip\xc8\v1.30\include\pic16f946.h"
   347  0090                     OSCTUNE equ 090h ;# 
   348                           # 1921 "C:\Program Files (x86)\Microchip\xc8\v1.30\include\pic16f946.h"
   349  0091                     ANSEL equ 091h ;# 
   350                           # 2040 "C:\Program Files (x86)\Microchip\xc8\v1.30\include\pic16f946.h"
   351  0092                     PR2 equ 092h ;# 
   352                           # 2046 "C:\Program Files (x86)\Microchip\xc8\v1.30\include\pic16f946.h"
   353  0093                     SSPADD equ 093h ;# 
   354                           # 2052 "C:\Program Files (x86)\Microchip\xc8\v1.30\include\pic16f946.h"
   355  0094                     SSPSTAT equ 094h ;# 
   356                           # 2220 "C:\Program Files (x86)\Microchip\xc8\v1.30\include\pic16f946.h"
   357  0095                     WPUB equ 095h ;# 
   358                           # 2225 "C:\Program Files (x86)\Microchip\xc8\v1.30\include\pic16f946.h"
   359  0095                     WPU equ 095h ;# 
   360                           # 2457 "C:\Program Files (x86)\Microchip\xc8\v1.30\include\pic16f946.h"
   361  0096                     IOCB equ 096h ;# 
   362                           # 2462 "C:\Program Files (x86)\Microchip\xc8\v1.30\include\pic16f946.h"
   363  0096                     IOC equ 096h ;# 
   364                           # 2604 "C:\Program Files (x86)\Microchip\xc8\v1.30\include\pic16f946.h"
   365  0097                     CMCON1 equ 097h ;# 
   366                           # 2629 "C:\Program Files (x86)\Microchip\xc8\v1.30\include\pic16f946.h"
   367  0098                     TXSTA equ 098h ;# 
   368                           # 2709 "C:\Program Files (x86)\Microchip\xc8\v1.30\include\pic16f946.h"
   369  0099                     SPBRG equ 099h ;# 
   370                           # 2715 "C:\Program Files (x86)\Microchip\xc8\v1.30\include\pic16f946.h"
   371  009C                     CMCON0 equ 09Ch ;# 
   372                           # 2784 "C:\Program Files (x86)\Microchip\xc8\v1.30\include\pic16f946.h"
   373  009D                     VRCON equ 09Dh ;# 
   374                           # 2843 "C:\Program Files (x86)\Microchip\xc8\v1.30\include\pic16f946.h"
   375  009E                     ADRESL equ 09Eh ;# 
   376                           # 2849 "C:\Program Files (x86)\Microchip\xc8\v1.30\include\pic16f946.h"
   377  009F                     ADCON1 equ 09Fh ;# 
   378                           # 2890 "C:\Program Files (x86)\Microchip\xc8\v1.30\include\pic16f946.h"
   379  0105                     WDTCON equ 0105h ;# 
   380                           # 2947 "C:\Program Files (x86)\Microchip\xc8\v1.30\include\pic16f946.h"
   381  0107                     LCDCON equ 0107h ;# 
   382                           # 3022 "C:\Program Files (x86)\Microchip\xc8\v1.30\include\pic16f946.h"
   383  0108                     LCDPS equ 0108h ;# 
   384                           # 3091 "C:\Program Files (x86)\Microchip\xc8\v1.30\include\pic16f946.h"
   385  0109                     LVDCON equ 0109h ;# 
   386                           # 3143 "C:\Program Files (x86)\Microchip\xc8\v1.30\include\pic16f946.h"
   387  010C                     EEDATL equ 010Ch ;# 
   388                           # 3148 "C:\Program Files (x86)\Microchip\xc8\v1.30\include\pic16f946.h"
   389  010C                     EEDATA equ 010Ch ;# 
   390                           # 3280 "C:\Program Files (x86)\Microchip\xc8\v1.30\include\pic16f946.h"
   391  010D                     EEADRL equ 010Dh ;# 
   392                           # 3285 "C:\Program Files (x86)\Microchip\xc8\v1.30\include\pic16f946.h"
   393  010D                     EEADR equ 010Dh ;# 
   394                           # 3417 "C:\Program Files (x86)\Microchip\xc8\v1.30\include\pic16f946.h"
   395  010E                     EEDATH equ 010Eh ;# 
   396                           # 3466 "C:\Program Files (x86)\Microchip\xc8\v1.30\include\pic16f946.h"
   397  010F                     EEADRH equ 010Fh ;# 
   398                           # 3509 "C:\Program Files (x86)\Microchip\xc8\v1.30\include\pic16f946.h"
   399  0110                     LCDDATA0 equ 0110h ;# 
   400                           # 3670 "C:\Program Files (x86)\Microchip\xc8\v1.30\include\pic16f946.h"
   401  0111                     LCDDATA1 equ 0111h ;# 
   402                           # 3831 "C:\Program Files (x86)\Microchip\xc8\v1.30\include\pic16f946.h"
   403  0112                     LCDDATA2 equ 0112h ;# 
   404                           # 3992 "C:\Program Files (x86)\Microchip\xc8\v1.30\include\pic16f946.h"
   405  0113                     LCDDATA3 equ 0113h ;# 
   406                           # 4153 "C:\Program Files (x86)\Microchip\xc8\v1.30\include\pic16f946.h"
   407  0114                     LCDDATA4 equ 0114h ;# 
   408                           # 4314 "C:\Program Files (x86)\Microchip\xc8\v1.30\include\pic16f946.h"
   409  0115                     LCDDATA5 equ 0115h ;# 
   410                           # 4475 "C:\Program Files (x86)\Microchip\xc8\v1.30\include\pic16f946.h"
   411  0116                     LCDDATA6 equ 0116h ;# 
   412                           # 4636 "C:\Program Files (x86)\Microchip\xc8\v1.30\include\pic16f946.h"
   413  0117                     LCDDATA7 equ 0117h ;# 
   414                           # 4797 "C:\Program Files (x86)\Microchip\xc8\v1.30\include\pic16f946.h"
   415  0118                     LCDDATA8 equ 0118h ;# 
   416                           # 4958 "C:\Program Files (x86)\Microchip\xc8\v1.30\include\pic16f946.h"
   417  0119                     LCDDATA9 equ 0119h ;# 
   418                           # 5119 "C:\Program Files (x86)\Microchip\xc8\v1.30\include\pic16f946.h"
   419  011A                     LCDDATA10 equ 011Ah ;# 
   420                           # 5280 "C:\Program Files (x86)\Microchip\xc8\v1.30\include\pic16f946.h"
   421  011B                     LCDDATA11 equ 011Bh ;# 
   422                           # 5441 "C:\Program Files (x86)\Microchip\xc8\v1.30\include\pic16f946.h"
   423  011C                     LCDSE0 equ 011Ch ;# 
   424                           # 5602 "C:\Program Files (x86)\Microchip\xc8\v1.30\include\pic16f946.h"
   425  011D                     LCDSE1 equ 011Dh ;# 
   426                           # 5763 "C:\Program Files (x86)\Microchip\xc8\v1.30\include\pic16f946.h"
   427  011E                     LCDSE2 equ 011Eh ;# 
   428                           # 5924 "C:\Program Files (x86)\Microchip\xc8\v1.30\include\pic16f946.h"
   429  0185                     TRISF equ 0185h ;# 
   430                           # 5985 "C:\Program Files (x86)\Microchip\xc8\v1.30\include\pic16f946.h"
   431  0187                     TRISG equ 0187h ;# 
   432                           # 6034 "C:\Program Files (x86)\Microchip\xc8\v1.30\include\pic16f946.h"
   433  0188                     PORTF equ 0188h ;# 
   434                           # 6095 "C:\Program Files (x86)\Microchip\xc8\v1.30\include\pic16f946.h"
   435  0189                     PORTG equ 0189h ;# 
   436                           # 6144 "C:\Program Files (x86)\Microchip\xc8\v1.30\include\pic16f946.h"
   437  018C                     EECON1 equ 018Ch ;# 
   438                           # 6202 "C:\Program Files (x86)\Microchip\xc8\v1.30\include\pic16f946.h"
   439  018D                     EECON2 equ 018Dh ;# 
   440                           # 6208 "C:\Program Files (x86)\Microchip\xc8\v1.30\include\pic16f946.h"
   441  0190                     LCDDATA12 equ 0190h ;# 
   442                           # 6369 "C:\Program Files (x86)\Microchip\xc8\v1.30\include\pic16f946.h"
   443  0191                     LCDDATA13 equ 0191h ;# 
   444                           # 6530 "C:\Program Files (x86)\Microchip\xc8\v1.30\include\pic16f946.h"
   445  0192                     LCDDATA14 equ 0192h ;# 
   446                           # 6583 "C:\Program Files (x86)\Microchip\xc8\v1.30\include\pic16f946.h"
   447  0193                     LCDDATA15 equ 0193h ;# 
   448                           # 6744 "C:\Program Files (x86)\Microchip\xc8\v1.30\include\pic16f946.h"
   449  0194                     LCDDATA16 equ 0194h ;# 
   450                           # 6905 "C:\Program Files (x86)\Microchip\xc8\v1.30\include\pic16f946.h"
   451  0195                     LCDDATA17 equ 0195h ;# 
   452                           # 6958 "C:\Program Files (x86)\Microchip\xc8\v1.30\include\pic16f946.h"
   453  0196                     LCDDATA18 equ 0196h ;# 
   454                           # 7119 "C:\Program Files (x86)\Microchip\xc8\v1.30\include\pic16f946.h"
   455  0197                     LCDDATA19 equ 0197h ;# 
   456                           # 7280 "C:\Program Files (x86)\Microchip\xc8\v1.30\include\pic16f946.h"
   457  0198                     LCDDATA20 equ 0198h ;# 
   458                           # 7333 "C:\Program Files (x86)\Microchip\xc8\v1.30\include\pic16f946.h"
   459  0199                     LCDDATA21 equ 0199h ;# 
   460                           # 7494 "C:\Program Files (x86)\Microchip\xc8\v1.30\include\pic16f946.h"
   461  019A                     LCDDATA22 equ 019Ah ;# 
   462                           # 7655 "C:\Program Files (x86)\Microchip\xc8\v1.30\include\pic16f946.h"
   463  019B                     LCDDATA23 equ 019Bh ;# 
   464                           # 7708 "C:\Program Files (x86)\Microchip\xc8\v1.30\include\pic16f946.h"
   465  019C                     LCDSE3 equ 019Ch ;# 
   466                           # 7869 "C:\Program Files (x86)\Microchip\xc8\v1.30\include\pic16f946.h"
   467  019D                     LCDSE4 equ 019Dh ;# 
   468                           # 8030 "C:\Program Files (x86)\Microchip\xc8\v1.30\include\pic16f946.h"
   469  019E                     LCDSE5 equ 019Eh ;# 
   470                           # 46 "C:\Program Files (x86)\Microchip\xc8\v1.30\include\pic16f946.h"
   471  0000                     INDF equ 00h ;# 
   472                           # 52 "C:\Program Files (x86)\Microchip\xc8\v1.30\include\pic16f946.h"
   473  0001                     TMR0 equ 01h ;# 
   474                           # 58 "C:\Program Files (x86)\Microchip\xc8\v1.30\include\pic16f946.h"
   475  0002                     PCL equ 02h ;# 
   476                           # 64 "C:\Program Files (x86)\Microchip\xc8\v1.30\include\pic16f946.h"
   477  0003                     STATUS equ 03h ;# 
   478                           # 151 "C:\Program Files (x86)\Microchip\xc8\v1.30\include\pic16f946.h"
   479  0004                     FSR equ 04h ;# 
   480                           # 157 "C:\Program Files (x86)\Microchip\xc8\v1.30\include\pic16f946.h"
   481  0005                     PORTA equ 05h ;# 
   482                           # 218 "C:\Program Files (x86)\Microchip\xc8\v1.30\include\pic16f946.h"
   483  0006                     PORTB equ 06h ;# 
   484                           # 279 "C:\Program Files (x86)\Microchip\xc8\v1.30\include\pic16f946.h"
   485  0007                     PORTC equ 07h ;# 
   486                           # 340 "C:\Program Files (x86)\Microchip\xc8\v1.30\include\pic16f946.h"
   487  0008                     PORTD equ 08h ;# 
   488                           # 401 "C:\Program Files (x86)\Microchip\xc8\v1.30\include\pic16f946.h"
   489  0009                     PORTE equ 09h ;# 
   490                           # 462 "C:\Program Files (x86)\Microchip\xc8\v1.30\include\pic16f946.h"
   491  000A                     PCLATH equ 0Ah ;# 
   492                           # 468 "C:\Program Files (x86)\Microchip\xc8\v1.30\include\pic16f946.h"
   493  000B                     INTCON equ 0Bh ;# 
   494                           # 545 "C:\Program Files (x86)\Microchip\xc8\v1.30\include\pic16f946.h"
   495  000C                     PIR1 equ 0Ch ;# 
   496                           # 606 "C:\Program Files (x86)\Microchip\xc8\v1.30\include\pic16f946.h"
   497  000D                     PIR2 equ 0Dh ;# 
   498                           # 657 "C:\Program Files (x86)\Microchip\xc8\v1.30\include\pic16f946.h"
   499  000E                     TMR1 equ 0Eh ;# 
   500                           # 663 "C:\Program Files (x86)\Microchip\xc8\v1.30\include\pic16f946.h"
   501  000E                     TMR1L equ 0Eh ;# 
   502                           # 669 "C:\Program Files (x86)\Microchip\xc8\v1.30\include\pic16f946.h"
   503  000F                     TMR1H equ 0Fh ;# 
   504                           # 675 "C:\Program Files (x86)\Microchip\xc8\v1.30\include\pic16f946.h"
   505  0010                     T1CON equ 010h ;# 
   506                           # 767 "C:\Program Files (x86)\Microchip\xc8\v1.30\include\pic16f946.h"
   507  0011                     TMR2 equ 011h ;# 
   508                           # 773 "C:\Program Files (x86)\Microchip\xc8\v1.30\include\pic16f946.h"
   509  0012                     T2CON equ 012h ;# 
   510                           # 843 "C:\Program Files (x86)\Microchip\xc8\v1.30\include\pic16f946.h"
   511  0013                     SSPBUF equ 013h ;# 
   512                           # 849 "C:\Program Files (x86)\Microchip\xc8\v1.30\include\pic16f946.h"
   513  0014                     SSPCON equ 014h ;# 
   514                           # 918 "C:\Program Files (x86)\Microchip\xc8\v1.30\include\pic16f946.h"
   515  0015                     CCPR1 equ 015h ;# 
   516                           # 924 "C:\Program Files (x86)\Microchip\xc8\v1.30\include\pic16f946.h"
   517  0015                     CCPR1L equ 015h ;# 
   518                           # 930 "C:\Program Files (x86)\Microchip\xc8\v1.30\include\pic16f946.h"
   519  0016                     CCPR1H equ 016h ;# 
   520                           # 936 "C:\Program Files (x86)\Microchip\xc8\v1.30\include\pic16f946.h"
   521  0017                     CCP1CON equ 017h ;# 
   522                           # 993 "C:\Program Files (x86)\Microchip\xc8\v1.30\include\pic16f946.h"
   523  0018                     RCSTA equ 018h ;# 
   524                           # 1087 "C:\Program Files (x86)\Microchip\xc8\v1.30\include\pic16f946.h"
   525  0019                     TXREG equ 019h ;# 
   526                           # 1093 "C:\Program Files (x86)\Microchip\xc8\v1.30\include\pic16f946.h"
   527  001A                     RCREG equ 01Ah ;# 
   528                           # 1099 "C:\Program Files (x86)\Microchip\xc8\v1.30\include\pic16f946.h"
   529  001B                     CCPR2 equ 01Bh ;# 
   530                           # 1105 "C:\Program Files (x86)\Microchip\xc8\v1.30\include\pic16f946.h"
   531  001B                     CCPR2L equ 01Bh ;# 
   532                           # 1111 "C:\Program Files (x86)\Microchip\xc8\v1.30\include\pic16f946.h"
   533  001C                     CCPR2H equ 01Ch ;# 
   534                           # 1117 "C:\Program Files (x86)\Microchip\xc8\v1.30\include\pic16f946.h"
   535  001D                     CCP2CON equ 01Dh ;# 
   536                           # 1174 "C:\Program Files (x86)\Microchip\xc8\v1.30\include\pic16f946.h"
   537  001E                     ADRESH equ 01Eh ;# 
   538                           # 1180 "C:\Program Files (x86)\Microchip\xc8\v1.30\include\pic16f946.h"
   539  001F                     ADCON0 equ 01Fh ;# 
   540                           # 1280 "C:\Program Files (x86)\Microchip\xc8\v1.30\include\pic16f946.h"
   541  0081                     OPTION_REG equ 081h ;# 
   542                           # 1349 "C:\Program Files (x86)\Microchip\xc8\v1.30\include\pic16f946.h"
   543  0085                     TRISA equ 085h ;# 
   544                           # 1410 "C:\Program Files (x86)\Microchip\xc8\v1.30\include\pic16f946.h"
   545  0086                     TRISB equ 086h ;# 
   546                           # 1471 "C:\Program Files (x86)\Microchip\xc8\v1.30\include\pic16f946.h"
   547  0087                     TRISC equ 087h ;# 
   548                           # 1532 "C:\Program Files (x86)\Microchip\xc8\v1.30\include\pic16f946.h"
   549  0088                     TRISD equ 088h ;# 
   550                           # 1593 "C:\Program Files (x86)\Microchip\xc8\v1.30\include\pic16f946.h"
   551  0089                     TRISE equ 089h ;# 
   552                           # 1654 "C:\Program Files (x86)\Microchip\xc8\v1.30\include\pic16f946.h"
   553  008C                     PIE1 equ 08Ch ;# 
   554                           # 1715 "C:\Program Files (x86)\Microchip\xc8\v1.30\include\pic16f946.h"
   555  008D                     PIE2 equ 08Dh ;# 
   556                           # 1766 "C:\Program Files (x86)\Microchip\xc8\v1.30\include\pic16f946.h"
   557  008E                     PCON equ 08Eh ;# 
   558                           # 1806 "C:\Program Files (x86)\Microchip\xc8\v1.30\include\pic16f946.h"
   559  008F                     OSCCON equ 08Fh ;# 
   560                           # 1870 "C:\Program Files (x86)\Microchip\xc8\v1.30\include\pic16f946.h"
   561  0090                     OSCTUNE equ 090h ;# 
   562                           # 1921 "C:\Program Files (x86)\Microchip\xc8\v1.30\include\pic16f946.h"
   563  0091                     ANSEL equ 091h ;# 
   564                           # 2040 "C:\Program Files (x86)\Microchip\xc8\v1.30\include\pic16f946.h"
   565  0092                     PR2 equ 092h ;# 
   566                           # 2046 "C:\Program Files (x86)\Microchip\xc8\v1.30\include\pic16f946.h"
   567  0093                     SSPADD equ 093h ;# 
   568                           # 2052 "C:\Program Files (x86)\Microchip\xc8\v1.30\include\pic16f946.h"
   569  0094                     SSPSTAT equ 094h ;# 
   570                           # 2220 "C:\Program Files (x86)\Microchip\xc8\v1.30\include\pic16f946.h"
   571  0095                     WPUB equ 095h ;# 
   572                           # 2225 "C:\Program Files (x86)\Microchip\xc8\v1.30\include\pic16f946.h"
   573  0095                     WPU equ 095h ;# 
   574                           # 2457 "C:\Program Files (x86)\Microchip\xc8\v1.30\include\pic16f946.h"
   575  0096                     IOCB equ 096h ;# 
   576                           # 2462 "C:\Program Files (x86)\Microchip\xc8\v1.30\include\pic16f946.h"
   577  0096                     IOC equ 096h ;# 
   578                           # 2604 "C:\Program Files (x86)\Microchip\xc8\v1.30\include\pic16f946.h"
   579  0097                     CMCON1 equ 097h ;# 
   580                           # 2629 "C:\Program Files (x86)\Microchip\xc8\v1.30\include\pic16f946.h"
   581  0098                     TXSTA equ 098h ;# 
   582                           # 2709 "C:\Program Files (x86)\Microchip\xc8\v1.30\include\pic16f946.h"
   583  0099                     SPBRG equ 099h ;# 
   584                           # 2715 "C:\Program Files (x86)\Microchip\xc8\v1.30\include\pic16f946.h"
   585  009C                     CMCON0 equ 09Ch ;# 
   586                           # 2784 "C:\Program Files (x86)\Microchip\xc8\v1.30\include\pic16f946.h"
   587  009D                     VRCON equ 09Dh ;# 
   588                           # 2843 "C:\Program Files (x86)\Microchip\xc8\v1.30\include\pic16f946.h"
   589  009E                     ADRESL equ 09Eh ;# 
   590                           # 2849 "C:\Program Files (x86)\Microchip\xc8\v1.30\include\pic16f946.h"
   591  009F                     ADCON1 equ 09Fh ;# 
   592                           # 2890 "C:\Program Files (x86)\Microchip\xc8\v1.30\include\pic16f946.h"
   593  0105                     WDTCON equ 0105h ;# 
   594                           # 2947 "C:\Program Files (x86)\Microchip\xc8\v1.30\include\pic16f946.h"
   595  0107                     LCDCON equ 0107h ;# 
   596                           # 3022 "C:\Program Files (x86)\Microchip\xc8\v1.30\include\pic16f946.h"
   597  0108                     LCDPS equ 0108h ;# 
   598                           # 3091 "C:\Program Files (x86)\Microchip\xc8\v1.30\include\pic16f946.h"
   599  0109                     LVDCON equ 0109h ;# 
   600                           # 3143 "C:\Program Files (x86)\Microchip\xc8\v1.30\include\pic16f946.h"
   601  010C                     EEDATL equ 010Ch ;# 
   602                           # 3148 "C:\Program Files (x86)\Microchip\xc8\v1.30\include\pic16f946.h"
   603  010C                     EEDATA equ 010Ch ;# 
   604                           # 3280 "C:\Program Files (x86)\Microchip\xc8\v1.30\include\pic16f946.h"
   605  010D                     EEADRL equ 010Dh ;# 
   606                           # 3285 "C:\Program Files (x86)\Microchip\xc8\v1.30\include\pic16f946.h"
   607  010D                     EEADR equ 010Dh ;# 
   608                           # 3417 "C:\Program Files (x86)\Microchip\xc8\v1.30\include\pic16f946.h"
   609  010E                     EEDATH equ 010Eh ;# 
   610                           # 3466 "C:\Program Files (x86)\Microchip\xc8\v1.30\include\pic16f946.h"
   611  010F                     EEADRH equ 010Fh ;# 
   612                           # 3509 "C:\Program Files (x86)\Microchip\xc8\v1.30\include\pic16f946.h"
   613  0110                     LCDDATA0 equ 0110h ;# 
   614                           # 3670 "C:\Program Files (x86)\Microchip\xc8\v1.30\include\pic16f946.h"
   615  0111                     LCDDATA1 equ 0111h ;# 
   616                           # 3831 "C:\Program Files (x86)\Microchip\xc8\v1.30\include\pic16f946.h"
   617  0112                     LCDDATA2 equ 0112h ;# 
   618                           # 3992 "C:\Program Files (x86)\Microchip\xc8\v1.30\include\pic16f946.h"
   619  0113                     LCDDATA3 equ 0113h ;# 
   620                           # 4153 "C:\Program Files (x86)\Microchip\xc8\v1.30\include\pic16f946.h"
   621  0114                     LCDDATA4 equ 0114h ;# 
   622                           # 4314 "C:\Program Files (x86)\Microchip\xc8\v1.30\include\pic16f946.h"
   623  0115                     LCDDATA5 equ 0115h ;# 
   624                           # 4475 "C:\Program Files (x86)\Microchip\xc8\v1.30\include\pic16f946.h"
   625  0116                     LCDDATA6 equ 0116h ;# 
   626                           # 4636 "C:\Program Files (x86)\Microchip\xc8\v1.30\include\pic16f946.h"
   627  0117                     LCDDATA7 equ 0117h ;# 
   628                           # 4797 "C:\Program Files (x86)\Microchip\xc8\v1.30\include\pic16f946.h"
   629  0118                     LCDDATA8 equ 0118h ;# 
   630                           # 4958 "C:\Program Files (x86)\Microchip\xc8\v1.30\include\pic16f946.h"
   631  0119                     LCDDATA9 equ 0119h ;# 
   632                           # 5119 "C:\Program Files (x86)\Microchip\xc8\v1.30\include\pic16f946.h"
   633  011A                     LCDDATA10 equ 011Ah ;# 
   634                           # 5280 "C:\Program Files (x86)\Microchip\xc8\v1.30\include\pic16f946.h"
   635  011B                     LCDDATA11 equ 011Bh ;# 
   636                           # 5441 "C:\Program Files (x86)\Microchip\xc8\v1.30\include\pic16f946.h"
   637  011C                     LCDSE0 equ 011Ch ;# 
   638                           # 5602 "C:\Program Files (x86)\Microchip\xc8\v1.30\include\pic16f946.h"
   639  011D                     LCDSE1 equ 011Dh ;# 
   640                           # 5763 "C:\Program Files (x86)\Microchip\xc8\v1.30\include\pic16f946.h"
   641  011E                     LCDSE2 equ 011Eh ;# 
   642                           # 5924 "C:\Program Files (x86)\Microchip\xc8\v1.30\include\pic16f946.h"
   643  0185                     TRISF equ 0185h ;# 
   644                           # 5985 "C:\Program Files (x86)\Microchip\xc8\v1.30\include\pic16f946.h"
   645  0187                     TRISG equ 0187h ;# 
   646                           # 6034 "C:\Program Files (x86)\Microchip\xc8\v1.30\include\pic16f946.h"
   647  0188                     PORTF equ 0188h ;# 
   648                           # 6095 "C:\Program Files (x86)\Microchip\xc8\v1.30\include\pic16f946.h"
   649  0189                     PORTG equ 0189h ;# 
   650                           # 6144 "C:\Program Files (x86)\Microchip\xc8\v1.30\include\pic16f946.h"
   651  018C                     EECON1 equ 018Ch ;# 
   652                           # 6202 "C:\Program Files (x86)\Microchip\xc8\v1.30\include\pic16f946.h"
   653  018D                     EECON2 equ 018Dh ;# 
   654                           # 6208 "C:\Program Files (x86)\Microchip\xc8\v1.30\include\pic16f946.h"
   655  0190                     LCDDATA12 equ 0190h ;# 
   656                           # 6369 "C:\Program Files (x86)\Microchip\xc8\v1.30\include\pic16f946.h"
   657  0191                     LCDDATA13 equ 0191h ;# 
   658                           # 6530 "C:\Program Files (x86)\Microchip\xc8\v1.30\include\pic16f946.h"
   659  0192                     LCDDATA14 equ 0192h ;# 
   660                           # 6583 "C:\Program Files (x86)\Microchip\xc8\v1.30\include\pic16f946.h"
   661  0193                     LCDDATA15 equ 0193h ;# 
   662                           # 6744 "C:\Program Files (x86)\Microchip\xc8\v1.30\include\pic16f946.h"
   663  0194                     LCDDATA16 equ 0194h ;# 
   664                           # 6905 "C:\Program Files (x86)\Microchip\xc8\v1.30\include\pic16f946.h"
   665  0195                     LCDDATA17 equ 0195h ;# 
   666                           # 6958 "C:\Program Files (x86)\Microchip\xc8\v1.30\include\pic16f946.h"
   667  0196                     LCDDATA18 equ 0196h ;# 
   668                           # 7119 "C:\Program Files (x86)\Microchip\xc8\v1.30\include\pic16f946.h"
   669  0197                     LCDDATA19 equ 0197h ;# 
   670                           # 7280 "C:\Program Files (x86)\Microchip\xc8\v1.30\include\pic16f946.h"
   671  0198                     LCDDATA20 equ 0198h ;# 
   672                           # 7333 "C:\Program Files (x86)\Microchip\xc8\v1.30\include\pic16f946.h"
   673  0199                     LCDDATA21 equ 0199h ;# 
   674                           # 7494 "C:\Program Files (x86)\Microchip\xc8\v1.30\include\pic16f946.h"
   675  019A                     LCDDATA22 equ 019Ah ;# 
   676                           # 7655 "C:\Program Files (x86)\Microchip\xc8\v1.30\include\pic16f946.h"
   677  019B                     LCDDATA23 equ 019Bh ;# 
   678                           # 7708 "C:\Program Files (x86)\Microchip\xc8\v1.30\include\pic16f946.h"
   679  019C                     LCDSE3 equ 019Ch ;# 
   680                           # 7869 "C:\Program Files (x86)\Microchip\xc8\v1.30\include\pic16f946.h"
   681  019D                     LCDSE4 equ 019Dh ;# 
   682                           # 8030 "C:\Program Files (x86)\Microchip\xc8\v1.30\include\pic16f946.h"
   683  019E                     LCDSE5 equ 019Eh ;# 
   684                           # 46 "C:\Program Files (x86)\Microchip\xc8\v1.30\include\pic16f946.h"
   685  0000                     INDF equ 00h ;# 
   686                           # 52 "C:\Program Files (x86)\Microchip\xc8\v1.30\include\pic16f946.h"
   687  0001                     TMR0 equ 01h ;# 
   688                           # 58 "C:\Program Files (x86)\Microchip\xc8\v1.30\include\pic16f946.h"
   689  0002                     PCL equ 02h ;# 
   690                           # 64 "C:\Program Files (x86)\Microchip\xc8\v1.30\include\pic16f946.h"
   691  0003                     STATUS equ 03h ;# 
   692                           # 151 "C:\Program Files (x86)\Microchip\xc8\v1.30\include\pic16f946.h"
   693  0004                     FSR equ 04h ;# 
   694                           # 157 "C:\Program Files (x86)\Microchip\xc8\v1.30\include\pic16f946.h"
   695  0005                     PORTA equ 05h ;# 
   696                           # 218 "C:\Program Files (x86)\Microchip\xc8\v1.30\include\pic16f946.h"
   697  0006                     PORTB equ 06h ;# 
   698                           # 279 "C:\Program Files (x86)\Microchip\xc8\v1.30\include\pic16f946.h"
   699  0007                     PORTC equ 07h ;# 
   700                           # 340 "C:\Program Files (x86)\Microchip\xc8\v1.30\include\pic16f946.h"
   701  0008                     PORTD equ 08h ;# 
   702                           # 401 "C:\Program Files (x86)\Microchip\xc8\v1.30\include\pic16f946.h"
   703  0009                     PORTE equ 09h ;# 
   704                           # 462 "C:\Program Files (x86)\Microchip\xc8\v1.30\include\pic16f946.h"
   705  000A                     PCLATH equ 0Ah ;# 
   706                           # 468 "C:\Program Files (x86)\Microchip\xc8\v1.30\include\pic16f946.h"
   707  000B                     INTCON equ 0Bh ;# 
   708                           # 545 "C:\Program Files (x86)\Microchip\xc8\v1.30\include\pic16f946.h"
   709  000C                     PIR1 equ 0Ch ;# 
   710                           # 606 "C:\Program Files (x86)\Microchip\xc8\v1.30\include\pic16f946.h"
   711  000D                     PIR2 equ 0Dh ;# 
   712                           # 657 "C:\Program Files (x86)\Microchip\xc8\v1.30\include\pic16f946.h"
   713  000E                     TMR1 equ 0Eh ;# 
   714                           # 663 "C:\Program Files (x86)\Microchip\xc8\v1.30\include\pic16f946.h"
   715  000E                     TMR1L equ 0Eh ;# 
   716                           # 669 "C:\Program Files (x86)\Microchip\xc8\v1.30\include\pic16f946.h"
   717  000F                     TMR1H equ 0Fh ;# 
   718                           # 675 "C:\Program Files (x86)\Microchip\xc8\v1.30\include\pic16f946.h"
   719  0010                     T1CON equ 010h ;# 
   720                           # 767 "C:\Program Files (x86)\Microchip\xc8\v1.30\include\pic16f946.h"
   721  0011                     TMR2 equ 011h ;# 
   722                           # 773 "C:\Program Files (x86)\Microchip\xc8\v1.30\include\pic16f946.h"
   723  0012                     T2CON equ 012h ;# 
   724                           # 843 "C:\Program Files (x86)\Microchip\xc8\v1.30\include\pic16f946.h"
   725  0013                     SSPBUF equ 013h ;# 
   726                           # 849 "C:\Program Files (x86)\Microchip\xc8\v1.30\include\pic16f946.h"
   727  0014                     SSPCON equ 014h ;# 
   728                           # 918 "C:\Program Files (x86)\Microchip\xc8\v1.30\include\pic16f946.h"
   729  0015                     CCPR1 equ 015h ;# 
   730                           # 924 "C:\Program Files (x86)\Microchip\xc8\v1.30\include\pic16f946.h"
   731  0015                     CCPR1L equ 015h ;# 
   732                           # 930 "C:\Program Files (x86)\Microchip\xc8\v1.30\include\pic16f946.h"
   733  0016                     CCPR1H equ 016h ;# 
   734                           # 936 "C:\Program Files (x86)\Microchip\xc8\v1.30\include\pic16f946.h"
   735  0017                     CCP1CON equ 017h ;# 
   736                           # 993 "C:\Program Files (x86)\Microchip\xc8\v1.30\include\pic16f946.h"
   737  0018                     RCSTA equ 018h ;# 
   738                           # 1087 "C:\Program Files (x86)\Microchip\xc8\v1.30\include\pic16f946.h"
   739  0019                     TXREG equ 019h ;# 
   740                           # 1093 "C:\Program Files (x86)\Microchip\xc8\v1.30\include\pic16f946.h"
   741  001A                     RCREG equ 01Ah ;# 
   742                           # 1099 "C:\Program Files (x86)\Microchip\xc8\v1.30\include\pic16f946.h"
   743  001B                     CCPR2 equ 01Bh ;# 
   744                           # 1105 "C:\Program Files (x86)\Microchip\xc8\v1.30\include\pic16f946.h"
   745  001B                     CCPR2L equ 01Bh ;# 
   746                           # 1111 "C:\Program Files (x86)\Microchip\xc8\v1.30\include\pic16f946.h"
   747  001C                     CCPR2H equ 01Ch ;# 
   748                           # 1117 "C:\Program Files (x86)\Microchip\xc8\v1.30\include\pic16f946.h"
   749  001D                     CCP2CON equ 01Dh ;# 
   750                           # 1174 "C:\Program Files (x86)\Microchip\xc8\v1.30\include\pic16f946.h"
   751  001E                     ADRESH equ 01Eh ;# 
   752                           # 1180 "C:\Program Files (x86)\Microchip\xc8\v1.30\include\pic16f946.h"
   753  001F                     ADCON0 equ 01Fh ;# 
   754                           # 1280 "C:\Program Files (x86)\Microchip\xc8\v1.30\include\pic16f946.h"
   755  0081                     OPTION_REG equ 081h ;# 
   756                           # 1349 "C:\Program Files (x86)\Microchip\xc8\v1.30\include\pic16f946.h"
   757  0085                     TRISA equ 085h ;# 
   758                           # 1410 "C:\Program Files (x86)\Microchip\xc8\v1.30\include\pic16f946.h"
   759  0086                     TRISB equ 086h ;# 
   760                           # 1471 "C:\Program Files (x86)\Microchip\xc8\v1.30\include\pic16f946.h"
   761  0087                     TRISC equ 087h ;# 
   762                           # 1532 "C:\Program Files (x86)\Microchip\xc8\v1.30\include\pic16f946.h"
   763  0088                     TRISD equ 088h ;# 
   764                           # 1593 "C:\Program Files (x86)\Microchip\xc8\v1.30\include\pic16f946.h"
   765  0089                     TRISE equ 089h ;# 
   766                           # 1654 "C:\Program Files (x86)\Microchip\xc8\v1.30\include\pic16f946.h"
   767  008C                     PIE1 equ 08Ch ;# 
   768                           # 1715 "C:\Program Files (x86)\Microchip\xc8\v1.30\include\pic16f946.h"
   769  008D                     PIE2 equ 08Dh ;# 
   770                           # 1766 "C:\Program Files (x86)\Microchip\xc8\v1.30\include\pic16f946.h"
   771  008E                     PCON equ 08Eh ;# 
   772                           # 1806 "C:\Program Files (x86)\Microchip\xc8\v1.30\include\pic16f946.h"
   773  008F                     OSCCON equ 08Fh ;# 
   774                           # 1870 "C:\Program Files (x86)\Microchip\xc8\v1.30\include\pic16f946.h"
   775  0090                     OSCTUNE equ 090h ;# 
   776                           # 1921 "C:\Program Files (x86)\Microchip\xc8\v1.30\include\pic16f946.h"
   777  0091                     ANSEL equ 091h ;# 
   778                           # 2040 "C:\Program Files (x86)\Microchip\xc8\v1.30\include\pic16f946.h"
   779  0092                     PR2 equ 092h ;# 
   780                           # 2046 "C:\Program Files (x86)\Microchip\xc8\v1.30\include\pic16f946.h"
   781  0093                     SSPADD equ 093h ;# 
   782                           # 2052 "C:\Program Files (x86)\Microchip\xc8\v1.30\include\pic16f946.h"
   783  0094                     SSPSTAT equ 094h ;# 
   784                           # 2220 "C:\Program Files (x86)\Microchip\xc8\v1.30\include\pic16f946.h"
   785  0095                     WPUB equ 095h ;# 
   786                           # 2225 "C:\Program Files (x86)\Microchip\xc8\v1.30\include\pic16f946.h"
   787  0095                     WPU equ 095h ;# 
   788                           # 2457 "C:\Program Files (x86)\Microchip\xc8\v1.30\include\pic16f946.h"
   789  0096                     IOCB equ 096h ;# 
   790                           # 2462 "C:\Program Files (x86)\Microchip\xc8\v1.30\include\pic16f946.h"
   791  0096                     IOC equ 096h ;# 
   792                           # 2604 "C:\Program Files (x86)\Microchip\xc8\v1.30\include\pic16f946.h"
   793  0097                     CMCON1 equ 097h ;# 
   794                           # 2629 "C:\Program Files (x86)\Microchip\xc8\v1.30\include\pic16f946.h"
   795  0098                     TXSTA equ 098h ;# 
   796                           # 2709 "C:\Program Files (x86)\Microchip\xc8\v1.30\include\pic16f946.h"
   797  0099                     SPBRG equ 099h ;# 
   798                           # 2715 "C:\Program Files (x86)\Microchip\xc8\v1.30\include\pic16f946.h"
   799  009C                     CMCON0 equ 09Ch ;# 
   800                           # 2784 "C:\Program Files (x86)\Microchip\xc8\v1.30\include\pic16f946.h"
   801  009D                     VRCON equ 09Dh ;# 
   802                           # 2843 "C:\Program Files (x86)\Microchip\xc8\v1.30\include\pic16f946.h"
   803  009E                     ADRESL equ 09Eh ;# 
   804                           # 2849 "C:\Program Files (x86)\Microchip\xc8\v1.30\include\pic16f946.h"
   805  009F                     ADCON1 equ 09Fh ;# 
   806                           # 2890 "C:\Program Files (x86)\Microchip\xc8\v1.30\include\pic16f946.h"
   807  0105                     WDTCON equ 0105h ;# 
   808                           # 2947 "C:\Program Files (x86)\Microchip\xc8\v1.30\include\pic16f946.h"
   809  0107                     LCDCON equ 0107h ;# 
   810                           # 3022 "C:\Program Files (x86)\Microchip\xc8\v1.30\include\pic16f946.h"
   811  0108                     LCDPS equ 0108h ;# 
   812                           # 3091 "C:\Program Files (x86)\Microchip\xc8\v1.30\include\pic16f946.h"
   813  0109                     LVDCON equ 0109h ;# 
   814                           # 3143 "C:\Program Files (x86)\Microchip\xc8\v1.30\include\pic16f946.h"
   815  010C                     EEDATL equ 010Ch ;# 
   816                           # 3148 "C:\Program Files (x86)\Microchip\xc8\v1.30\include\pic16f946.h"
   817  010C                     EEDATA equ 010Ch ;# 
   818                           # 3280 "C:\Program Files (x86)\Microchip\xc8\v1.30\include\pic16f946.h"
   819  010D                     EEADRL equ 010Dh ;# 
   820                           # 3285 "C:\Program Files (x86)\Microchip\xc8\v1.30\include\pic16f946.h"
   821  010D                     EEADR equ 010Dh ;# 
   822                           # 3417 "C:\Program Files (x86)\Microchip\xc8\v1.30\include\pic16f946.h"
   823  010E                     EEDATH equ 010Eh ;# 
   824                           # 3466 "C:\Program Files (x86)\Microchip\xc8\v1.30\include\pic16f946.h"
   825  010F                     EEADRH equ 010Fh ;# 
   826                           # 3509 "C:\Program Files (x86)\Microchip\xc8\v1.30\include\pic16f946.h"
   827  0110                     LCDDATA0 equ 0110h ;# 
   828                           # 3670 "C:\Program Files (x86)\Microchip\xc8\v1.30\include\pic16f946.h"
   829  0111                     LCDDATA1 equ 0111h ;# 
   830                           # 3831 "C:\Program Files (x86)\Microchip\xc8\v1.30\include\pic16f946.h"
   831  0112                     LCDDATA2 equ 0112h ;# 
   832                           # 3992 "C:\Program Files (x86)\Microchip\xc8\v1.30\include\pic16f946.h"
   833  0113                     LCDDATA3 equ 0113h ;# 
   834                           # 4153 "C:\Program Files (x86)\Microchip\xc8\v1.30\include\pic16f946.h"
   835  0114                     LCDDATA4 equ 0114h ;# 
   836                           # 4314 "C:\Program Files (x86)\Microchip\xc8\v1.30\include\pic16f946.h"
   837  0115                     LCDDATA5 equ 0115h ;# 
   838                           # 4475 "C:\Program Files (x86)\Microchip\xc8\v1.30\include\pic16f946.h"
   839  0116                     LCDDATA6 equ 0116h ;# 
   840                           # 4636 "C:\Program Files (x86)\Microchip\xc8\v1.30\include\pic16f946.h"
   841  0117                     LCDDATA7 equ 0117h ;# 
   842                           # 4797 "C:\Program Files (x86)\Microchip\xc8\v1.30\include\pic16f946.h"
   843  0118                     LCDDATA8 equ 0118h ;# 
   844                           # 4958 "C:\Program Files (x86)\Microchip\xc8\v1.30\include\pic16f946.h"
   845  0119                     LCDDATA9 equ 0119h ;# 
   846                           # 5119 "C:\Program Files (x86)\Microchip\xc8\v1.30\include\pic16f946.h"
   847  011A                     LCDDATA10 equ 011Ah ;# 
   848                           # 5280 "C:\Program Files (x86)\Microchip\xc8\v1.30\include\pic16f946.h"
   849  011B                     LCDDATA11 equ 011Bh ;# 
   850                           # 5441 "C:\Program Files (x86)\Microchip\xc8\v1.30\include\pic16f946.h"
   851  011C                     LCDSE0 equ 011Ch ;# 
   852                           # 5602 "C:\Program Files (x86)\Microchip\xc8\v1.30\include\pic16f946.h"
   853  011D                     LCDSE1 equ 011Dh ;# 
   854                           # 5763 "C:\Program Files (x86)\Microchip\xc8\v1.30\include\pic16f946.h"
   855  011E                     LCDSE2 equ 011Eh ;# 
   856                           # 5924 "C:\Program Files (x86)\Microchip\xc8\v1.30\include\pic16f946.h"
   857  0185                     TRISF equ 0185h ;# 
   858                           # 5985 "C:\Program Files (x86)\Microchip\xc8\v1.30\include\pic16f946.h"
   859  0187                     TRISG equ 0187h ;# 
   860                           # 6034 "C:\Program Files (x86)\Microchip\xc8\v1.30\include\pic16f946.h"
   861  0188                     PORTF equ 0188h ;# 
   862                           # 6095 "C:\Program Files (x86)\Microchip\xc8\v1.30\include\pic16f946.h"
   863  0189                     PORTG equ 0189h ;# 
   864                           # 6144 "C:\Program Files (x86)\Microchip\xc8\v1.30\include\pic16f946.h"
   865  018C                     EECON1 equ 018Ch ;# 
   866                           # 6202 "C:\Program Files (x86)\Microchip\xc8\v1.30\include\pic16f946.h"
   867  018D                     EECON2 equ 018Dh ;# 
   868                           # 6208 "C:\Program Files (x86)\Microchip\xc8\v1.30\include\pic16f946.h"
   869  0190                     LCDDATA12 equ 0190h ;# 
   870                           # 6369 "C:\Program Files (x86)\Microchip\xc8\v1.30\include\pic16f946.h"
   871  0191                     LCDDATA13 equ 0191h ;# 
   872                           # 6530 "C:\Program Files (x86)\Microchip\xc8\v1.30\include\pic16f946.h"
   873  0192                     LCDDATA14 equ 0192h ;# 
   874                           # 6583 "C:\Program Files (x86)\Microchip\xc8\v1.30\include\pic16f946.h"
   875  0193                     LCDDATA15 equ 0193h ;# 
   876                           # 6744 "C:\Program Files (x86)\Microchip\xc8\v1.30\include\pic16f946.h"
   877  0194                     LCDDATA16 equ 0194h ;# 
   878                           # 6905 "C:\Program Files (x86)\Microchip\xc8\v1.30\include\pic16f946.h"
   879  0195                     LCDDATA17 equ 0195h ;# 
   880                           # 6958 "C:\Program Files (x86)\Microchip\xc8\v1.30\include\pic16f946.h"
   881  0196                     LCDDATA18 equ 0196h ;# 
   882                           # 7119 "C:\Program Files (x86)\Microchip\xc8\v1.30\include\pic16f946.h"
   883  0197                     LCDDATA19 equ 0197h ;# 
   884                           # 7280 "C:\Program Files (x86)\Microchip\xc8\v1.30\include\pic16f946.h"
   885  0198                     LCDDATA20 equ 0198h ;# 
   886                           # 7333 "C:\Program Files (x86)\Microchip\xc8\v1.30\include\pic16f946.h"
   887  0199                     LCDDATA21 equ 0199h ;# 
   888                           # 7494 "C:\Program Files (x86)\Microchip\xc8\v1.30\include\pic16f946.h"
   889  019A                     LCDDATA22 equ 019Ah ;# 
   890                           # 7655 "C:\Program Files (x86)\Microchip\xc8\v1.30\include\pic16f946.h"
   891  019B                     LCDDATA23 equ 019Bh ;# 
   892                           # 7708 "C:\Program Files (x86)\Microchip\xc8\v1.30\include\pic16f946.h"
   893  019C                     LCDSE3 equ 019Ch ;# 
   894                           # 7869 "C:\Program Files (x86)\Microchip\xc8\v1.30\include\pic16f946.h"
   895  019D                     LCDSE4 equ 019Dh ;# 
   896                           # 8030 "C:\Program Files (x86)\Microchip\xc8\v1.30\include\pic16f946.h"
   897  019E                     LCDSE5 equ 019Eh ;# 
   898                           	FNCALL	_main,_vd_AcquisitionEntrees
   899                           	FNCALL	_main,_vd_AnalyserEntrees
   900                           	FNCALL	_main,_vd_ArretPilotageRelaisBist
   901                           	FNCALL	_main,_vd_ConfigBornier
   902                           	FNCALL	_main,_vd_I2C_Setup
   903                           	FNCALL	_main,_vd_InitMicro
   904                           	FNCALL	_main,_vd_InitVariables
   905                           	FNCALL	_main,_vd_InitVariables2
   906                           	FNCALL	_main,_vd_Lit_Config
   907                           	FNCALL	_main,_vd_PiloterSorties
   908                           	FNCALL	_main,_vd_TraitementApplicatif
   909                           	FNCALL	_main,_vd_Traitement_I2C
   910                           	FNCALL	_main,_vd_Verif_Version
   911                           	FNCALL	_vd_Verif_Version,_eeprom_read
   912                           	FNCALL	_vd_Verif_Version,_eeprom_write
   913                           	FNCALL	_vd_Traitement_I2C,_eeprom_write
   914                           	FNCALL	_vd_Traitement_I2C,_vd_Sauve_Etat
   915                           	FNCALL	_vd_Sauve_Etat,_eeprom_read
   916                           	FNCALL	_vd_Sauve_Etat,_eeprom_write
   917                           	FNCALL	_vd_TraitementApplicatif,_uc_EteintLampe
   918                           	FNCALL	_vd_TraitementApplicatif,_uc_StopVolet
   919                           	FNCALL	_vd_TraitementApplicatif,_us_CodeVariateur
   920                           	FNCALL	_uc_EteintLampe,___lldiv
   921                           	FNCALL	_uc_EteintLampe,___lmul
   922                           	FNCALL	_uc_EteintLampe,___wmul
   923                           	FNCALL	_vd_PiloterSorties,_vd_PiloterLed
   924                           	FNCALL	_vd_PiloterSorties,_vd_PiloterRelais
   925                           	FNCALL	_vd_PiloterSorties,_vd_PiloterRelaisBistables
   926                           	FNCALL	_vd_PiloterRelaisBistables,_vd_PiloterRelaisBistable
   927                           	FNCALL	_vd_PiloterRelaisBistable,_vd_PiloterSortie
   928                           	FNCALL	_vd_PiloterRelais,_vd_PiloterSortie
   929                           	FNCALL	_vd_PiloterLed,_vd_PiloterSortie
   930                           	FNCALL	_vd_Lit_Config,_eeprom_read
   931                           	FNCALL	_vd_Lit_Config,_eeprom_write
   932                           	FNCALL	_vd_InitVariables2,_us_CodeVariateur
   933                           	FNCALL	_vd_ArretPilotageRelaisBist,_vd_PiloterSortie
   934                           	FNCALL	_vd_AnalyserEntrees,_vd_AnalyserEntreesTOR
   935                           	FNCALL	_vd_AnalyserEntrees,_vd_AnalyserEntreesVariateurs
   936                           	FNCALL	_vd_AnalyserEntrees,_vd_AnalyserEntreesVolets
   937                           	FNCALL	_vd_AnalyserEntreesVolets,_uc_EntreeVoletEntreeCarte
   938                           	FNCALL	_vd_AnalyserEntreesVariateurs,_uc_EntreeVariateurEntreeCarte
   939                           	FNCALL	_vd_AnalyserEntreesTOR,_uc_EntreeTOREntreeCarte
   940                           	FNCALL	_vd_AcquisitionEntrees,_uc_EtatEntree
   941                           	FNROOT	_main
   942                           	FNCALL	_IT,_SSP_Handler
   943                           	FNCALL	_IT,_vd_PilotageVariateurs
   944                           	FNCALL	_vd_PilotageVariateurs,_vd_PiloteSortieVariateur
   945                           	FNCALL	_SSP_Handler,_ReadI2C
   946                           	FNCALL	_SSP_Handler,_WriteI2C
   947                           	FNCALL	_SSP_Handler,_us_CalculerCRCSurTrame
   948                           	FNCALL	_us_CalculerCRCSurTrame,_us_CalculerCRCSurUnOctet
   949                           	FNCALL	intlevel1,_IT
   950                           	global	intlevel1
   951                           	FNROOT	intlevel1
   952                           	global	vd_PiloterRelaisBistables@s_uc_CompteurCommandeMaintenu
   953                           psect	idataBANK0,class=CODE,space=0,delta=2,noexec
   954                           global __pidataBANK0
   955  07FF                     __pidataBANK0:
   956                           	file	"../source/gestionsorties.c"
   957                           	line	98
   958                           
   959                           ;initializer for vd_PiloterRelaisBistables@s_uc_CompteurCommandeMaintenu
   960  07FF  3405               	retlw	05h
   961                           	global	_I2CStat
   962                           	global	_RXBufferIndex
   963                           	global	_uc_TempsCdeVolet
   964                           	global	_l_us_CRC
   965                           	global	_us_CRC
   966                           	global	_us_EntreesTOR
   967                           	global	_us_SortiesRelais
   968                           	global	IT@s_uc_TempoStart
   969                           	global	_RXByteCount
   970                           	global	_SensBufIndex
   971                           	global	_b1_BT_1S
   972                           	global	_l_uc_Compteur
   973                           	global	_l_uc_Compteur2
   974                           	global	_s_uc_PortA
   975                           	global	_s_uc_PortB
   976                           	global	_s_uc_PortC
   977                           	global	_s_uc_PortD
   978                           	global	_s_uc_PortE
   979                           	global	_s_uc_PortF
   980                           	global	_st_Commandes
   981                           	global	_uc_CompteurAcq
   982                           	global	_uc_CompteurBase1S
   983                           	global	_uc_CompteurBiStable
   984                           	global	_uc_CompteurCycle
   985                           	global	_uc_CompteurLED
   986                           	global	_uc_ENTREE_TOR_NB
   987                           	global	_uc_ENTREE_VARIATEUR_NB
   988                           	global	_uc_ENTREE_VOLET_NB
   989                           	global	_uc_I2C_activity
   990                           	global	_uc_NB_ES
   991                           	global	_uc_RB_NB
   992                           	global	_uc_RM_NB
   993                           	global	_uc_VARIATEUR_NB
   994                           	global	_uc_VOLET_NB
   995                           	global	_uc_compteur_ecriture_eeprom
   996                           	global	_uc_compteur_lecture_eeprom
   997                           	global	vd_PilotageVariateurs@s_uc_NumVar
   998                           	global	_TxBuf
   999                           	global	_st_EntreesVariateur
  1000                           	global	_uc_TempsCdeLampe
  1001                           	global	_st_EntreesVoletRoulant
  1002                           	global	_st_SortiesRelaisBistables
  1003                           	global	_st_Variateurs
  1004                           	global	_us_CdeVariateurs
  1005                           	global	uc_StopVolet@s_uc_CompteurVolet
  1006                           	global	_uc_CdeRelaisBistables
  1007                           	global	_RXBuffer
  1008                           	global	uc_EteintLampe@s_us_CompteurLampe
  1009                           	global	_CmdBuf
  1010                           	global	_st_Entrees
  1011                           	global	_CCP2CON
  1012  001D                     _CCP2CON	set	0x1D
  1013                           	global	_CCPR2L
  1014  001B                     _CCPR2L	set	0x1B
  1015                           	global	_PORTA
  1016  0005                     _PORTA	set	0x5
  1017                           	global	_PORTB
  1018  0006                     _PORTB	set	0x6
  1019                           	global	_PORTC
  1020  0007                     _PORTC	set	0x7
  1021                           	global	_PORTD
  1022  0008                     _PORTD	set	0x8
  1023                           	global	_PORTE
  1024  0009                     _PORTE	set	0x9
  1025                           	global	_SSPBUF
  1026  0013                     _SSPBUF	set	0x13
  1027                           	global	_SSPCON
  1028  0014                     _SSPCON	set	0x14
  1029                           	global	_T2CON
  1030  0012                     _T2CON	set	0x12
  1031                           	global	_TMR0
  1032  0001                     _TMR0	set	0x1
  1033                           	global	_CARRY
  1034  0018                     _CARRY	set	0x18
  1035                           	global	_CKP
  1036  00A4                     _CKP	set	0xA4
  1037                           	global	_GIE
  1038  005F                     _GIE	set	0x5F
  1039                           	global	_PEIE
  1040  005E                     _PEIE	set	0x5E
  1041                           	global	_SSPIF
  1042  0063                     _SSPIF	set	0x63
  1043                           	global	_SSPOV
  1044  00A6                     _SSPOV	set	0xA6
  1045                           	global	_T0IE
  1046  005D                     _T0IE	set	0x5D
  1047                           	global	_T0IF
  1048  005A                     _T0IF	set	0x5A
  1049                           	global	_TMR2IF
  1050  0061                     _TMR2IF	set	0x61
  1051                           	global	_WCOL
  1052  00A7                     _WCOL	set	0xA7
  1053                           	global	_ANSEL
  1054  0091                     _ANSEL	set	0x91
  1055                           	global	_OPTION_REG
  1056  0081                     _OPTION_REG	set	0x81
  1057                           	global	_OSCCON
  1058  008F                     _OSCCON	set	0x8F
  1059                           	global	_PR2
  1060  0092                     _PR2	set	0x92
  1061                           	global	_SSPADD
  1062  0093                     _SSPADD	set	0x93
  1063                           	global	_SSPSTAT
  1064  0094                     _SSPSTAT	set	0x94
  1065                           	global	_TRISA
  1066  0085                     _TRISA	set	0x85
  1067                           	global	_TRISB
  1068  0086                     _TRISB	set	0x86
  1069                           	global	_TRISC
  1070  0087                     _TRISC	set	0x87
  1071                           	global	_TRISD
  1072  0088                     _TRISD	set	0x88
  1073                           	global	_TRISE
  1074  0089                     _TRISE	set	0x89
  1075                           	global	_SSPIE
  1076  0463                     _SSPIE	set	0x463
  1077                           	global	_TMR2IE
  1078  0461                     _TMR2IE	set	0x461
  1079                           	global	_EEADR
  1080  010D                     _EEADR	set	0x10D
  1081                           	global	_EEDATA
  1082  010C                     _EEDATA	set	0x10C
  1083                           	global	_LCDCON
  1084  0107                     _LCDCON	set	0x107
  1085                           	global	_LVDCON
  1086  0109                     _LVDCON	set	0x109
  1087                           	global	_EECON1
  1088  018C                     _EECON1	set	0x18C
  1089                           	global	_EECON2
  1090  018D                     _EECON2	set	0x18D
  1091                           	global	_PORTF
  1092  0188                     _PORTF	set	0x188
  1093                           	global	_PORTG
  1094  0189                     _PORTG	set	0x189
  1095                           	global	_TRISF
  1096  0185                     _TRISF	set	0x185
  1097                           	global	_TRISG
  1098  0187                     _TRISG	set	0x187
  1099                           	global	_RD
  1100  0C60                     _RD	set	0xC60
  1101                           	global	_WR
  1102  0C61                     _WR	set	0xC61
  1103                           	global	_WREN
  1104  0C62                     _WREN	set	0xC62
  1105                           ; #config settings
  1106                           global __CFG_FOSC$HS
  1107  0000                     __CFG_FOSC$HS equ 0x0
  1108                           global __CFG_WDTE$OFF
  1109  0000                     __CFG_WDTE$OFF equ 0x0
  1110                           	file	"C:\Users\Cedric\AppData\Local\Temp\s564."
  1111                           	line	#
  1112                           psect cinit,class=CODE,delta=2
  1113                           global start_initialization
  1114  0011                     start_initialization:
  1115                           
  1116                           global __initialization
  1117  0011                     __initialization:
  1118                           psect	bssCOMMON,class=COMMON,space=1,noexec
  1119                           global __pbssCOMMON
  1120  007C                     __pbssCOMMON:
  1121  007C                     _I2CStat:
  1122  007C                            ds      1
  1123                           
  1124  007D                     _RXBufferIndex:
  1125  007D                            ds      1
  1126                           
  1127                           psect	bssBANK0,class=BANK0,space=1,noexec
  1128                           global __pbssBANK0
  1129  0020                     __pbssBANK0:
  1130  0020                     _uc_TempsCdeVolet:
  1131  0020                            ds      6
  1132                           
  1133  0026                     _l_us_CRC:
  1134  0026                            ds      2
  1135                           
  1136  0028                     _us_CRC:
  1137  0028                            ds      2
  1138                           
  1139  002A                     _us_EntreesTOR:
  1140  002A                            ds      2
  1141                           
  1142  002C                     _us_SortiesRelais:
  1143  002C                            ds      2
  1144                           
  1145  002E                     IT@s_uc_TempoStart:
  1146  002E                            ds      1
  1147                           
  1148  002F                     _RXByteCount:
  1149  002F                            ds      1
  1150                           
  1151  0030                     _SensBufIndex:
  1152  0030                            ds      1
  1153                           
  1154  0031                     _b1_BT_1S:
  1155  0031                            ds      1
  1156                           
  1157  0032                     _l_uc_Compteur:
  1158  0032                            ds      1
  1159                           
  1160  0033                     _l_uc_Compteur2:
  1161  0033                            ds      1
  1162                           
  1163  0034                     _s_uc_PortA:
  1164  0034                            ds      1
  1165                           
  1166  0035                     _s_uc_PortB:
  1167  0035                            ds      1
  1168                           
  1169  0036                     _s_uc_PortC:
  1170  0036                            ds      1
  1171                           
  1172  0037                     _s_uc_PortD:
  1173  0037                            ds      1
  1174                           
  1175  0038                     _s_uc_PortE:
  1176  0038                            ds      1
  1177                           
  1178  0039                     _s_uc_PortF:
  1179  0039                            ds      1
  1180                           
  1181  003A                     _st_Commandes:
  1182  003A                            ds      1
  1183                           
  1184  003B                     _uc_CompteurAcq:
  1185  003B                            ds      1
  1186                           
  1187  003C                     _uc_CompteurBase1S:
  1188  003C                            ds      1
  1189                           
  1190  003D                     _uc_CompteurBiStable:
  1191  003D                            ds      1
  1192                           
  1193  003E                     _uc_CompteurCycle:
  1194  003E                            ds      1
  1195                           
  1196  003F                     _uc_CompteurLED:
  1197  003F                            ds      1
  1198                           
  1199  0040                     _uc_ENTREE_TOR_NB:
  1200  0040                            ds      1
  1201                           
  1202  0041                     _uc_ENTREE_VARIATEUR_NB:
  1203  0041                            ds      1
  1204                           
  1205  0042                     _uc_ENTREE_VOLET_NB:
  1206  0042                            ds      1
  1207                           
  1208  0043                     _uc_I2C_activity:
  1209  0043                            ds      1
  1210                           
  1211  0044                     _uc_NB_ES:
  1212  0044                            ds      1
  1213                           
  1214  0045                     _uc_RB_NB:
  1215  0045                            ds      1
  1216                           
  1217  0046                     _uc_RM_NB:
  1218  0046                            ds      1
  1219                           
  1220  0047                     _uc_VARIATEUR_NB:
  1221  0047                            ds      1
  1222                           
  1223  0048                     _uc_VOLET_NB:
  1224  0048                            ds      1
  1225                           
  1226  0049                     _uc_compteur_ecriture_eeprom:
  1227  0049                            ds      1
  1228                           
  1229  004A                     _uc_compteur_lecture_eeprom:
  1230  004A                            ds      1
  1231                           
  1232  004B                     vd_PilotageVariateurs@s_uc_NumVar:
  1233  004B                            ds      1
  1234                           
  1235  004C                     _TxBuf:
  1236  004C                            ds      4
  1237                           
  1238                           psect	dataBANK0,class=BANK0,space=1,noexec
  1239                           global __pdataBANK0
  1240  006B                     __pdataBANK0:
  1241                           	file	"../source/gestionsorties.c"
  1242                           	line	98
  1243  006B                     vd_PiloterRelaisBistables@s_uc_CompteurCommandeMaintenu:
  1244  006B                            ds      1
  1245                           
  1246                           psect	bssBANK3,class=BANK3,space=1,noexec
  1247                           global __pbssBANK3
  1248  01A0                     __pbssBANK3:
  1249  01A0                     uc_EteintLampe@s_us_CompteurLampe:
  1250  01A0                            ds      26
  1251                           
  1252  01BA                     _CmdBuf:
  1253  01BA                            ds      25
  1254                           
  1255  01D3                     _st_Entrees:
  1256  01D3                            ds      22
  1257                           
  1258                           psect	bssBANK1,class=BANK1,space=1,noexec
  1259                           global __pbssBANK1
  1260  00A0                     __pbssBANK1:
  1261  00A0                     _st_EntreesVariateur:
  1262  00A0                            ds      16
  1263                           
  1264  00B0                     _uc_TempsCdeLampe:
  1265  00B0                            ds      13
  1266                           
  1267  00BD                     _st_EntreesVoletRoulant:
  1268  00BD                            ds      12
  1269                           
  1270  00C9                     _st_SortiesRelaisBistables:
  1271  00C9                            ds      12
  1272                           
  1273  00D5                     _st_Variateurs:
  1274  00D5                            ds      12
  1275                           
  1276  00E1                     _us_CdeVariateurs:
  1277  00E1                            ds      8
  1278                           
  1279  00E9                     uc_StopVolet@s_uc_CompteurVolet:
  1280  00E9                            ds      6
  1281                           
  1282                           psect	bssBANK2,class=BANK2,space=1,noexec
  1283                           global __pbssBANK2
  1284  0120                     __pbssBANK2:
  1285  0120                     _uc_CdeRelaisBistables:
  1286  0120                            ds      12
  1287                           
  1288  012C                     _RXBuffer:
  1289  012C                            ds      25
  1290                           
  1291                           	file	"C:\Users\Cedric\AppData\Local\Temp\s564."
  1292                           	line	#
  1293                           psect clrtext,class=CODE,delta=2
  1294                           global clear_ram0
  1295                           ;	Called with FSR containing the base address, and
  1296                           ;	W with the last address+1
  1297  1FD0                     clear_ram0:
  1298  1FD0  0064               	clrwdt			;clear the watchdog before getting into this loop
  1299  1FD1                     clrloop0:
  1300  1FD1  0180               	clrf	indf		;clear RAM location pointed to by FSR
  1301  1FD2  0A84               	incf	fsr,f		;increment pointer
  1302  1FD3  0604               	xorwf	fsr,w		;XOR with final address
  1303  1FD4  1903               	btfsc	status,2	;have we reached the end yet?
  1304  1FD5  3400               	retlw	0		;all done for this memory range, return
  1305  1FD6  0604               	xorwf	fsr,w		;XOR again to restore value
  1306  1FD7  2FD1               	goto	clrloop0		;do the next byte
  1307                           
  1308                           ; Clear objects allocated to COMMON
  1309                           psect cinit,class=CODE,delta=2,merge=1
  1310  0011  01FC               	clrf	((__pbssCOMMON)+0)&07Fh
  1311  0012  01FD               	clrf	((__pbssCOMMON)+1)&07Fh
  1312                           ; Clear objects allocated to BANK0
  1313                           psect cinit,class=CODE,delta=2,merge=1
  1314  0013  1383               	bcf	status, 7	;select IRP bank0
  1315  0014  3020               	movlw	low(__pbssBANK0)
  1316  0015  0084               	movwf	fsr
  1317  0016  3050               	movlw	low((__pbssBANK0)+030h)
  1318  0017  160A  158A  27D0   	fcall	clear_ram0
              120A  118A         
  1319                           ; Clear objects allocated to BANK3
  1320                           psect cinit,class=CODE,delta=2,merge=1
  1321  001C  1783               	bsf	status, 7	;select IRP bank2
  1322  001D  30A0               	movlw	low(__pbssBANK3)
  1323  001E  0084               	movwf	fsr
  1324  001F  30E9               	movlw	low((__pbssBANK3)+049h)
  1325  0020  160A  158A  27D0   	fcall	clear_ram0
              120A  118A         
  1326                           ; Clear objects allocated to BANK1
  1327                           psect cinit,class=CODE,delta=2,merge=1
  1328  0025  1383               	bcf	status, 7	;select IRP bank0
  1329  0026  30A0               	movlw	low(__pbssBANK1)
  1330  0027  0084               	movwf	fsr
  1331  0028  30EF               	movlw	low((__pbssBANK1)+04Fh)
  1332  0029  160A  158A  27D0   	fcall	clear_ram0
              120A  118A         
  1333                           ; Clear objects allocated to BANK2
  1334                           psect cinit,class=CODE,delta=2,merge=1
  1335  002E  1783               	bsf	status, 7	;select IRP bank2
  1336  002F  3020               	movlw	low(__pbssBANK2)
  1337  0030  0084               	movwf	fsr
  1338  0031  3045               	movlw	low((__pbssBANK2)+025h)
  1339  0032  160A  158A  27D0   	fcall	clear_ram0
              120A  118A         
  1340                           	line	#
  1341                           ; Initialize objects allocated to BANK0
  1342                           	global __pidataBANK0
  1343                           psect cinit,class=CODE,delta=2,merge=1
  1344  0037  120A  118A  27FF   	fcall	__pidataBANK0+0		;fetch initializer
              120A  118A         
  1345  003C  00EB               	movwf	__pdataBANK0+0&07fh		
  1346                           psect cinit,class=CODE,delta=2,merge=1
  1347                           global end_of_initialization,__end_of__initialization
  1348                           
  1349                           ;End of C runtime variable initialization code
  1350                           
  1351  003D                     end_of_initialization:
  1352  003D                     __end_of__initialization:clrf status
      + 003D  0183               	clrf	3
  1353  003E  160A  118A  2D93   ljmp _main	;jump to C main() function
  1354                           psect	cstackBANK3,class=BANK3,space=1,noexec
  1355                           global __pcstackBANK3
  1356  01E9                     __pcstackBANK3:
  1357                           	global	vd_TraitementApplicatif@l_us_Masque
  1358  01E9                     vd_TraitementApplicatif@l_us_Masque:	; 2 bytes @ 0x0
  1359  01E9                     	ds	2
  1360                           	global	vd_TraitementApplicatif@l_uc_RelaisSens2
  1361  01EB                     vd_TraitementApplicatif@l_uc_RelaisSens2:	; 1 bytes @ 0x2
  1362  01EB                     	ds	1
  1363                           	global	vd_TraitementApplicatif@l_uc_RelaisSens1
  1364  01EC                     vd_TraitementApplicatif@l_uc_RelaisSens1:	; 1 bytes @ 0x3
  1365  01EC                     	ds	1
  1366                           	global	vd_TraitementApplicatif@l_uc_Compteur
  1367  01ED                     vd_TraitementApplicatif@l_uc_Compteur:	; 1 bytes @ 0x4
  1368  01ED                     	ds	1
  1369                           psect	cstackCOMMON,class=COMMON,space=1,noexec
  1370                           global __pcstackCOMMON
  1371  0070                     __pcstackCOMMON:
  1372  0070                     ?_vd_PiloteSortieVariateur:	; 0 bytes @ 0x0
  1373  0070                     ?_SSP_Handler:	; 0 bytes @ 0x0
  1374  0070                     ?_vd_InitVariables:	; 0 bytes @ 0x0
  1375  0070                     ?_vd_I2C_Setup:	; 0 bytes @ 0x0
  1376  0070                     ?_vd_InitVariables2:	; 0 bytes @ 0x0
  1377  0070                     ?_vd_TraitementApplicatif:	; 0 bytes @ 0x0
  1378  0070                     ?_vd_Traitement_I2C:	; 0 bytes @ 0x0
  1379  0070                     ??_ReadI2C:	; 0 bytes @ 0x0
  1380  0070                     ?_WriteI2C:	; 0 bytes @ 0x0
  1381  0070                     ??_WriteI2C:	; 0 bytes @ 0x0
  1382  0070                     ?_vd_AcquisitionEntrees:	; 0 bytes @ 0x0
  1383  0070                     ?_vd_AnalyserEntreesTOR:	; 0 bytes @ 0x0
  1384  0070                     ?_vd_AnalyserEntreesVariateurs:	; 0 bytes @ 0x0
  1385  0070                     ?_vd_AnalyserEntreesVolets:	; 0 bytes @ 0x0
  1386  0070                     ?_vd_AnalyserEntrees:	; 0 bytes @ 0x0
  1387  0070                     ?_vd_PiloterLed:	; 0 bytes @ 0x0
  1388  0070                     ?_vd_PiloterRelais:	; 0 bytes @ 0x0
  1389  0070                     ?_vd_PiloterRelaisBistable:	; 0 bytes @ 0x0
  1390  0070                     ?_vd_PiloterRelaisBistables:	; 0 bytes @ 0x0
  1391  0070                     ?_vd_ArretPilotageRelaisBist:	; 0 bytes @ 0x0
  1392  0070                     ?_vd_PilotageVariateurs:	; 0 bytes @ 0x0
  1393  0070                     ?_vd_PiloterSorties:	; 0 bytes @ 0x0
  1394  0070                     ?_vd_InitMicro:	; 0 bytes @ 0x0
  1395  0070                     ?_vd_ConfigBornier:	; 0 bytes @ 0x0
  1396  0070                     ?_vd_Verif_Version:	; 0 bytes @ 0x0
  1397  0070                     ?_vd_Lit_Config:	; 0 bytes @ 0x0
  1398  0070                     ?_vd_Sauve_Etat:	; 0 bytes @ 0x0
  1399  0070                     ?_IT:	; 0 bytes @ 0x0
  1400  0070                     ?_main:	; 0 bytes @ 0x0
  1401  0070                     ?_uc_EtatEntree:	; 1 bytes @ 0x0
  1402  0070                     ?_eeprom_read:	; 1 bytes @ 0x0
  1403  0070                     ?_ReadI2C:	; 1 bytes @ 0x0
  1404  0070                     ?_uc_EntreeTOREntreeCarte:	; 1 bytes @ 0x0
  1405  0070                     ?_uc_EntreeVoletEntreeCarte:	; 1 bytes @ 0x0
  1406  0070                     ?_uc_EntreeVariateurEntreeCarte:	; 1 bytes @ 0x0
  1407                           	global	?_us_CalculerCRCSurUnOctet
  1408  0070                     ?_us_CalculerCRCSurUnOctet:	; 2 bytes @ 0x0
  1409                           	global	vd_PiloteSortieVariateur@uc_Etat
  1410  0070                     vd_PiloteSortieVariateur@uc_Etat:	; 1 bytes @ 0x0
  1411                           	global	WriteI2C@data
  1412  0070                     WriteI2C@data:	; 1 bytes @ 0x0
  1413                           	global	us_CalculerCRCSurUnOctet@l_us_CRC
  1414  0070                     us_CalculerCRCSurUnOctet@l_us_CRC:	; 2 bytes @ 0x0
  1415  0070                     	ds	1
  1416  0071                     ??_vd_PiloteSortieVariateur:	; 0 bytes @ 0x1
  1417                           	global	vd_PiloteSortieVariateur@uc_NumeroSortie
  1418  0071                     vd_PiloteSortieVariateur@uc_NumeroSortie:	; 1 bytes @ 0x1
  1419  0071                     	ds	1
  1420  0072                     ??_vd_PilotageVariateurs:	; 0 bytes @ 0x2
  1421                           	global	us_CalculerCRCSurUnOctet@l_uc_Octet
  1422  0072                     us_CalculerCRCSurUnOctet@l_uc_Octet:	; 1 bytes @ 0x2
  1423  0072                     	ds	1
  1424  0073                     ??_us_CalculerCRCSurUnOctet:	; 0 bytes @ 0x3
  1425                           	global	?_us_CalculerCRCSurTrame
  1426  0073                     ?_us_CalculerCRCSurTrame:	; 2 bytes @ 0x3
  1427                           	global	us_CalculerCRCSurTrame@uc_Buffer
  1428  0073                     us_CalculerCRCSurTrame@uc_Buffer:	; 2 bytes @ 0x3
  1429  0073                     	ds	2
  1430                           	global	us_CalculerCRCSurTrame@uc_NbOctets
  1431  0075                     us_CalculerCRCSurTrame@uc_NbOctets:	; 1 bytes @ 0x5
  1432  0075                     	ds	1
  1433  0076                     ??_us_CalculerCRCSurTrame:	; 0 bytes @ 0x6
  1434  0076                     	ds	2
  1435  0078                     ??_SSP_Handler:	; 0 bytes @ 0x8
  1436  0078                     	ds	1
  1437  0079                     ??_IT:	; 0 bytes @ 0x9
  1438  0079                     	ds	3
  1439                           psect	cstackBANK0,class=BANK0,space=1,noexec
  1440                           global __pcstackBANK0
  1441  0050                     __pcstackBANK0:
  1442                           	global	SSP_Handler@l_us_CRCRecu
  1443  0050                     SSP_Handler@l_us_CRCRecu:	; 2 bytes @ 0x0
  1444  0050                     	ds	2
  1445                           	global	SSP_Handler@i
  1446  0052                     SSP_Handler@i:	; 1 bytes @ 0x2
  1447  0052                     	ds	1
  1448                           	global	SSP_Handler@j
  1449  0053                     SSP_Handler@j:	; 1 bytes @ 0x3
  1450  0053                     	ds	1
  1451  0054                     ??_uc_EtatEntree:	; 0 bytes @ 0x4
  1452  0054                     ?_vd_PiloterSortie:	; 0 bytes @ 0x4
  1453  0054                     ??_eeprom_read:	; 0 bytes @ 0x4
  1454  0054                     ?_eeprom_write:	; 0 bytes @ 0x4
  1455  0054                     ??_vd_InitVariables:	; 0 bytes @ 0x4
  1456  0054                     ??_vd_I2C_Setup:	; 0 bytes @ 0x4
  1457  0054                     ??_uc_EntreeTOREntreeCarte:	; 0 bytes @ 0x4
  1458  0054                     ??_uc_EntreeVoletEntreeCarte:	; 0 bytes @ 0x4
  1459  0054                     ??_uc_EntreeVariateurEntreeCarte:	; 0 bytes @ 0x4
  1460  0054                     ??_vd_InitMicro:	; 0 bytes @ 0x4
  1461  0054                     ??_vd_ConfigBornier:	; 0 bytes @ 0x4
  1462  0054                     ?_uc_StopVolet:	; 1 bytes @ 0x4
  1463                           	global	?_us_CodeVariateur
  1464  0054                     ?_us_CodeVariateur:	; 2 bytes @ 0x4
  1465                           	global	?___wmul
  1466  0054                     ?___wmul:	; 2 bytes @ 0x4
  1467                           	global	?___lldiv
  1468  0054                     ?___lldiv:	; 4 bytes @ 0x4
  1469                           	global	?___lmul
  1470  0054                     ?___lmul:	; 4 bytes @ 0x4
  1471                           	global	uc_EntreeTOREntreeCarte@uc_NumeroEntreeTOR
  1472  0054                     uc_EntreeTOREntreeCarte@uc_NumeroEntreeTOR:	; 1 bytes @ 0x4
  1473                           	global	uc_EntreeVoletEntreeCarte@uc_NumeroEntreeVolet
  1474  0054                     uc_EntreeVoletEntreeCarte@uc_NumeroEntreeVolet:	; 1 bytes @ 0x4
  1475                           	global	uc_EntreeVariateurEntreeCarte@uc_NumeroEntreeVariateur
  1476  0054                     uc_EntreeVariateurEntreeCarte@uc_NumeroEntreeVariateur:	; 1 bytes @ 0x4
  1477                           	global	uc_EtatEntree@uc_NumeroEntree
  1478  0054                     uc_EtatEntree@uc_NumeroEntree:	; 1 bytes @ 0x4
  1479                           	global	vd_PiloterSortie@uc_NumeroSortie
  1480  0054                     vd_PiloterSortie@uc_NumeroSortie:	; 1 bytes @ 0x4
  1481                           	global	uc_StopVolet@mode
  1482  0054                     uc_StopVolet@mode:	; 1 bytes @ 0x4
  1483                           	global	eeprom_read@addr
  1484  0054                     eeprom_read@addr:	; 1 bytes @ 0x4
  1485                           	global	eeprom_write@value
  1486  0054                     eeprom_write@value:	; 1 bytes @ 0x4
  1487                           	global	___wmul@multiplier
  1488  0054                     ___wmul@multiplier:	; 2 bytes @ 0x4
  1489                           	global	___lldiv@divisor
  1490  0054                     ___lldiv@divisor:	; 4 bytes @ 0x4
  1491                           	global	___lmul@multiplier
  1492  0054                     ___lmul@multiplier:	; 4 bytes @ 0x4
  1493  0054                     	ds	1
  1494  0055                     ??_eeprom_write:	; 0 bytes @ 0x5
  1495  0055                     ??_uc_StopVolet:	; 0 bytes @ 0x5
  1496                           	global	uc_EntreeTOREntreeCarte@l_uc_Compteur
  1497  0055                     uc_EntreeTOREntreeCarte@l_uc_Compteur:	; 1 bytes @ 0x5
  1498                           	global	uc_EntreeVoletEntreeCarte@l_uc_Compteur
  1499  0055                     uc_EntreeVoletEntreeCarte@l_uc_Compteur:	; 1 bytes @ 0x5
  1500                           	global	uc_EntreeVariateurEntreeCarte@l_uc_Compteur
  1501  0055                     uc_EntreeVariateurEntreeCarte@l_uc_Compteur:	; 1 bytes @ 0x5
  1502                           	global	uc_EtatEntree@l_uc_EtatEntree
  1503  0055                     uc_EtatEntree@l_uc_EtatEntree:	; 1 bytes @ 0x5
  1504                           	global	vd_PiloterSortie@uc_Etat
  1505  0055                     vd_PiloterSortie@uc_Etat:	; 1 bytes @ 0x5
  1506                           	global	vd_InitVariables@l_uc_Compteur
  1507  0055                     vd_InitVariables@l_uc_Compteur:	; 1 bytes @ 0x5
  1508                           	global	eeprom_write@addr
  1509  0055                     eeprom_write@addr:	; 1 bytes @ 0x5
  1510  0055                     	ds	1
  1511  0056                     ??_vd_PiloterSortie:	; 0 bytes @ 0x6
  1512  0056                     ??_vd_AcquisitionEntrees:	; 0 bytes @ 0x6
  1513  0056                     ??_vd_AnalyserEntreesTOR:	; 0 bytes @ 0x6
  1514  0056                     ??_vd_AnalyserEntreesVariateurs:	; 0 bytes @ 0x6
  1515  0056                     ??_vd_AnalyserEntreesVolets:	; 0 bytes @ 0x6
  1516  0056                     ??_vd_Verif_Version:	; 0 bytes @ 0x6
  1517  0056                     ??_vd_Lit_Config:	; 0 bytes @ 0x6
  1518  0056                     ??_vd_Sauve_Etat:	; 0 bytes @ 0x6
  1519                           	global	vd_PiloterSortie@uc_TypeSortie
  1520  0056                     vd_PiloterSortie@uc_TypeSortie:	; 1 bytes @ 0x6
  1521                           	global	vd_Verif_Version@l_uc_Data
  1522  0056                     vd_Verif_Version@l_uc_Data:	; 1 bytes @ 0x6
  1523                           	global	vd_Sauve_Etat@data
  1524  0056                     vd_Sauve_Etat@data:	; 1 bytes @ 0x6
  1525                           	global	uc_StopVolet@l_stop
  1526  0056                     uc_StopVolet@l_stop:	; 1 bytes @ 0x6
  1527                           	global	___wmul@multiplicand
  1528  0056                     ___wmul@multiplicand:	; 2 bytes @ 0x6
  1529  0056                     	ds	1
  1530  0057                     ??_us_CodeVariateur:	; 0 bytes @ 0x7
  1531  0057                     ??_vd_PiloterLed:	; 0 bytes @ 0x7
  1532  0057                     ??_vd_PiloterRelais:	; 0 bytes @ 0x7
  1533  0057                     ??_vd_PiloterRelaisBistable:	; 0 bytes @ 0x7
  1534  0057                     ??_vd_ArretPilotageRelaisBist:	; 0 bytes @ 0x7
  1535                           	global	vd_AcquisitionEntrees@l_uc_EtatEntree
  1536  0057                     vd_AcquisitionEntrees@l_uc_EtatEntree:	; 1 bytes @ 0x7
  1537                           	global	vd_PiloterRelaisBistable@uc_NumeroRelaisBistable
  1538  0057                     vd_PiloterRelaisBistable@uc_NumeroRelaisBistable:	; 1 bytes @ 0x7
  1539                           	global	vd_ArretPilotageRelaisBist@l_uc_Compteur
  1540  0057                     vd_ArretPilotageRelaisBist@l_uc_Compteur:	; 1 bytes @ 0x7
  1541                           	global	vd_Sauve_Etat@l_uc_Compteur
  1542  0057                     vd_Sauve_Etat@l_uc_Compteur:	; 1 bytes @ 0x7
  1543                           	global	uc_StopVolet@uc_NumVolet
  1544  0057                     uc_StopVolet@uc_NumVolet:	; 1 bytes @ 0x7
  1545                           	global	us_CodeVariateur@c_valeur
  1546  0057                     us_CodeVariateur@c_valeur:	; 1 bytes @ 0x7
  1547                           	global	vd_Verif_Version@address
  1548  0057                     vd_Verif_Version@address:	; 2 bytes @ 0x7
  1549  0057                     	ds	1
  1550  0058                     ??_vd_PiloterRelaisBistables:	; 0 bytes @ 0x8
  1551  0058                     ??___wmul:	; 0 bytes @ 0x8
  1552                           	global	vd_AcquisitionEntrees@l_uc_Compteur
  1553  0058                     vd_AcquisitionEntrees@l_uc_Compteur:	; 1 bytes @ 0x8
  1554                           	global	vd_Lit_Config@l_us_Test
  1555  0058                     vd_Lit_Config@l_us_Test:	; 2 bytes @ 0x8
  1556                           	global	vd_Sauve_Etat@address
  1557  0058                     vd_Sauve_Etat@address:	; 2 bytes @ 0x8
  1558                           	global	us_CodeVariateur@l_us_valeur
  1559  0058                     us_CodeVariateur@l_us_valeur:	; 2 bytes @ 0x8
  1560                           	global	___wmul@product
  1561  0058                     ___wmul@product:	; 2 bytes @ 0x8
  1562                           	global	___lldiv@dividend
  1563  0058                     ___lldiv@dividend:	; 4 bytes @ 0x8
  1564                           	global	___lmul@multiplicand
  1565  0058                     ___lmul@multiplicand:	; 4 bytes @ 0x8
  1566  0058                     	ds	1
  1567                           	global	vd_AnalyserEntreesVariateurs@l_uc_EntreeVariateur
  1568  0059                     vd_AnalyserEntreesVariateurs@l_uc_EntreeVariateur:	; 1 bytes @ 0x9
  1569                           	global	vd_AnalyserEntreesVolets@l_uc_EntreeVoletRoulant
  1570  0059                     vd_AnalyserEntreesVolets@l_uc_EntreeVoletRoulant:	; 1 bytes @ 0x9
  1571                           	global	vd_PiloterRelaisBistables@l_uc_Compteur
  1572  0059                     vd_PiloterRelaisBistables@l_uc_Compteur:	; 1 bytes @ 0x9
  1573                           	global	vd_AnalyserEntreesTOR@l_us_Masque
  1574  0059                     vd_AnalyserEntreesTOR@l_us_Masque:	; 2 bytes @ 0x9
  1575                           	global	vd_PiloterRelais@l_us_Masque
  1576  0059                     vd_PiloterRelais@l_us_Masque:	; 2 bytes @ 0x9
  1577  0059                     	ds	1
  1578  005A                     ??_vd_InitVariables2:	; 0 bytes @ 0xA
  1579  005A                     ??_vd_Traitement_I2C:	; 0 bytes @ 0xA
  1580                           	global	vd_AnalyserEntreesVariateurs@l_uc_Compteur
  1581  005A                     vd_AnalyserEntreesVariateurs@l_uc_Compteur:	; 1 bytes @ 0xA
  1582                           	global	vd_AnalyserEntreesVolets@l_uc_Compteur
  1583  005A                     vd_AnalyserEntreesVolets@l_uc_Compteur:	; 1 bytes @ 0xA
  1584                           	global	vd_Lit_Config@l_uc_Compteur
  1585  005A                     vd_Lit_Config@l_uc_Compteur:	; 1 bytes @ 0xA
  1586  005A                     	ds	1
  1587                           	global	vd_AnalyserEntreesTOR@l_uc_Compteur
  1588  005B                     vd_AnalyserEntreesTOR@l_uc_Compteur:	; 1 bytes @ 0xB
  1589                           	global	vd_PiloterRelais@l_uc_Compteur
  1590  005B                     vd_PiloterRelais@l_uc_Compteur:	; 1 bytes @ 0xB
  1591                           	global	vd_InitVariables2@l_uc_Compteur
  1592  005B                     vd_InitVariables2@l_uc_Compteur:	; 1 bytes @ 0xB
  1593                           	global	vd_Lit_Config@address
  1594  005B                     vd_Lit_Config@address:	; 2 bytes @ 0xB
  1595  005B                     	ds	1
  1596  005C                     ??_vd_PiloterSorties:	; 0 bytes @ 0xC
  1597  005C                     ??___lldiv:	; 0 bytes @ 0xC
  1598  005C                     ??___lmul:	; 0 bytes @ 0xC
  1599                           	global	vd_AnalyserEntreesTOR@l_uc_EntreeTOR
  1600  005C                     vd_AnalyserEntreesTOR@l_uc_EntreeTOR:	; 1 bytes @ 0xC
  1601                           	global	vd_Traitement_I2C@l_uc_RelaisSens2
  1602  005C                     vd_Traitement_I2C@l_uc_RelaisSens2:	; 1 bytes @ 0xC
  1603                           	global	___lldiv@quotient
  1604  005C                     ___lldiv@quotient:	; 4 bytes @ 0xC
  1605                           	global	___lmul@product
  1606  005C                     ___lmul@product:	; 4 bytes @ 0xC
  1607  005C                     	ds	1
  1608  005D                     ??_vd_AnalyserEntrees:	; 0 bytes @ 0xD
  1609                           	global	vd_Traitement_I2C@l_uc_RelaisSens1
  1610  005D                     vd_Traitement_I2C@l_uc_RelaisSens1:	; 1 bytes @ 0xD
  1611  005D                     	ds	1
  1612                           	global	vd_Traitement_I2C@l_uc_masque
  1613  005E                     vd_Traitement_I2C@l_uc_masque:	; 1 bytes @ 0xE
  1614  005E                     	ds	1
  1615                           	global	vd_Traitement_I2C@l_uc_Compteur
  1616  005F                     vd_Traitement_I2C@l_uc_Compteur:	; 1 bytes @ 0xF
  1617  005F                     	ds	1
  1618                           	global	___lldiv@counter
  1619  0060                     ___lldiv@counter:	; 1 bytes @ 0x10
  1620  0060                     	ds	1
  1621  0061                     ?_uc_EteintLampe:	; 1 bytes @ 0x11
  1622                           	global	uc_EteintLampe@us_Etat_Lampe
  1623  0061                     uc_EteintLampe@us_Etat_Lampe:	; 2 bytes @ 0x11
  1624  0061                     	ds	2
  1625  0063                     ??_uc_EteintLampe:	; 0 bytes @ 0x13
  1626                           	global	uc_EteintLampe@l_stop
  1627  0063                     uc_EteintLampe@l_stop:	; 1 bytes @ 0x13
  1628  0063                     	ds	1
  1629                           	global	uc_EteintLampe@l_ul_Valeur
  1630  0064                     uc_EteintLampe@l_ul_Valeur:	; 4 bytes @ 0x14
  1631  0064                     	ds	4
  1632                           	global	uc_EteintLampe@uc_Num_Lampe
  1633  0068                     uc_EteintLampe@uc_Num_Lampe:	; 1 bytes @ 0x18
  1634  0068                     	ds	1
  1635  0069                     ??_vd_TraitementApplicatif:	; 0 bytes @ 0x19
  1636  0069                     	ds	2
  1637  006B                     ??_main:	; 0 bytes @ 0x1B
  1638                           ;!
  1639                           ;!Data Sizes:
  1640                           ;!    Strings     0
  1641                           ;!    Constant    0
  1642                           ;!    Data        1
  1643                           ;!    BSS         239
  1644                           ;!    Persistent  0
  1645                           ;!    Stack       0
  1646                           ;!
  1647                           ;!Auto Spaces:
  1648                           ;!    Space          Size  Autos    Used
  1649                           ;!    COMMON           14     12      14
  1650                           ;!    BANK0            80     27      76
  1651                           ;!    BANK3            80      5      78
  1652                           ;!    BANK1            80      0      79
  1653                           ;!    BANK2            80      0      37
  1654                           
  1655                           ;!
  1656                           ;!Pointer List with Targets:
  1657                           ;!
  1658                           ;!    us_CalculerCRCSurTrame@uc_Buffer	PTR unsigned char  size(2) Largest target is 25
  1659                           ;!		 -> TxBuf(BANK0[4]), RXBuffer(BANK2[25]), 
  1660                           ;!
  1661                           
  1662                           
  1663                           ;!
  1664                           ;!Critical Paths under _main in COMMON
  1665                           ;!
  1666                           ;!    None.
  1667                           ;!
  1668                           ;!Critical Paths under _IT in COMMON
  1669                           ;!
  1670                           ;!    _IT->_SSP_Handler
  1671                           ;!    _vd_PilotageVariateurs->_vd_PiloteSortieVariateur
  1672                           ;!    _SSP_Handler->_us_CalculerCRCSurTrame
  1673                           ;!    _us_CalculerCRCSurTrame->_us_CalculerCRCSurUnOctet
  1674                           ;!
  1675                           ;!Critical Paths under _main in BANK0
  1676                           ;!
  1677                           ;!    _main->_vd_TraitementApplicatif
  1678                           ;!    _vd_Verif_Version->_eeprom_write
  1679                           ;!    _vd_Traitement_I2C->_vd_Sauve_Etat
  1680                           ;!    _vd_Sauve_Etat->_eeprom_write
  1681                           ;!    _vd_TraitementApplicatif->_uc_EteintLampe
  1682                           ;!    _uc_EteintLampe->___lldiv
  1683                           ;!    _vd_PiloterSorties->_vd_PiloterRelais
  1684                           ;!    _vd_PiloterRelaisBistables->_vd_PiloterRelaisBistable
  1685                           ;!    _vd_PiloterRelaisBistable->_vd_PiloterSortie
  1686                           ;!    _vd_PiloterRelais->_vd_PiloterSortie
  1687                           ;!    _vd_PiloterLed->_vd_PiloterSortie
  1688                           ;!    _vd_Lit_Config->_eeprom_write
  1689                           ;!    _vd_InitVariables2->_us_CodeVariateur
  1690                           ;!    _vd_ArretPilotageRelaisBist->_vd_PiloterSortie
  1691                           ;!    _vd_AnalyserEntrees->_vd_AnalyserEntreesTOR
  1692                           ;!    _vd_AnalyserEntreesVolets->_uc_EntreeVoletEntreeCarte
  1693                           ;!    _vd_AnalyserEntreesVariateurs->_uc_EntreeVariateurEntreeCarte
  1694                           ;!    _vd_AnalyserEntreesTOR->_uc_EntreeTOREntreeCarte
  1695                           ;!    _vd_AcquisitionEntrees->_uc_EtatEntree
  1696                           ;!
  1697                           ;!Critical Paths under _IT in BANK0
  1698                           ;!
  1699                           ;!    _IT->_SSP_Handler
  1700                           ;!
  1701                           ;!Critical Paths under _main in BANK3
  1702                           ;!
  1703                           ;!    _main->_vd_TraitementApplicatif
  1704                           ;!
  1705                           ;!Critical Paths under _IT in BANK3
  1706                           ;!
  1707                           ;!    None.
  1708                           ;!
  1709                           ;!Critical Paths under _main in BANK1
  1710                           ;!
  1711                           ;!    None.
  1712                           ;!
  1713                           ;!Critical Paths under _IT in BANK1
  1714                           ;!
  1715                           ;!    None.
  1716                           ;!
  1717                           ;!Critical Paths under _main in BANK2
  1718                           ;!
  1719                           ;!    None.
  1720                           ;!
  1721                           ;!Critical Paths under _IT in BANK2
  1722                           ;!
  1723                           ;!    None.
  1724                           
  1725 ;;
  1726 ;;Main: autosize = 0, tempsize = 0, incstack = 0, save=0
  1727 ;;
  1728                           
  1729                           ;!
  1730                           ;!Call Graph Tables:
  1731                           ;!
  1732                           ;! ---------------------------------------------------------------------------------
  1733                           ;! (Depth) Function   	        Calls       Base Space   Used Autos Params    Refs
  1734                           ;! ---------------------------------------------------------------------------------
  1735                           ;! (0) _main                                                 0     0      0   26796
  1736                           ;!              _vd_AcquisitionEntrees
  1737                           ;!                 _vd_AnalyserEntrees
  1738                           ;!         _vd_ArretPilotageRelaisBist
  1739                           ;!                   _vd_ConfigBornier
  1740                           ;!                       _vd_I2C_Setup
  1741                           ;!                       _vd_InitMicro
  1742                           ;!                   _vd_InitVariables
  1743                           ;!                  _vd_InitVariables2
  1744                           ;!                      _vd_Lit_Config
  1745                           ;!                  _vd_PiloterSorties
  1746                           ;!            _vd_TraitementApplicatif
  1747                           ;!                  _vd_Traitement_I2C
  1748                           ;!                   _vd_Verif_Version
  1749                           ;! ---------------------------------------------------------------------------------
  1750                           ;! (1) _vd_Verif_Version                                     3     3      0    1271
  1751                           ;!                                              6 BANK0      3     3      0
  1752                           ;!                        _eeprom_read
  1753                           ;!                       _eeprom_write
  1754                           ;! ---------------------------------------------------------------------------------
  1755                           ;! (1) _vd_Traitement_I2C                                    6     6      0    3441
  1756                           ;!                                             10 BANK0      6     6      0
  1757                           ;!                       _eeprom_write
  1758                           ;!                      _vd_Sauve_Etat
  1759                           ;! ---------------------------------------------------------------------------------
  1760                           ;! (2) _vd_Sauve_Etat                                        4     4      0    1432
  1761                           ;!                                              6 BANK0      4     4      0
  1762                           ;!                        _eeprom_read
  1763                           ;!                       _eeprom_write
  1764                           ;! ---------------------------------------------------------------------------------
  1765                           ;! (1) _vd_TraitementApplicatif                              7     7      0    8891
  1766                           ;!                                             25 BANK0      2     2      0
  1767                           ;!                                              0 BANK3      5     5      0
  1768                           ;!                     _uc_EteintLampe
  1769                           ;!                       _uc_StopVolet
  1770                           ;!                   _us_CodeVariateur
  1771                           ;! ---------------------------------------------------------------------------------
  1772                           ;! (2) _uc_StopVolet                                         4     3      1    1127
  1773                           ;!                                              4 BANK0      4     3      1
  1774                           ;! ---------------------------------------------------------------------------------
  1775                           ;! (2) _uc_EteintLampe                                       8     6      2    3968
  1776                           ;!                                             17 BANK0      8     6      2
  1777                           ;!                            ___lldiv
  1778                           ;!                             ___lmul
  1779                           ;!                             ___wmul
  1780                           ;! ---------------------------------------------------------------------------------
  1781                           ;! (3) ___wmul                                               6     2      4    2786
  1782                           ;!                                              4 BANK0      6     2      4
  1783                           ;! ---------------------------------------------------------------------------------
  1784                           ;! (3) ___lmul                                              12     4      8     266
  1785                           ;!                                              4 BANK0     12     4      8
  1786                           ;! ---------------------------------------------------------------------------------
  1787                           ;! (3) ___lldiv                                             13     5      8     371
  1788                           ;!                                              4 BANK0     13     5      8
  1789                           ;! ---------------------------------------------------------------------------------
  1790                           ;! (1) _vd_PiloterSorties                                    0     0      0    6266
  1791                           ;!                      _vd_PiloterLed
  1792                           ;!                   _vd_PiloterRelais
  1793                           ;!          _vd_PiloterRelaisBistables
  1794                           ;! ---------------------------------------------------------------------------------
  1795                           ;! (2) _vd_PiloterRelaisBistables                            2     2      0    2492
  1796                           ;!                                              8 BANK0      2     2      0
  1797                           ;!           _vd_PiloterRelaisBistable
  1798                           ;! ---------------------------------------------------------------------------------
  1799                           ;! (3) _vd_PiloterRelaisBistable                             1     1      0    1896
  1800                           ;!                                              7 BANK0      1     1      0
  1801                           ;!                   _vd_PiloterSortie
  1802                           ;! ---------------------------------------------------------------------------------
  1803                           ;! (2) _vd_PiloterRelais                                     5     5      0    1944
  1804                           ;!                                              7 BANK0      5     5      0
  1805                           ;!                   _vd_PiloterSortie
  1806                           ;! ---------------------------------------------------------------------------------
  1807                           ;! (2) _vd_PiloterLed                                        0     0      0    1830
  1808                           ;!                   _vd_PiloterSortie
  1809                           ;! ---------------------------------------------------------------------------------
  1810                           ;! (1) _vd_Lit_Config                                        7     7      0    2168
  1811                           ;!                                              6 BANK0      7     7      0
  1812                           ;!                        _eeprom_read
  1813                           ;!                       _eeprom_write
  1814                           ;! ---------------------------------------------------------------------------------
  1815                           ;! (2) _eeprom_write                                         2     1      1    1157
  1816                           ;!                                              4 BANK0      2     1      1
  1817                           ;! ---------------------------------------------------------------------------------
  1818                           ;! (2) _eeprom_read                                          1     1      0      22
  1819                           ;!                                              4 BANK0      1     1      0
  1820                           ;! ---------------------------------------------------------------------------------
  1821                           ;! (1) _vd_InitVariables2                                    2     2      0     238
  1822                           ;!                                             10 BANK0      2     2      0
  1823                           ;!                   _us_CodeVariateur
  1824                           ;! ---------------------------------------------------------------------------------
  1825                           ;! (2) _us_CodeVariateur                                     6     3      3      77
  1826                           ;!                                              4 BANK0      6     3      3
  1827                           ;! ---------------------------------------------------------------------------------
  1828                           ;! (1) _vd_InitVariables                                     2     2      0     514
  1829                           ;!                                              4 BANK0      2     2      0
  1830                           ;! ---------------------------------------------------------------------------------
  1831                           ;! (1) _vd_InitMicro                                         0     0      0       0
  1832                           ;! ---------------------------------------------------------------------------------
  1833                           ;! (1) _vd_I2C_Setup                                         0     0      0       0
  1834                           ;! ---------------------------------------------------------------------------------
  1835                           ;! (1) _vd_ConfigBornier                                     0     0      0       0
  1836                           ;! ---------------------------------------------------------------------------------
  1837                           ;! (1) _vd_ArretPilotageRelaisBist                           1     1      0    1876
  1838                           ;!                                              7 BANK0      1     1      0
  1839                           ;!                   _vd_PiloterSortie
  1840                           ;! ---------------------------------------------------------------------------------
  1841                           ;! (4) _vd_PiloterSortie                                     3     1      2    1830
  1842                           ;!                                              4 BANK0      3     1      2
  1843                           ;! ---------------------------------------------------------------------------------
  1844                           ;! (1) _vd_AnalyserEntrees                                   0     0      0    1795
  1845                           ;!              _vd_AnalyserEntreesTOR
  1846                           ;!       _vd_AnalyserEntreesVariateurs
  1847                           ;!           _vd_AnalyserEntreesVolets
  1848                           ;! ---------------------------------------------------------------------------------
  1849                           ;! (2) _vd_AnalyserEntreesVolets                             5     5      0     476
  1850                           ;!                                              6 BANK0      5     5      0
  1851                           ;!          _uc_EntreeVoletEntreeCarte
  1852                           ;! ---------------------------------------------------------------------------------
  1853                           ;! (3) _uc_EntreeVoletEntreeCarte                            2     2      0      55
  1854                           ;!                                              4 BANK0      2     2      0
  1855                           ;! ---------------------------------------------------------------------------------
  1856                           ;! (2) _vd_AnalyserEntreesVariateurs                         5     5      0    1020
  1857                           ;!                                              6 BANK0      5     5      0
  1858                           ;!      _uc_EntreeVariateurEntreeCarte
  1859                           ;! ---------------------------------------------------------------------------------
  1860                           ;! (3) _uc_EntreeVariateurEntreeCarte                        2     2      0      49
  1861                           ;!                                              4 BANK0      2     2      0
  1862                           ;! ---------------------------------------------------------------------------------
  1863                           ;! (2) _vd_AnalyserEntreesTOR                                7     7      0     299
  1864                           ;!                                              6 BANK0      7     7      0
  1865                           ;!            _uc_EntreeTOREntreeCarte
  1866                           ;! ---------------------------------------------------------------------------------
  1867                           ;! (3) _uc_EntreeTOREntreeCarte                              2     2      0      52
  1868                           ;!                                              4 BANK0      2     2      0
  1869                           ;! ---------------------------------------------------------------------------------
  1870                           ;! (1) _vd_AcquisitionEntrees                                3     3      0     336
  1871                           ;!                                              6 BANK0      3     3      0
  1872                           ;!                      _uc_EtatEntree
  1873                           ;! ---------------------------------------------------------------------------------
  1874                           ;! (2) _uc_EtatEntree                                        2     2      0      91
  1875                           ;!                                              4 BANK0      2     2      0
  1876                           ;! ---------------------------------------------------------------------------------
  1877                           ;! Estimated maximum stack depth 4
  1878                           ;! ---------------------------------------------------------------------------------
  1879                           ;! (Depth) Function   	        Calls       Base Space   Used Autos Params    Refs
  1880                           ;! ---------------------------------------------------------------------------------
  1881                           ;! (5) _IT                                                   3     3      0     915
  1882                           ;!                                              9 COMMON     3     3      0
  1883                           ;!                        _SSP_Handler
  1884                           ;!              _vd_PilotageVariateurs
  1885                           ;! ---------------------------------------------------------------------------------
  1886                           ;! (6) _vd_PilotageVariateurs                                2     2      0     216
  1887                           ;!                                              2 COMMON     2     2      0
  1888                           ;!           _vd_PiloteSortieVariateur
  1889                           ;! ---------------------------------------------------------------------------------
  1890                           ;! (7) _vd_PiloteSortieVariateur                             2     1      1     216
  1891                           ;!                                              0 COMMON     2     1      1
  1892                           ;! ---------------------------------------------------------------------------------
  1893                           ;! (6) _SSP_Handler                                          5     5      0     699
  1894                           ;!                                              8 COMMON     1     1      0
  1895                           ;!                                              0 BANK0      4     4      0
  1896                           ;!                            _ReadI2C
  1897                           ;!                           _WriteI2C
  1898                           ;!             _us_CalculerCRCSurTrame
  1899                           ;! ---------------------------------------------------------------------------------
  1900                           ;! (7) _us_CalculerCRCSurTrame                               5     2      3     495
  1901                           ;!                                              3 COMMON     5     2      3
  1902                           ;!           _us_CalculerCRCSurUnOctet
  1903                           ;! ---------------------------------------------------------------------------------
  1904                           ;! (8) _us_CalculerCRCSurUnOctet                             3     0      3     235
  1905                           ;!                                              0 COMMON     3     0      3
  1906                           ;! ---------------------------------------------------------------------------------
  1907                           ;! (7) _WriteI2C                                             1     1      0      31
  1908                           ;!                                              0 COMMON     1     1      0
  1909                           ;! ---------------------------------------------------------------------------------
  1910                           ;! (7) _ReadI2C                                              0     0      0       0
  1911                           ;! ---------------------------------------------------------------------------------
  1912                           ;! Estimated maximum stack depth 8
  1913                           ;! ---------------------------------------------------------------------------------
  1914                           ;!
  1915                           ;! Call Graph Graphs:
  1916                           ;!
  1917                           ;! _main (ROOT)
  1918                           ;!   _vd_AcquisitionEntrees
  1919                           ;!     _uc_EtatEntree
  1920                           ;!   _vd_AnalyserEntrees
  1921                           ;!     _vd_AnalyserEntreesTOR
  1922                           ;!       _uc_EntreeTOREntreeCarte
  1923                           ;!     _vd_AnalyserEntreesVariateurs
  1924                           ;!       _uc_EntreeVariateurEntreeCarte
  1925                           ;!     _vd_AnalyserEntreesVolets
  1926                           ;!       _uc_EntreeVoletEntreeCarte
  1927                           ;!   _vd_ArretPilotageRelaisBist
  1928                           ;!     _vd_PiloterSortie
  1929                           ;!   _vd_ConfigBornier
  1930                           ;!   _vd_I2C_Setup
  1931                           ;!   _vd_InitMicro
  1932                           ;!   _vd_InitVariables
  1933                           ;!   _vd_InitVariables2
  1934                           ;!     _us_CodeVariateur
  1935                           ;!   _vd_Lit_Config
  1936                           ;!     _eeprom_read
  1937                           ;!     _eeprom_write
  1938                           ;!   _vd_PiloterSorties
  1939                           ;!     _vd_PiloterLed
  1940                           ;!       _vd_PiloterSortie
  1941                           ;!     _vd_PiloterRelais
  1942                           ;!       _vd_PiloterSortie
  1943                           ;!     _vd_PiloterRelaisBistables
  1944                           ;!       _vd_PiloterRelaisBistable
  1945                           ;!         _vd_PiloterSortie
  1946                           ;!   _vd_TraitementApplicatif
  1947                           ;!     _uc_EteintLampe
  1948                           ;!       ___lldiv
  1949                           ;!       ___lmul
  1950                           ;!       ___wmul
  1951                           ;!     _uc_StopVolet
  1952                           ;!     _us_CodeVariateur
  1953                           ;!   _vd_Traitement_I2C
  1954                           ;!     _eeprom_write
  1955                           ;!     _vd_Sauve_Etat
  1956                           ;!       _eeprom_read
  1957                           ;!       _eeprom_write
  1958                           ;!   _vd_Verif_Version
  1959                           ;!     _eeprom_read
  1960                           ;!     _eeprom_write
  1961                           ;!
  1962                           ;! _IT (ROOT)
  1963                           ;!   _SSP_Handler
  1964                           ;!     _ReadI2C
  1965                           ;!     _WriteI2C
  1966                           ;!     _us_CalculerCRCSurTrame
  1967                           ;!       _us_CalculerCRCSurUnOctet
  1968                           ;!   _vd_PilotageVariateurs
  1969                           ;!     _vd_PiloteSortieVariateur
  1970                           ;!
  1971                           
  1972                           ;! Address spaces:
  1973                           
  1974                           ;!Name               Size   Autos  Total    Cost      Usage
  1975                           ;!BANK3               50      5      4E       5       97.5%
  1976                           ;!BITBANK3            50      0       0       9        0.0%
  1977                           ;!SFR3                 0      0       0       4        0.0%
  1978                           ;!BITSFR3              0      0       0       4        0.0%
  1979                           ;!BANK2               50      0      25      11       46.3%
  1980                           ;!BITBANK2            50      0       0      10        0.0%
  1981                           ;!SFR2                 0      0       0       5        0.0%
  1982                           ;!BITSFR2              0      0       0       5        0.0%
  1983                           ;!BANK1               50      0      4F       8       98.8%
  1984                           ;!BITBANK1            50      0       0       7        0.0%
  1985                           ;!SFR1                 0      0       0       2        0.0%
  1986                           ;!BITSFR1              0      0       0       2        0.0%
  1987                           ;!BANK0               50     1B      4C       4       95.0%
  1988                           ;!BITBANK0            50      0       0       3        0.0%
  1989                           ;!SFR0                 0      0       0       1        0.0%
  1990                           ;!BITSFR0              0      0       0       1        0.0%
  1991                           ;!COMMON               E      C       E       1      100.0%
  1992                           ;!BITCOMMON            E      0       0       0        0.0%
  1993                           ;!CODE                 0      0       0       0        0.0%
  1994                           ;!DATA                 0      0     11C      12        0.0%
  1995                           ;!ABS                  0      0     11C       6        0.0%
  1996                           ;!NULL                 0      0       0       0        0.0%
  1997                           ;!STACK                0      0       0       2        0.0%
  1998                           ;!EEDATA             100      0       0       0        0.0%
  1999                           
  2000                           	global	_main
  2001                           
  2002 ;; *************** function _main *****************
  2003 ;; Defined at:
  2004 ;;		line 291 in file "../source/main.c"
  2005 ;; Parameters:    Size  Location     Type
  2006 ;;		None
  2007 ;; Auto vars:     Size  Location     Type
  2008 ;;		None
  2009 ;; Return value:  Size  Location     Type
  2010 ;;		None               void
  2011 ;; Registers used:
  2012 ;;		wreg, fsr0l, fsr0h, fsr1l, fsr1h, fsr1l, fsr1h, status,2, status,0, btemp+1, pclath, cstack
  2013 ;; Tracked objects:
  2014 ;;		On entry : 17F/0
  2015 ;;		On exit  : 60/0
  2016 ;;		Unchanged: 0/0
  2017 ;; Data sizes:     COMMON   BANK0   BANK3   BANK1   BANK2
  2018 ;;      Params:         0       0       0       0       0
  2019 ;;      Locals:         0       0       0       0       0
  2020 ;;      Temps:          0       0       0       0       0
  2021 ;;      Totals:         0       0       0       0       0
  2022 ;;Total ram usage:        0 bytes
  2023 ;; Hardware stack levels required when called:    8
  2024 ;; This function calls:
  2025 ;;		_vd_AcquisitionEntrees
  2026 ;;		_vd_AnalyserEntrees
  2027 ;;		_vd_ArretPilotageRelaisBist
  2028 ;;		_vd_ConfigBornier
  2029 ;;		_vd_I2C_Setup
  2030 ;;		_vd_InitMicro
  2031 ;;		_vd_InitVariables
  2032 ;;		_vd_InitVariables2
  2033 ;;		_vd_Lit_Config
  2034 ;;		_vd_PiloterSorties
  2035 ;;		_vd_TraitementApplicatif
  2036 ;;		_vd_Traitement_I2C
  2037 ;;		_vd_Verif_Version
  2038 ;; This function is called by:
  2039 ;;		Startup code after reset
  2040 ;; This function uses a non-reentrant model
  2041 ;;
  2042                           psect	maintext,global,class=CODE,delta=2,split=1
  2043                           	file	"../source/main.c"
  2044                           	line	291
  2045                           global __pmaintext
  2046  1593                     __pmaintext:	;psect for function _main
  2047                           psect	maintext
  2048                           	file	"../source/main.c"
  2049                           	line	291
  2050                           	global	__size_of_main
  2051  0083                     	__size_of_main	equ	__end_of_main-_main
  2052                           	
  2053  1593                     _main:	
  2054                           ;incstack = 0
  2055                           	opt	stack 0
  2056                           ; Regs used in _main: [allreg]
  2057                           	line	293
  2058                           	
  2059  1593                     l5338:	
  2060                           ;main.c: 293: vd_InitVariables();
  2061  1593  160A  118A  2750   	fcall	_vd_InitVariables
              160A  118A         
  2062                           	line	294
  2063                           	
  2064  1598                     l5340:	
  2065                           ;main.c: 294: vd_InitMicro();
  2066  1598  160A  118A  2517   	fcall	_vd_InitMicro
              160A  118A         
  2067                           	line	295
  2068                           	
  2069  159D                     l5342:	
  2070                           ;main.c: 295: vd_I2C_Setup();
  2071  159D  160A  158A  27C8   	fcall	_vd_I2C_Setup
              160A  118A         
  2072                           	line	296
  2073                           	
  2074  15A2                     l5344:	
  2075                           ;main.c: 296: vd_ConfigBornier();
  2076  15A2  160A  118A  2456   	fcall	_vd_ConfigBornier
              160A  118A         
  2077                           	line	297
  2078                           	
  2079  15A7                     l5346:	
  2080                           ;main.c: 297: vd_Verif_Version();
  2081  15A7  160A  118A  20B9   	fcall	_vd_Verif_Version
              160A  118A         
  2082                           	line	298
  2083                           	
  2084  15AC                     l5348:	
  2085                           ;main.c: 298: vd_Lit_Config ();
  2086  15AC  120A  158A  2650   	fcall	_vd_Lit_Config
              160A  118A         
  2087                           	line	299
  2088                           	
  2089  15B1                     l5350:	
  2090                           ;main.c: 299: vd_InitVariables2();
  2091  15B1  160A  118A  231D   	fcall	_vd_InitVariables2
              160A  118A         
  2092                           	line	301
  2093                           	
  2094  15B6                     l5352:	
  2095                           ;main.c: 301: GIE = 1;
  2096  15B6  178B               	bsf	(95/8),(95)&7	;volatile
  2097                           	line	302
  2098                           	
  2099  15B7                     l5354:	
  2100                           ;main.c: 302: PEIE = 1;
  2101  15B7  170B               	bsf	(94/8),(94)&7	;volatile
  2102                           	line	305
  2103                           ;main.c: 305: while(TMR2IF == 1)
  2104  15B8  2DBD               	goto	l661
  2105                           	
  2106  15B9                     l662:	
  2107                           	line	307
  2108                           ;main.c: 306: {
  2109                           ;main.c: 307: TRISD &= ~0x04;
  2110  15B9  1683               	bsf	status, 5	;RP0=1, select bank1
  2111  15BA  1108               	bcf	(136)^080h+(2/8),(2)&7	;volatile
  2112                           	line	308
  2113                           ;main.c: 308: TMR2IF = 0;
  2114  15BB  1283               	bcf	status, 5	;RP0=0, select bank0
  2115  15BC  108C               	bcf	(97/8),(97)&7	;volatile
  2116                           	line	309
  2117                           	
  2118  15BD                     l661:	
  2119                           	line	305
  2120  15BD  188C               	btfsc	(97/8),(97)&7	;volatile
  2121  15BE  2DC0               	goto	u6311
  2122  15BF  2DC1               	goto	u6310
  2123  15C0                     u6311:
  2124  15C0  2DB9               	goto	l662
  2125  15C1                     u6310:
  2126                           	line	314
  2127                           	
  2128  15C1                     l5356:	
  2129                           ;main.c: 312: {
  2130                           ;main.c: 314: vd_ConfigBornier();
  2131  15C1  160A  118A  2456   	fcall	_vd_ConfigBornier
              160A  118A         
  2132                           	line	361
  2133                           	
  2134  15C6                     l5358:	
  2135                           ;main.c: 361: if(uc_CompteurAcq >= 12)
  2136  15C6  300C               	movlw	(0Ch)
  2137  15C7  023B               	subwf	(_uc_CompteurAcq),w
  2138  15C8  1C03               	skipc
  2139  15C9  2DCB               	goto	u6321
  2140  15CA  2DCC               	goto	u6320
  2141  15CB                     u6321:
  2142  15CB  2DEA               	goto	l5376
  2143  15CC                     u6320:
  2144                           	line	363
  2145                           	
  2146  15CC                     l5360:	
  2147                           ;main.c: 362: {
  2148                           ;main.c: 363: uc_CompteurAcq -= 12;
  2149  15CC  300C               	movlw	low(0Ch)
  2150  15CD  02BB               	subwf	(_uc_CompteurAcq),f
  2151                           	line	364
  2152                           	
  2153  15CE                     l5362:	
  2154                           ;main.c: 364: if (uc_CompteurAcq > 100)
  2155  15CE  3065               	movlw	(065h)
  2156  15CF  023B               	subwf	(_uc_CompteurAcq),w
  2157  15D0  1C03               	skipc
  2158  15D1  2DD3               	goto	u6331
  2159  15D2  2DD4               	goto	u6330
  2160  15D3                     u6331:
  2161  15D3  2DD5               	goto	l5366
  2162  15D4                     u6330:
  2163                           	line	365
  2164                           	
  2165  15D4                     l5364:	
  2166                           ;main.c: 365: uc_CompteurAcq = 0;
  2167  15D4  01BB               	clrf	(_uc_CompteurAcq)
  2168                           	line	367
  2169                           	
  2170  15D5                     l5366:	
  2171                           ;main.c: 367: uc_CompteurCycle++;
  2172  15D5  0ABE               	incf	(_uc_CompteurCycle),f
  2173                           	line	369
  2174                           	
  2175  15D6                     l5368:	
  2176                           ;main.c: 369: vd_AcquisitionEntrees();
  2177  15D6  160A  118A  2403   	fcall	_vd_AcquisitionEntrees
              160A  118A         
  2178                           	line	371
  2179                           	
  2180  15DB                     l5370:	
  2181                           ;main.c: 371: if (uc_CompteurBiStable >0)
  2182  15DB  083D               	movf	(_uc_CompteurBiStable),w
  2183  15DC  1D03               	skipz
  2184  15DD  2DDF               	goto	u6340
  2185  15DE  2DEA               	goto	l5376
  2186  15DF                     u6340:
  2187                           	line	373
  2188                           	
  2189  15DF                     l5372:	
  2190                           ;main.c: 372: {
  2191                           ;main.c: 373: uc_CompteurBiStable--;
  2192  15DF  03BD               	decf	(_uc_CompteurBiStable),f
  2193                           	line	374
  2194                           ;main.c: 374: if (uc_CompteurBiStable ==0)
  2195  15E0  08BD               	movf	(_uc_CompteurBiStable),f
  2196  15E1  1D03               	skipz
  2197  15E2  2DE4               	goto	u6351
  2198  15E3  2DE5               	goto	u6350
  2199  15E4                     u6351:
  2200  15E4  2DEA               	goto	l5376
  2201  15E5                     u6350:
  2202                           	line	376
  2203                           	
  2204  15E5                     l5374:	
  2205                           ;main.c: 375: {
  2206                           ;main.c: 376: vd_ArretPilotageRelaisBist();
  2207  15E5  160A  158A  27E8   	fcall	_vd_ArretPilotageRelaisBist
              160A  118A         
  2208                           	line	394
  2209                           	
  2210  15EA                     l5376:	
  2211                           ;main.c: 377: }
  2212                           ;main.c: 378: }
  2213                           ;main.c: 380: }
  2214                           ;main.c: 394: if(uc_CompteurCycle >= 8)
  2215  15EA  3008               	movlw	(08h)
  2216  15EB  023E               	subwf	(_uc_CompteurCycle),w
  2217  15EC  1C03               	skipc
  2218  15ED  2DEF               	goto	u6361
  2219  15EE  2DF0               	goto	u6360
  2220  15EF                     u6361:
  2221  15EF  2DC1               	goto	l5356
  2222  15F0                     u6360:
  2223                           	line	396
  2224                           	
  2225  15F0                     l5378:	
  2226                           ;main.c: 395: {
  2227                           ;main.c: 396: uc_CompteurCycle = 0;
  2228  15F0  01BE               	clrf	(_uc_CompteurCycle)
  2229                           	line	399
  2230                           	
  2231  15F1                     l5380:	
  2232                           ;main.c: 399: uc_CompteurBase1S ++;
  2233  15F1  0ABC               	incf	(_uc_CompteurBase1S),f
  2234                           	line	400
  2235                           	
  2236  15F2                     l5382:	
  2237                           ;main.c: 400: if(uc_CompteurBase1S >= 25)
  2238  15F2  3019               	movlw	(019h)
  2239  15F3  023C               	subwf	(_uc_CompteurBase1S),w
  2240  15F4  1C03               	skipc
  2241  15F5  2DF7               	goto	u6371
  2242  15F6  2DF8               	goto	u6370
  2243  15F7                     u6371:
  2244  15F7  2DFB               	goto	l5388
  2245  15F8                     u6370:
  2246                           	line	402
  2247                           	
  2248  15F8                     l5384:	
  2249                           ;main.c: 401: {
  2250                           ;main.c: 402: uc_CompteurBase1S = 0;
  2251  15F8  01BC               	clrf	(_uc_CompteurBase1S)
  2252                           	line	403
  2253                           	
  2254  15F9                     l5386:	
  2255                           ;main.c: 403: b1_BT_1S = 1;
  2256  15F9  01B1               	clrf	(_b1_BT_1S)
  2257  15FA  0AB1               	incf	(_b1_BT_1S),f
  2258                           	line	406
  2259                           	
  2260  15FB                     l5388:	
  2261                           ;main.c: 404: }
  2262                           ;main.c: 406: vd_AnalyserEntrees();
  2263  15FB  160A  158A  27D8   	fcall	_vd_AnalyserEntrees
              160A  118A         
  2264                           	line	407
  2265                           	
  2266  1600                     l5390:	
  2267                           ;main.c: 407: vd_TraitementApplicatif();
  2268  1600  120A  118A  2041   	fcall	_vd_TraitementApplicatif
              160A  118A         
  2269                           	line	408
  2270                           	
  2271  1605                     l5392:	
  2272                           ;main.c: 408: vd_Traitement_I2C();
  2273  1605  120A  158A  24BB   	fcall	_vd_Traitement_I2C
              160A  118A         
  2274                           	line	409
  2275                           	
  2276  160A                     l5394:	
  2277                           ;main.c: 409: vd_PiloterSorties();
  2278  160A  120A  158A  2001   	fcall	_vd_PiloterSorties
              160A  118A         
  2279                           	line	411
  2280                           	
  2281  160F                     l5396:	
  2282                           ;main.c: 411: b1_BT_1S = 0;
  2283  160F  1283               	bcf	status, 5	;RP0=0, select bank0
  2284  1610  1303               	bcf	status, 6	;RP1=0, select bank0
  2285  1611  01B1               	clrf	(_b1_BT_1S)
  2286  1612  2DC1               	goto	l5356
  2287                           	global	start
  2288  1613  120A  118A  280E   	ljmp	start
  2289                           	opt stack 0
  2290                           	line	429
  2291                           GLOBAL	__end_of_main
  2292  1616                     	__end_of_main:
  2293                           	signat	_main,88
  2294                           	global	_vd_Verif_Version
  2295                           
  2296 ;; *************** function _vd_Verif_Version *****************
  2297 ;; Defined at:
  2298 ;;		line 52 in file "../source/main.c"
  2299 ;; Parameters:    Size  Location     Type
  2300 ;;		None
  2301 ;; Auto vars:     Size  Location     Type
  2302 ;;  address         2    7[BANK0 ] unsigned int 
  2303 ;;  l_uc_Data       1    6[BANK0 ] unsigned char 
  2304 ;; Return value:  Size  Location     Type
  2305 ;;		None               void
  2306 ;; Registers used:
  2307 ;;		wreg, status,2, status,0, pclath, cstack
  2308 ;; Tracked objects:
  2309 ;;		On entry : 60/0
  2310 ;;		On exit  : 0/0
  2311 ;;		Unchanged: 0/0
  2312 ;; Data sizes:     COMMON   BANK0   BANK3   BANK1   BANK2
  2313 ;;      Params:         0       0       0       0       0
  2314 ;;      Locals:         0       3       0       0       0
  2315 ;;      Temps:          0       0       0       0       0
  2316 ;;      Totals:         0       3       0       0       0
  2317 ;;Total ram usage:        3 bytes
  2318 ;; Hardware stack levels used:    1
  2319 ;; Hardware stack levels required when called:    5
  2320 ;; This function calls:
  2321 ;;		_eeprom_read
  2322 ;;		_eeprom_write
  2323 ;; This function is called by:
  2324 ;;		_main
  2325 ;; This function uses a non-reentrant model
  2326 ;;
  2327                           psect	text1,local,class=CODE,delta=2,merge=1
  2328                           	line	52
  2329                           global __ptext1
  2330  10B9                     __ptext1:	;psect for function _vd_Verif_Version
  2331                           psect	text1
  2332                           	file	"../source/main.c"
  2333                           	line	52
  2334                           	global	__size_of_vd_Verif_Version
  2335  0027                     	__size_of_vd_Verif_Version	equ	__end_of_vd_Verif_Version-_vd_Verif_Version
  2336                           	
  2337  10B9                     _vd_Verif_Version:	
  2338                           ;incstack = 0
  2339                           	opt	stack 2
  2340                           ; Regs used in _vd_Verif_Version: [wreg+status,2+status,0+pclath+cstack]
  2341                           	line	55
  2342                           	
  2343  10B9                     l4280:	
  2344                           ;main.c: 54: unsigned char l_uc_Data;
  2345                           ;main.c: 55: unsigned int address = 0x000D;
  2346  10B9  300D               	movlw	0Dh
  2347  10BA  00D7               	movwf	(vd_Verif_Version@address)
  2348  10BB  01D8               	clrf	(vd_Verif_Version@address+1)
  2349                           	line	57
  2350                           	
  2351  10BC                     l4282:	
  2352                           ;main.c: 57: l_uc_Data = eeprom_read(address++);
  2353  10BC  300D               	movlw	(0Dh)
  2354  10BD  160A  118A  203A   	fcall	_eeprom_read
              160A  118A         
  2355  10C2  1303               	bcf	status, 6	;RP1=0, select bank0
  2356  10C3  00D6               	movwf	(vd_Verif_Version@l_uc_Data)
  2357                           	
  2358  10C4                     l4284:	
  2359  10C4  0AD7               	incf	(vd_Verif_Version@address),f
  2360  10C5  1903               	skipnz
  2361  10C6  0AD8               	incf	(vd_Verif_Version@address+1),f
  2362                           	line	58
  2363                           	
  2364  10C7                     l4286:	
  2365                           ;main.c: 58: if (l_uc_Data != 1)
  2366  10C7  0356               	decf	(vd_Verif_Version@l_uc_Data),w
  2367  10C8  1903               	skipnz
  2368  10C9  28CB               	goto	u4651
  2369  10CA  28CC               	goto	u4650
  2370  10CB                     u4651:
  2371  10CB  28DF               	goto	l622
  2372  10CC                     u4650:
  2373                           	line	61
  2374                           	
  2375  10CC                     l4288:	
  2376                           ;main.c: 59: {
  2377                           ;main.c: 61: eeprom_write(address++, 0);
  2378  10CC  01D4               	clrf	(eeprom_write@value)
  2379  10CD  0857               	movf	(vd_Verif_Version@address),w
  2380  10CE  160A  118A  2092   	fcall	_eeprom_write
              160A  118A         
  2381                           	
  2382  10D3                     l4290:	
  2383  10D3  1283               	bcf	status, 5	;RP0=0, select bank0
  2384  10D4  1303               	bcf	status, 6	;RP1=0, select bank0
  2385  10D5  0AD7               	incf	(vd_Verif_Version@address),f
  2386  10D6  1903               	skipnz
  2387  10D7  0AD8               	incf	(vd_Verif_Version@address+1),f
  2388                           	line	62
  2389                           	
  2390  10D8                     l4292:	
  2391                           ;main.c: 62: eeprom_write(address, 0);
  2392  10D8  01D4               	clrf	(eeprom_write@value)
  2393  10D9  0857               	movf	(vd_Verif_Version@address),w
  2394  10DA  160A  118A  2092   	fcall	_eeprom_write
              160A  118A         
  2395                           	line	64
  2396                           	
  2397  10DF                     l622:	
  2398  10DF  0008               	return
  2399                           	opt stack 0
  2400                           GLOBAL	__end_of_vd_Verif_Version
  2401  10E0                     	__end_of_vd_Verif_Version:
  2402                           	signat	_vd_Verif_Version,88
  2403                           	global	_vd_Traitement_I2C
  2404                           
  2405 ;; *************** function _vd_Traitement_I2C *****************
  2406 ;; Defined at:
  2407 ;;		line 429 in file "../source/slavenode.c"
  2408 ;; Parameters:    Size  Location     Type
  2409 ;;		None
  2410 ;; Auto vars:     Size  Location     Type
  2411 ;;  l_uc_Compteu    1   15[BANK0 ] unsigned char 
  2412 ;;  l_uc_masque     1   14[BANK0 ] unsigned char 
  2413 ;;  l_uc_RelaisS    1   13[BANK0 ] unsigned char 
  2414 ;;  l_uc_RelaisS    1   12[BANK0 ] unsigned char 
  2415 ;; Return value:  Size  Location     Type
  2416 ;;		None               void
  2417 ;; Registers used:
  2418 ;;		wreg, fsr0l, fsr0h, status,2, status,0, pclath, cstack
  2419 ;; Tracked objects:
  2420 ;;		On entry : 60/60
  2421 ;;		On exit  : 60/0
  2422 ;;		Unchanged: 0/0
  2423 ;; Data sizes:     COMMON   BANK0   BANK3   BANK1   BANK2
  2424 ;;      Params:         0       0       0       0       0
  2425 ;;      Locals:         0       4       0       0       0
  2426 ;;      Temps:          0       2       0       0       0
  2427 ;;      Totals:         0       6       0       0       0
  2428 ;;Total ram usage:        6 bytes
  2429 ;; Hardware stack levels used:    1
  2430 ;; Hardware stack levels required when called:    6
  2431 ;; This function calls:
  2432 ;;		_eeprom_write
  2433 ;;		_vd_Sauve_Etat
  2434 ;; This function is called by:
  2435 ;;		_main
  2436 ;; This function uses a non-reentrant model
  2437 ;;
  2438                           psect	text2,local,class=CODE,delta=2,merge=1
  2439                           	file	"../source/slavenode.c"
  2440                           	line	429
  2441                           global __ptext2
  2442  0CBB                     __ptext2:	;psect for function _vd_Traitement_I2C
  2443                           psect	text2
  2444                           	file	"../source/slavenode.c"
  2445                           	line	429
  2446                           	global	__size_of_vd_Traitement_I2C
  2447  0195                     	__size_of_vd_Traitement_I2C	equ	__end_of_vd_Traitement_I2C-_vd_Traitement_I2C
  2448                           	
  2449  0CBB                     _vd_Traitement_I2C:	
  2450                           ;incstack = 0
  2451                           	opt	stack 1
  2452                           ; Regs used in _vd_Traitement_I2C: [wreg-fsr0h+status,2+status,0+pclath+cstack]
  2453                           	line	436
  2454                           	
  2455  0CBB                     l4840:	
  2456                           ;slavenode.c: 432: unsigned char l_uc_Compteur, l_uc_masque;
  2457                           ;slavenode.c: 433: unsigned char l_uc_RelaisSens1, l_uc_RelaisSens2;
  2458                           ;slavenode.c: 436: if (CmdBuf[0] != 0)
  2459  0CBB  083A               	movf	(_CmdBuf)^0180h,w
  2460  0CBC  1D03               	skipz
  2461  0CBD  2CBF               	goto	u5510
  2462  0CBE  2E40               	goto	l4962
  2463  0CBF                     u5510:
  2464  0CBF  2E2F               	goto	l4960
  2465                           	line	446
  2466                           	
  2467  0CC0                     l4844:	
  2468                           ;slavenode.c: 446: us_SortiesRelais |= (CmdBuf[2] + (CmdBuf[4] << 8));
  2469  0CC0  083C               	movf	0+(_CmdBuf)^0180h+02h,w
  2470  0CC1  1283               	bcf	status, 5	;RP0=0, select bank0
  2471  0CC2  1303               	bcf	status, 6	;RP1=0, select bank0
  2472  0CC3  04AC               	iorwf	(_us_SortiesRelais),f
  2473  0CC4  1683               	bsf	status, 5	;RP0=1, select bank3
  2474  0CC5  1703               	bsf	status, 6	;RP1=1, select bank3
  2475  0CC6  083E               	movf	0+(_CmdBuf)^0180h+04h,w
  2476  0CC7  1283               	bcf	status, 5	;RP0=0, select bank0
  2477  0CC8  1303               	bcf	status, 6	;RP1=0, select bank0
  2478  0CC9  04AD               	iorwf	(_us_SortiesRelais+1),f
  2479                           	line	447
  2480                           ;slavenode.c: 447: us_SortiesRelais &= ~(CmdBuf[1] + (CmdBuf[3] << 8));
  2481  0CCA  1683               	bsf	status, 5	;RP0=1, select bank3
  2482  0CCB  1703               	bsf	status, 6	;RP1=1, select bank3
  2483  0CCC  083D               	movf	0+(_CmdBuf)^0180h+03h,w
  2484  0CCD  1283               	bcf	status, 5	;RP0=0, select bank0
  2485  0CCE  1303               	bcf	status, 6	;RP1=0, select bank0
  2486  0CCF  00DB               	movwf	(??_vd_Traitement_I2C+0)+0+1
  2487  0CD0  1683               	bsf	status, 5	;RP0=1, select bank3
  2488  0CD1  1703               	bsf	status, 6	;RP1=1, select bank3
  2489  0CD2  083B               	movf	0+(_CmdBuf)^0180h+01h,w
  2490  0CD3  1283               	bcf	status, 5	;RP0=0, select bank0
  2491  0CD4  1303               	bcf	status, 6	;RP1=0, select bank0
  2492  0CD5  00DA               	movwf	(??_vd_Traitement_I2C+0)+0
  2493  0CD6  09DA               	comf	(??_vd_Traitement_I2C+0)+0,f
  2494  0CD7  09DB               	comf	(??_vd_Traitement_I2C+0)+1,f
  2495  0CD8  085A               	movf	0+(??_vd_Traitement_I2C+0)+0,w
  2496  0CD9  05AC               	andwf	(_us_SortiesRelais),f
  2497  0CDA  085B               	movf	1+(??_vd_Traitement_I2C+0)+0,w
  2498  0CDB  05AD               	andwf	(_us_SortiesRelais+1),f
  2499                           	line	451
  2500                           	
  2501  0CDC                     l4846:	
  2502                           ;slavenode.c: 451: for (l_uc_Compteur = 0, l_uc_masque = 0x01; l_uc_Compteur < VARIATEUR
                                 _NB; l_uc_Compteur++, l_uc_masque= l_uc_masque<<1)
  2503  0CDC  01DF               	clrf	(vd_Traitement_I2C@l_uc_Compteur)
  2504                           	
  2505  0CDD                     l4848:	
  2506  0CDD  01DE               	clrf	(vd_Traitement_I2C@l_uc_masque)
  2507  0CDE  0ADE               	incf	(vd_Traitement_I2C@l_uc_masque),f
  2508                           	line	454
  2509                           	
  2510  0CDF                     l4854:	
  2511                           ;slavenode.c: 452: {
  2512                           ;slavenode.c: 454: if ((CmdBuf[6] & l_uc_masque) != 0)
  2513  0CDF  1683               	bsf	status, 5	;RP0=1, select bank3
  2514  0CE0  1703               	bsf	status, 6	;RP1=1, select bank3
  2515  0CE1  0840               	movf	0+(_CmdBuf)^0180h+06h,w
  2516  0CE2  1283               	bcf	status, 5	;RP0=0, select bank0
  2517  0CE3  1303               	bcf	status, 6	;RP1=0, select bank0
  2518  0CE4  055E               	andwf	(vd_Traitement_I2C@l_uc_masque),w
  2519  0CE5  1903               	btfsc	status,2
  2520  0CE6  2CE8               	goto	u5521
  2521  0CE7  2CE9               	goto	u5520
  2522  0CE8                     u5521:
  2523  0CE8  2CFA               	goto	l4858
  2524  0CE9                     u5520:
  2525                           	line	456
  2526                           	
  2527  0CE9                     l4856:	
  2528                           ;slavenode.c: 455: {
  2529                           ;slavenode.c: 456: st_EntreesVariateur[l_uc_Compteur].ub3_EtatCommande = uc_VARIATEUR_ON
                                 ;
  2530  0CE9  085F               	movf	(vd_Traitement_I2C@l_uc_Compteur),w
  2531  0CEA  00DA               	movwf	(??_vd_Traitement_I2C+0)+0
  2532  0CEB  3001               	movlw	(02h)-1
  2533  0CEC                     u5535:
  2534  0CEC  1003               	clrc
  2535  0CED  0DDA               	rlf	(??_vd_Traitement_I2C+0)+0,f
  2536  0CEE  3EFF               	addlw	-1
  2537  0CEF  1D03               	skipz
  2538  0CF0  2CEC               	goto	u5535
  2539  0CF1  1003               	clrc
  2540  0CF2  0D5A               	rlf	(??_vd_Traitement_I2C+0)+0,w
  2541  0CF3  3EA2               	addlw	_st_EntreesVariateur+02h&0ffh
  2542  0CF4  0084               	movwf	fsr0
  2543  0CF5  1383               	bcf	status, 7	;select IRP bank1
  2544  0CF6  0800               	movf	indf,w
  2545  0CF7  391F               	andlw	not (((1<<3)-1)<<5)
  2546  0CF8  3840               	iorlw	(02h & ((1<<3)-1))<<5
  2547  0CF9  0080               	movwf	indf
  2548                           	line	458
  2549                           	
  2550  0CFA                     l4858:	
  2551                           ;slavenode.c: 457: }
  2552                           ;slavenode.c: 458: if ((CmdBuf[5] & l_uc_masque) != 0)
  2553  0CFA  1683               	bsf	status, 5	;RP0=1, select bank3
  2554  0CFB  1703               	bsf	status, 6	;RP1=1, select bank3
  2555  0CFC  083F               	movf	0+(_CmdBuf)^0180h+05h,w
  2556  0CFD  1283               	bcf	status, 5	;RP0=0, select bank0
  2557  0CFE  1303               	bcf	status, 6	;RP1=0, select bank0
  2558  0CFF  055E               	andwf	(vd_Traitement_I2C@l_uc_masque),w
  2559  0D00  1903               	btfsc	status,2
  2560  0D01  2D03               	goto	u5541
  2561  0D02  2D04               	goto	u5540
  2562  0D03                     u5541:
  2563  0D03  2D15               	goto	l4862
  2564  0D04                     u5540:
  2565                           	line	460
  2566                           	
  2567  0D04                     l4860:	
  2568                           ;slavenode.c: 459: {
  2569                           ;slavenode.c: 460: st_EntreesVariateur[l_uc_Compteur].ub3_EtatCommande = uc_VARIATEUR_OF
                                 F;
  2570  0D04  085F               	movf	(vd_Traitement_I2C@l_uc_Compteur),w
  2571  0D05  00DA               	movwf	(??_vd_Traitement_I2C+0)+0
  2572  0D06  3001               	movlw	(02h)-1
  2573  0D07                     u5555:
  2574  0D07  1003               	clrc
  2575  0D08  0DDA               	rlf	(??_vd_Traitement_I2C+0)+0,f
  2576  0D09  3EFF               	addlw	-1
  2577  0D0A  1D03               	skipz
  2578  0D0B  2D07               	goto	u5555
  2579  0D0C  1003               	clrc
  2580  0D0D  0D5A               	rlf	(??_vd_Traitement_I2C+0)+0,w
  2581  0D0E  3EA2               	addlw	_st_EntreesVariateur+02h&0ffh
  2582  0D0F  0084               	movwf	fsr0
  2583  0D10  1383               	bcf	status, 7	;select IRP bank1
  2584  0D11  0800               	movf	indf,w
  2585  0D12  391F               	andlw	not (((1<<3)-1)<<5)
  2586  0D13  3820               	iorlw	(01h & ((1<<3)-1))<<5
  2587  0D14  0080               	movwf	indf
  2588                           	line	451
  2589                           	
  2590  0D15                     l4862:	
  2591  0D15  0ADF               	incf	(vd_Traitement_I2C@l_uc_Compteur),f
  2592                           	
  2593  0D16                     l4864:	
  2594  0D16  1003               	clrc
  2595  0D17  0DDE               	rlf	(vd_Traitement_I2C@l_uc_masque),f
  2596                           	
  2597  0D18                     l4866:	
  2598  0D18  3004               	movlw	(04h)
  2599  0D19  025F               	subwf	(vd_Traitement_I2C@l_uc_Compteur),w
  2600  0D1A  1C03               	skipc
  2601  0D1B  2D1D               	goto	u5561
  2602  0D1C  2D1E               	goto	u5560
  2603  0D1D                     u5561:
  2604  0D1D  2CDF               	goto	l4854
  2605  0D1E                     u5560:
  2606                           	line	466
  2607                           	
  2608  0D1E                     l4868:	
  2609                           ;slavenode.c: 461: }
  2610                           ;slavenode.c: 462: }
  2611                           ;slavenode.c: 466: for (l_uc_Compteur = 0, l_uc_masque = 0x01; l_uc_Compteur < RB_NB/2; 
                                 l_uc_Compteur++, l_uc_masque= l_uc_masque<<1)
  2612  0D1E  01DF               	clrf	(vd_Traitement_I2C@l_uc_Compteur)
  2613                           	
  2614  0D1F                     l4870:	
  2615  0D1F  01DE               	clrf	(vd_Traitement_I2C@l_uc_masque)
  2616  0D20  0ADE               	incf	(vd_Traitement_I2C@l_uc_masque),f
  2617                           	line	469
  2618                           	
  2619  0D21                     l4876:	
  2620                           ;slavenode.c: 467: {
  2621                           ;slavenode.c: 469: l_uc_RelaisSens1 = l_uc_Compteur *2;
  2622  0D21  1003               	clrc
  2623  0D22  0D5F               	rlf	(vd_Traitement_I2C@l_uc_Compteur),w
  2624  0D23  00DD               	movwf	(vd_Traitement_I2C@l_uc_RelaisSens1)
  2625                           	line	470
  2626                           ;slavenode.c: 470: l_uc_RelaisSens2 = l_uc_RelaisSens1 +1;
  2627  0D24  085D               	movf	(vd_Traitement_I2C@l_uc_RelaisSens1),w
  2628  0D25  3E01               	addlw	01h
  2629  0D26  00DC               	movwf	(vd_Traitement_I2C@l_uc_RelaisSens2)
  2630                           	line	472
  2631                           ;slavenode.c: 472: if ((CmdBuf[7] & l_uc_masque)!= 0)
  2632  0D27  1683               	bsf	status, 5	;RP0=1, select bank3
  2633  0D28  1703               	bsf	status, 6	;RP1=1, select bank3
  2634  0D29  0841               	movf	0+(_CmdBuf)^0180h+07h,w
  2635  0D2A  1283               	bcf	status, 5	;RP0=0, select bank0
  2636  0D2B  1303               	bcf	status, 6	;RP1=0, select bank0
  2637  0D2C  055E               	andwf	(vd_Traitement_I2C@l_uc_masque),w
  2638  0D2D  1903               	btfsc	status,2
  2639  0D2E  2D30               	goto	u5571
  2640  0D2F  2D31               	goto	u5570
  2641  0D30                     u5571:
  2642  0D30  2D3A               	goto	l4880
  2643  0D31                     u5570:
  2644                           	line	474
  2645                           	
  2646  0D31                     l4878:	
  2647                           ;slavenode.c: 473: {
  2648                           ;slavenode.c: 474: st_EntreesVoletRoulant[l_uc_RelaisSens1].ub3_EtatCommande = uc_VOLET_
                                 ON;
  2649  0D31  085D               	movf	(vd_Traitement_I2C@l_uc_RelaisSens1),w
  2650  0D32  3EBD               	addlw	_st_EntreesVoletRoulant&0ffh
  2651  0D33  0084               	movwf	fsr0
  2652  0D34  1383               	bcf	status, 7	;select IRP bank1
  2653  0D35  0800               	movf	indf,w
  2654  0D36  391F               	andlw	not (((1<<3)-1)<<5)
  2655  0D37  3880               	iorlw	(04h & ((1<<3)-1))<<5
  2656  0D38  0080               	movwf	indf
  2657                           	line	475
  2658                           ;slavenode.c: 475: }
  2659  0D39  2D4C               	goto	l4884
  2660                           	line	478
  2661                           	
  2662  0D3A                     l4880:	
  2663                           ;slavenode.c: 476: else
  2664                           ;slavenode.c: 477: {
  2665                           ;slavenode.c: 478: if ((CmdBuf[8] & l_uc_masque) != 0)
  2666  0D3A  1683               	bsf	status, 5	;RP0=1, select bank3
  2667  0D3B  1703               	bsf	status, 6	;RP1=1, select bank3
  2668  0D3C  0842               	movf	0+(_CmdBuf)^0180h+08h,w
  2669  0D3D  1283               	bcf	status, 5	;RP0=0, select bank0
  2670  0D3E  1303               	bcf	status, 6	;RP1=0, select bank0
  2671  0D3F  055E               	andwf	(vd_Traitement_I2C@l_uc_masque),w
  2672  0D40  1903               	btfsc	status,2
  2673  0D41  2D43               	goto	u5581
  2674  0D42  2D44               	goto	u5580
  2675  0D43                     u5581:
  2676  0D43  2D4C               	goto	l4884
  2677  0D44                     u5580:
  2678                           	line	480
  2679                           	
  2680  0D44                     l4882:	
  2681                           ;slavenode.c: 479: {
  2682                           ;slavenode.c: 480: st_EntreesVoletRoulant[l_uc_RelaisSens2].ub3_EtatCommande = uc_VOLET_
                                 ON;
  2683  0D44  085C               	movf	(vd_Traitement_I2C@l_uc_RelaisSens2),w
  2684  0D45  3EBD               	addlw	_st_EntreesVoletRoulant&0ffh
  2685  0D46  0084               	movwf	fsr0
  2686  0D47  1383               	bcf	status, 7	;select IRP bank1
  2687  0D48  0800               	movf	indf,w
  2688  0D49  391F               	andlw	not (((1<<3)-1)<<5)
  2689  0D4A  3880               	iorlw	(04h & ((1<<3)-1))<<5
  2690  0D4B  0080               	movwf	indf
  2691                           	line	466
  2692                           	
  2693  0D4C                     l4884:	
  2694  0D4C  0ADF               	incf	(vd_Traitement_I2C@l_uc_Compteur),f
  2695                           	
  2696  0D4D                     l4886:	
  2697  0D4D  1003               	clrc
  2698  0D4E  0DDE               	rlf	(vd_Traitement_I2C@l_uc_masque),f
  2699                           	
  2700  0D4F                     l4888:	
  2701  0D4F  3006               	movlw	(06h)
  2702  0D50  025F               	subwf	(vd_Traitement_I2C@l_uc_Compteur),w
  2703  0D51  1C03               	skipc
  2704  0D52  2D54               	goto	u5591
  2705  0D53  2D55               	goto	u5590
  2706  0D54                     u5591:
  2707  0D54  2D21               	goto	l4876
  2708  0D55                     u5590:
  2709                           	line	485
  2710                           	
  2711  0D55                     l4890:	
  2712                           ;slavenode.c: 481: }
  2713                           ;slavenode.c: 482: }
  2714                           ;slavenode.c: 483: }
  2715                           ;slavenode.c: 485: CmdBuf[0] = 0;
  2716  0D55  1683               	bsf	status, 5	;RP0=1, select bank3
  2717  0D56  1703               	bsf	status, 6	;RP1=1, select bank3
  2718  0D57  01BA               	clrf	(_CmdBuf)^0180h
  2719                           	line	486
  2720                           ;slavenode.c: 486: break;
  2721  0D58  2E40               	goto	l4962
  2722                           	line	504
  2723                           	
  2724  0D59                     l4892:	
  2725                           ;slavenode.c: 504: for (l_uc_Compteur = 0; l_uc_Compteur < VARIATEUR_NB; l_uc_Compteur++
                                 )
  2726  0D59  1283               	bcf	status, 5	;RP0=0, select bank0
  2727  0D5A  1303               	bcf	status, 6	;RP1=0, select bank0
  2728  0D5B  01DF               	clrf	(vd_Traitement_I2C@l_uc_Compteur)
  2729                           	line	506
  2730                           	
  2731  0D5C                     l4898:	
  2732                           ;slavenode.c: 505: {
  2733                           ;slavenode.c: 506: if (st_EntreesVariateur[l_uc_Compteur].ub3_EntreeMode != (CmdBuf[l_uc
                                 _Compteur+1] & 0x07))
  2734  0D5C  085F               	movf	(vd_Traitement_I2C@l_uc_Compteur),w
  2735  0D5D  00DA               	movwf	(??_vd_Traitement_I2C+0)+0
  2736  0D5E  3001               	movlw	(02h)-1
  2737  0D5F                     u5605:
  2738  0D5F  1003               	clrc
  2739  0D60  0DDA               	rlf	(??_vd_Traitement_I2C+0)+0,f
  2740  0D61  3EFF               	addlw	-1
  2741  0D62  1D03               	skipz
  2742  0D63  2D5F               	goto	u5605
  2743  0D64  1003               	clrc
  2744  0D65  0D5A               	rlf	(??_vd_Traitement_I2C+0)+0,w
  2745  0D66  3EA2               	addlw	_st_EntreesVariateur+02h&0ffh
  2746  0D67  0084               	movwf	fsr0
  2747  0D68  1383               	bcf	status, 7	;select IRP bank1
  2748  0D69  0800               	movf	indf,w
  2749  0D6A  3907               	andlw	(1<<3)-1
  2750  0D6B  00DB               	movwf	(??_vd_Traitement_I2C+1)+0
  2751  0D6C  085F               	movf	(vd_Traitement_I2C@l_uc_Compteur),w
  2752  0D6D  3EBB               	addlw	_CmdBuf+01h&0ffh
  2753  0D6E  0084               	movwf	fsr0
  2754  0D6F  1783               	bsf	status, 7	;select IRP bank3
  2755  0D70  0800               	movf	indf,w
  2756  0D71  3907               	andlw	07h
  2757  0D72  065B               	xorwf	(??_vd_Traitement_I2C+1)+0,w
  2758  0D73  1903               	skipnz
  2759  0D74  2D76               	goto	u5611
  2760  0D75  2D77               	goto	u5610
  2761  0D76                     u5611:
  2762  0D76  2D9E               	goto	l4904
  2763  0D77                     u5610:
  2764                           	line	508
  2765                           	
  2766  0D77                     l4900:	
  2767                           ;slavenode.c: 507: {
  2768                           ;slavenode.c: 508: st_EntreesVariateur[l_uc_Compteur].ub3_EntreeMode = CmdBuf[l_uc_Compt
                                 eur+1] & 0x07;
  2769  0D77  085F               	movf	(vd_Traitement_I2C@l_uc_Compteur),w
  2770  0D78  3EBB               	addlw	_CmdBuf+01h&0ffh
  2771  0D79  0084               	movwf	fsr0
  2772  0D7A  3007               	movlw	(07h)
  2773  0D7B  0500               	andwf	indf,w
  2774  0D7C  00DA               	movwf	(??_vd_Traitement_I2C+0)+0
  2775  0D7D  085F               	movf	(vd_Traitement_I2C@l_uc_Compteur),w
  2776  0D7E  00DB               	movwf	(??_vd_Traitement_I2C+1)+0
  2777  0D7F  3001               	movlw	(02h)-1
  2778  0D80                     u5625:
  2779  0D80  1003               	clrc
  2780  0D81  0DDB               	rlf	(??_vd_Traitement_I2C+1)+0,f
  2781  0D82  3EFF               	addlw	-1
  2782  0D83  1D03               	skipz
  2783  0D84  2D80               	goto	u5625
  2784  0D85  1003               	clrc
  2785  0D86  0D5B               	rlf	(??_vd_Traitement_I2C+1)+0,w
  2786  0D87  3EA2               	addlw	_st_EntreesVariateur+02h&0ffh
  2787  0D88  0084               	movwf	fsr0
  2788  0D89  1383               	bcf	status, 7	;select IRP bank1
  2789  0D8A  0800               	movf	indf,w
  2790  0D8B  065A               	xorwf	0+(??_vd_Traitement_I2C+0)+0,w
  2791  0D8C  39F8               	andlw	not ((1<<3)-1)
  2792  0D8D  065A               	xorwf	0+(??_vd_Traitement_I2C+0)+0,w
  2793  0D8E  0080               	movwf	indf
  2794                           	line	510
  2795                           	
  2796  0D8F                     l4902:	
  2797                           ;slavenode.c: 510: eeprom_write((l_uc_Compteur *3)+0x0014,CmdBuf[l_uc_Compteur+1]);
  2798  0D8F  085F               	movf	(vd_Traitement_I2C@l_uc_Compteur),w
  2799  0D90  3EBB               	addlw	_CmdBuf+01h&0ffh
  2800  0D91  0084               	movwf	fsr0
  2801  0D92  1783               	bsf	status, 7	;select IRP bank3
  2802  0D93  0800               	movf	indf,w
  2803  0D94  00D4               	movwf	(eeprom_write@value)
  2804  0D95  085F               	movf	(vd_Traitement_I2C@l_uc_Compteur),w
  2805  0D96  075F               	addwf	(vd_Traitement_I2C@l_uc_Compteur),w
  2806  0D97  075F               	addwf	(vd_Traitement_I2C@l_uc_Compteur),w
  2807  0D98  3E14               	addlw	014h
  2808  0D99  160A  118A  2092   	fcall	_eeprom_write
              120A  158A         
  2809                           	line	504
  2810                           	
  2811  0D9E                     l4904:	
  2812  0D9E  1283               	bcf	status, 5	;RP0=0, select bank0
  2813  0D9F  1303               	bcf	status, 6	;RP1=0, select bank0
  2814  0DA0  0ADF               	incf	(vd_Traitement_I2C@l_uc_Compteur),f
  2815                           	
  2816  0DA1                     l4906:	
  2817  0DA1  3004               	movlw	(04h)
  2818  0DA2  025F               	subwf	(vd_Traitement_I2C@l_uc_Compteur),w
  2819  0DA3  1C03               	skipc
  2820  0DA4  2DA6               	goto	u5631
  2821  0DA5  2DA7               	goto	u5630
  2822  0DA6                     u5631:
  2823  0DA6  2D5C               	goto	l4898
  2824  0DA7                     u5630:
  2825  0DA7  2D55               	goto	l4890
  2826                           	line	518
  2827                           	
  2828  0DA8                     l4910:	
  2829                           ;slavenode.c: 518: for (l_uc_Compteur = 0; l_uc_Compteur < RM_NB; l_uc_Compteur++)
  2830  0DA8  1283               	bcf	status, 5	;RP0=0, select bank0
  2831  0DA9  1303               	bcf	status, 6	;RP1=0, select bank0
  2832  0DAA  01DF               	clrf	(vd_Traitement_I2C@l_uc_Compteur)
  2833                           	line	520
  2834                           	
  2835  0DAB                     l4916:	
  2836                           ;slavenode.c: 519: {
  2837                           ;slavenode.c: 520: if (uc_TempsCdeLampe[l_uc_Compteur] != CmdBuf[l_uc_Compteur+1])
  2838  0DAB  085F               	movf	(vd_Traitement_I2C@l_uc_Compteur),w
  2839  0DAC  3EBB               	addlw	_CmdBuf+01h&0ffh
  2840  0DAD  0084               	movwf	fsr
  2841  0DAE  1783               	bsf	status, 7	;select IRP bank3
  2842  0DAF  0800               	movf	indf,w
  2843  0DB0  00DA               	movwf	(??_vd_Traitement_I2C+0)+0
  2844  0DB1  085F               	movf	(vd_Traitement_I2C@l_uc_Compteur),w
  2845  0DB2  3EB0               	addlw	_uc_TempsCdeLampe&0ffh
  2846  0DB3  0084               	movwf	fsr0
  2847  0DB4  1383               	bcf	status, 7	;select IRP bank1
  2848  0DB5  0800               	movf	indf,w
  2849  0DB6  065A               	xorwf	(??_vd_Traitement_I2C+0)+0,w
  2850  0DB7  1903               	skipnz
  2851  0DB8  2DBA               	goto	u5641
  2852  0DB9  2DBB               	goto	u5640
  2853  0DBA                     u5641:
  2854  0DBA  2DD3               	goto	l4922
  2855  0DBB                     u5640:
  2856                           	line	522
  2857                           	
  2858  0DBB                     l4918:	
  2859                           ;slavenode.c: 521: {
  2860                           ;slavenode.c: 522: uc_TempsCdeLampe[l_uc_Compteur] = CmdBuf[l_uc_Compteur+1];
  2861  0DBB  085F               	movf	(vd_Traitement_I2C@l_uc_Compteur),w
  2862  0DBC  3EBB               	addlw	_CmdBuf+01h&0ffh
  2863  0DBD  0084               	movwf	fsr0
  2864  0DBE  1783               	bsf	status, 7	;select IRP bank3
  2865  0DBF  0800               	movf	indf,w
  2866  0DC0  00DA               	movwf	(??_vd_Traitement_I2C+0)+0
  2867  0DC1  085F               	movf	(vd_Traitement_I2C@l_uc_Compteur),w
  2868  0DC2  3EB0               	addlw	_uc_TempsCdeLampe&0ffh
  2869  0DC3  0084               	movwf	fsr0
  2870  0DC4  085A               	movf	(??_vd_Traitement_I2C+0)+0,w
  2871  0DC5  1383               	bcf	status, 7	;select IRP bank1
  2872  0DC6  0080               	movwf	indf
  2873                           	line	524
  2874                           	
  2875  0DC7                     l4920:	
  2876                           ;slavenode.c: 524: eeprom_write(l_uc_Compteur+0x0032, uc_TempsCdeLampe[l_uc_Compteur]);
  2877  0DC7  085F               	movf	(vd_Traitement_I2C@l_uc_Compteur),w
  2878  0DC8  3EB0               	addlw	_uc_TempsCdeLampe&0ffh
  2879  0DC9  0084               	movwf	fsr0
  2880  0DCA  0800               	movf	indf,w
  2881  0DCB  00D4               	movwf	(eeprom_write@value)
  2882  0DCC  085F               	movf	(vd_Traitement_I2C@l_uc_Compteur),w
  2883  0DCD  3E32               	addlw	032h
  2884  0DCE  160A  118A  2092   	fcall	_eeprom_write
              120A  158A         
  2885                           	line	518
  2886                           	
  2887  0DD3                     l4922:	
  2888  0DD3  1283               	bcf	status, 5	;RP0=0, select bank0
  2889  0DD4  1303               	bcf	status, 6	;RP1=0, select bank0
  2890  0DD5  0ADF               	incf	(vd_Traitement_I2C@l_uc_Compteur),f
  2891                           	
  2892  0DD6                     l4924:	
  2893  0DD6  300D               	movlw	(0Dh)
  2894  0DD7  025F               	subwf	(vd_Traitement_I2C@l_uc_Compteur),w
  2895  0DD8  1C03               	skipc
  2896  0DD9  2DDB               	goto	u5651
  2897  0DDA  2DDC               	goto	u5650
  2898  0DDB                     u5651:
  2899  0DDB  2DAB               	goto	l4916
  2900  0DDC                     u5650:
  2901  0DDC  2D55               	goto	l4890
  2902                           	line	532
  2903                           	
  2904  0DDD                     l4928:	
  2905                           ;slavenode.c: 532: for (l_uc_Compteur = 0; l_uc_Compteur < RB_NB/2; l_uc_Compteur++)
  2906  0DDD  1283               	bcf	status, 5	;RP0=0, select bank0
  2907  0DDE  1303               	bcf	status, 6	;RP1=0, select bank0
  2908  0DDF  01DF               	clrf	(vd_Traitement_I2C@l_uc_Compteur)
  2909                           	line	534
  2910                           	
  2911  0DE0                     l4934:	
  2912                           ;slavenode.c: 533: {
  2913                           ;slavenode.c: 534: if (uc_TempsCdeVolet[l_uc_Compteur] != CmdBuf[l_uc_Compteur+1])
  2914  0DE0  085F               	movf	(vd_Traitement_I2C@l_uc_Compteur),w
  2915  0DE1  3EBB               	addlw	_CmdBuf+01h&0ffh
  2916  0DE2  0084               	movwf	fsr
  2917  0DE3  1783               	bsf	status, 7	;select IRP bank3
  2918  0DE4  0800               	movf	indf,w
  2919  0DE5  00DA               	movwf	(??_vd_Traitement_I2C+0)+0
  2920  0DE6  085F               	movf	(vd_Traitement_I2C@l_uc_Compteur),w
  2921  0DE7  3E20               	addlw	_uc_TempsCdeVolet&0ffh
  2922  0DE8  0084               	movwf	fsr0
  2923  0DE9  1383               	bcf	status, 7	;select IRP bank0
  2924  0DEA  0800               	movf	indf,w
  2925  0DEB  065A               	xorwf	(??_vd_Traitement_I2C+0)+0,w
  2926  0DEC  1903               	skipnz
  2927  0DED  2DEF               	goto	u5661
  2928  0DEE  2DF0               	goto	u5660
  2929  0DEF                     u5661:
  2930  0DEF  2E08               	goto	l4940
  2931  0DF0                     u5660:
  2932                           	line	536
  2933                           	
  2934  0DF0                     l4936:	
  2935                           ;slavenode.c: 535: {
  2936                           ;slavenode.c: 536: uc_TempsCdeVolet[l_uc_Compteur] = CmdBuf[l_uc_Compteur+1];
  2937  0DF0  085F               	movf	(vd_Traitement_I2C@l_uc_Compteur),w
  2938  0DF1  3EBB               	addlw	_CmdBuf+01h&0ffh
  2939  0DF2  0084               	movwf	fsr0
  2940  0DF3  1783               	bsf	status, 7	;select IRP bank3
  2941  0DF4  0800               	movf	indf,w
  2942  0DF5  00DA               	movwf	(??_vd_Traitement_I2C+0)+0
  2943  0DF6  085F               	movf	(vd_Traitement_I2C@l_uc_Compteur),w
  2944  0DF7  3E20               	addlw	_uc_TempsCdeVolet&0ffh
  2945  0DF8  0084               	movwf	fsr0
  2946  0DF9  085A               	movf	(??_vd_Traitement_I2C+0)+0,w
  2947  0DFA  1383               	bcf	status, 7	;select IRP bank0
  2948  0DFB  0080               	movwf	indf
  2949                           	line	538
  2950                           	
  2951  0DFC                     l4938:	
  2952                           ;slavenode.c: 538: eeprom_write(l_uc_Compteur+0x002A, uc_TempsCdeVolet[l_uc_Compteur]);
  2953  0DFC  085F               	movf	(vd_Traitement_I2C@l_uc_Compteur),w
  2954  0DFD  3E20               	addlw	_uc_TempsCdeVolet&0ffh
  2955  0DFE  0084               	movwf	fsr0
  2956  0DFF  0800               	movf	indf,w
  2957  0E00  00D4               	movwf	(eeprom_write@value)
  2958  0E01  085F               	movf	(vd_Traitement_I2C@l_uc_Compteur),w
  2959  0E02  3E2A               	addlw	02Ah
  2960  0E03  160A  118A  2092   	fcall	_eeprom_write
              120A  158A         
  2961                           	line	532
  2962                           	
  2963  0E08                     l4940:	
  2964  0E08  1283               	bcf	status, 5	;RP0=0, select bank0
  2965  0E09  1303               	bcf	status, 6	;RP1=0, select bank0
  2966  0E0A  0ADF               	incf	(vd_Traitement_I2C@l_uc_Compteur),f
  2967                           	
  2968  0E0B                     l4942:	
  2969  0E0B  3006               	movlw	(06h)
  2970  0E0C  025F               	subwf	(vd_Traitement_I2C@l_uc_Compteur),w
  2971  0E0D  1C03               	skipc
  2972  0E0E  2E10               	goto	u5671
  2973  0E0F  2E11               	goto	u5670
  2974  0E10                     u5671:
  2975  0E10  2DE0               	goto	l4934
  2976  0E11                     u5670:
  2977  0E11  2D55               	goto	l4890
  2978                           	line	544
  2979                           ;slavenode.c: 544: case C_ACTIONS :
  2980                           	
  2981  0E12                     l1021:	
  2982                           	line	546
  2983                           ;slavenode.c: 546: if (st_Commandes.ub1.Sauvegarde ==0)
  2984  0E12  1283               	bcf	status, 5	;RP0=0, select bank0
  2985  0E13  1303               	bcf	status, 6	;RP1=0, select bank0
  2986  0E14  183A               	btfsc	(_st_Commandes),0
  2987  0E15  2E17               	goto	u5681
  2988  0E16  2E18               	goto	u5680
  2989  0E17                     u5681:
  2990  0E17  2E28               	goto	l4952
  2991  0E18                     u5680:
  2992                           	line	548
  2993                           	
  2994  0E18                     l4946:	
  2995                           ;slavenode.c: 547: {
  2996                           ;slavenode.c: 548: st_Commandes.o = CmdBuf[1];
  2997  0E18  1683               	bsf	status, 5	;RP0=1, select bank3
  2998  0E19  1703               	bsf	status, 6	;RP1=1, select bank3
  2999  0E1A  083B               	movf	0+(_CmdBuf)^0180h+01h,w
  3000  0E1B  1283               	bcf	status, 5	;RP0=0, select bank0
  3001  0E1C  1303               	bcf	status, 6	;RP1=0, select bank0
  3002  0E1D  00BA               	movwf	(_st_Commandes)
  3003                           	line	549
  3004                           	
  3005  0E1E                     l4948:	
  3006                           ;slavenode.c: 549: if (st_Commandes.ub1.Sauvegarde ==1)
  3007  0E1E  1C3A               	btfss	(_st_Commandes),0
  3008  0E1F  2E21               	goto	u5691
  3009  0E20  2E22               	goto	u5690
  3010  0E21                     u5691:
  3011  0E21  2D55               	goto	l4890
  3012  0E22                     u5690:
  3013                           	line	551
  3014                           	
  3015  0E22                     l4950:	
  3016                           ;slavenode.c: 550: {
  3017                           ;slavenode.c: 551: vd_Sauve_Etat ();
  3018  0E22  160A  118A  24AA   	fcall	_vd_Sauve_Etat
              120A  158A         
  3019  0E27  2D55               	goto	l4890
  3020                           	line	556
  3021                           	
  3022  0E28                     l4952:	
  3023                           ;slavenode.c: 554: else
  3024                           ;slavenode.c: 555: {
  3025                           ;slavenode.c: 556: st_Commandes.o = CmdBuf[1];
  3026  0E28  1683               	bsf	status, 5	;RP0=1, select bank3
  3027  0E29  1703               	bsf	status, 6	;RP1=1, select bank3
  3028  0E2A  083B               	movf	0+(_CmdBuf)^0180h+01h,w
  3029  0E2B  1283               	bcf	status, 5	;RP0=0, select bank0
  3030  0E2C  1303               	bcf	status, 6	;RP1=0, select bank0
  3031  0E2D  00BA               	movwf	(_st_Commandes)
  3032  0E2E  2D55               	goto	l4890
  3033                           	line	441
  3034                           	
  3035  0E2F                     l4960:	
  3036  0E2F  083A               	movf	(_CmdBuf)^0180h,w
  3037                           	; Switch size 1, requested type "space"
  3038                           ; Number of cases is 5, Range of values is 1 to 5
  3039                           ; switch strategies available:
  3040                           ; Name         Instructions Cycles
  3041                           ; simple_byte           16     9 (average)
  3042                           ; direct_byte           26    11 (fixed)
  3043                           ; jumptable            263     9 (fixed)
  3044                           ;	Chosen strategy is simple_byte
  3045                           
  3046                           	opt asmopt_off
  3047  0E30  3A01               	xorlw	1^0	; case 1
  3048  0E31  1903               	skipnz
  3049  0E32  2CC0               	goto	l4844
  3050  0E33  3A03               	xorlw	2^1	; case 2
  3051  0E34  1903               	skipnz
  3052  0E35  2D59               	goto	l4892
  3053  0E36  3A01               	xorlw	3^2	; case 3
  3054  0E37  1903               	skipnz
  3055  0E38  2DA8               	goto	l4910
  3056  0E39  3A07               	xorlw	4^3	; case 4
  3057  0E3A  1903               	skipnz
  3058  0E3B  2DDD               	goto	l4928
  3059  0E3C  3A01               	xorlw	5^4	; case 5
  3060  0E3D  1903               	skipnz
  3061  0E3E  2E12               	goto	l1021
  3062  0E3F  2D55               	goto	l4890
  3063                           	opt asmopt_on
  3064                           
  3065                           	line	569
  3066                           	
  3067  0E40                     l4962:	
  3068                           ;slavenode.c: 566: }
  3069                           ;slavenode.c: 569: if (b1_BT_1S == 1)
  3070  0E40  1283               	bcf	status, 5	;RP0=0, select bank0
  3071  0E41  1303               	bcf	status, 6	;RP1=0, select bank0
  3072  0E42  0331               	decf	(_b1_BT_1S),w
  3073  0E43  1D03               	skipz
  3074  0E44  2E46               	goto	u5701
  3075  0E45  2E47               	goto	u5700
  3076  0E46                     u5701:
  3077  0E46  2E4F               	goto	l1029
  3078  0E47                     u5700:
  3079                           	line	571
  3080                           	
  3081  0E47                     l4964:	
  3082                           ;slavenode.c: 570: {
  3083                           ;slavenode.c: 571: if (uc_I2C_activity >0)
  3084  0E47  0843               	movf	(_uc_I2C_activity),w
  3085  0E48  1D03               	skipz
  3086  0E49  2E4B               	goto	u5710
  3087  0E4A  2E4E               	goto	l1027
  3088  0E4B                     u5710:
  3089                           	line	573
  3090                           	
  3091  0E4B                     l4966:	
  3092                           ;slavenode.c: 572: {
  3093                           ;slavenode.c: 573: TxBuf.comm_stat.noactivity = 0;
  3094  0E4B  124D               	bcf	0+(_TxBuf)+01h,4
  3095                           	line	574
  3096                           	
  3097  0E4C                     l4968:	
  3098                           ;slavenode.c: 574: uc_I2C_activity --;
  3099  0E4C  03C3               	decf	(_uc_I2C_activity),f
  3100                           	line	575
  3101                           ;slavenode.c: 575: }
  3102  0E4D  2E4F               	goto	l1029
  3103                           	line	576
  3104                           	
  3105  0E4E                     l1027:	
  3106                           	line	578
  3107                           ;slavenode.c: 576: else
  3108                           ;slavenode.c: 577: {
  3109                           ;slavenode.c: 578: TxBuf.comm_stat.noactivity = 1;
  3110  0E4E  164D               	bsf	0+(_TxBuf)+01h,4
  3111                           	line	640
  3112                           	
  3113  0E4F                     l1029:	
  3114  0E4F  0008               	return
  3115                           	opt stack 0
  3116                           GLOBAL	__end_of_vd_Traitement_I2C
  3117  0E50                     	__end_of_vd_Traitement_I2C:
  3118                           	signat	_vd_Traitement_I2C,88
  3119                           	global	_vd_Sauve_Etat
  3120                           
  3121 ;; *************** function _vd_Sauve_Etat *****************
  3122 ;; Defined at:
  3123 ;;		line 180 in file "../source/main.c"
  3124 ;; Parameters:    Size  Location     Type
  3125 ;;		None
  3126 ;; Auto vars:     Size  Location     Type
  3127 ;;  address         2    8[BANK0 ] unsigned int 
  3128 ;;  l_uc_Compteu    1    7[BANK0 ] unsigned char 
  3129 ;;  data            1    6[BANK0 ] unsigned char 
  3130 ;; Return value:  Size  Location     Type
  3131 ;;		None               void
  3132 ;; Registers used:
  3133 ;;		wreg, fsr0l, fsr0h, status,2, status,0, pclath, cstack
  3134 ;; Tracked objects:
  3135 ;;		On entry : 60/0
  3136 ;;		On exit  : 60/60
  3137 ;;		Unchanged: 0/0
  3138 ;; Data sizes:     COMMON   BANK0   BANK3   BANK1   BANK2
  3139 ;;      Params:         0       0       0       0       0
  3140 ;;      Locals:         0       4       0       0       0
  3141 ;;      Temps:          0       0       0       0       0
  3142 ;;      Totals:         0       4       0       0       0
  3143 ;;Total ram usage:        4 bytes
  3144 ;; Hardware stack levels used:    1
  3145 ;; Hardware stack levels required when called:    5
  3146 ;; This function calls:
  3147 ;;		_eeprom_read
  3148 ;;		_eeprom_write
  3149 ;; This function is called by:
  3150 ;;		_vd_Traitement_I2C
  3151 ;; This function uses a non-reentrant model
  3152 ;;
  3153                           psect	text3,local,class=CODE,delta=2,merge=1
  3154                           	file	"../source/main.c"
  3155                           	line	180
  3156                           global __ptext3
  3157  14AA                     __ptext3:	;psect for function _vd_Sauve_Etat
  3158                           psect	text3
  3159                           	file	"../source/main.c"
  3160                           	line	180
  3161                           	global	__size_of_vd_Sauve_Etat
  3162  006D                     	__size_of_vd_Sauve_Etat	equ	__end_of_vd_Sauve_Etat-_vd_Sauve_Etat
  3163                           	
  3164  14AA                     _vd_Sauve_Etat:	
  3165                           ;incstack = 0
  3166                           	opt	stack 1
  3167                           ; Regs used in _vd_Sauve_Etat: [wreg-fsr0h+status,2+status,0+pclath+cstack]
  3168                           	line	184
  3169                           	
  3170  14AA                     l4480:	
  3171                           ;main.c: 182: unsigned char l_uc_Compteur;
  3172                           ;main.c: 183: unsigned char data;
  3173                           ;main.c: 184: unsigned int address = 0x0010;
  3174  14AA  3010               	movlw	010h
  3175  14AB  00D8               	movwf	(vd_Sauve_Etat@address)
  3176  14AC  01D9               	clrf	(vd_Sauve_Etat@address+1)
  3177                           	line	188
  3178                           ;main.c: 188: data = us_SortiesRelais & 0x00FF;
  3179  14AD  082C               	movf	(_us_SortiesRelais),w
  3180  14AE  00D6               	movwf	(vd_Sauve_Etat@data)
  3181                           	line	189
  3182                           	
  3183  14AF                     l4482:	
  3184                           ;main.c: 189: eeprom_write(address++, data);
  3185  14AF  0856               	movf	(vd_Sauve_Etat@data),w
  3186  14B0  00D4               	movwf	(eeprom_write@value)
  3187  14B1  3010               	movlw	(010h)
  3188  14B2  160A  118A  2092   	fcall	_eeprom_write
              160A  118A         
  3189                           	
  3190  14B7                     l4484:	
  3191  14B7  1283               	bcf	status, 5	;RP0=0, select bank0
  3192  14B8  1303               	bcf	status, 6	;RP1=0, select bank0
  3193  14B9  0AD8               	incf	(vd_Sauve_Etat@address),f
  3194  14BA  1903               	skipnz
  3195  14BB  0AD9               	incf	(vd_Sauve_Etat@address+1),f
  3196                           	line	190
  3197                           	
  3198  14BC                     l4486:	
  3199                           ;main.c: 190: data = us_SortiesRelais >> 8;
  3200  14BC  082D               	movf	(_us_SortiesRelais+1),w
  3201  14BD  00D6               	movwf	(vd_Sauve_Etat@data)
  3202                           	line	191
  3203                           	
  3204  14BE                     l4488:	
  3205                           ;main.c: 191: eeprom_write(address++, data);
  3206  14BE  0856               	movf	(vd_Sauve_Etat@data),w
  3207  14BF  00D4               	movwf	(eeprom_write@value)
  3208  14C0  0858               	movf	(vd_Sauve_Etat@address),w
  3209  14C1  160A  118A  2092   	fcall	_eeprom_write
              160A  118A         
  3210  14C6  1283               	bcf	status, 5	;RP0=0, select bank0
  3211  14C7  1303               	bcf	status, 6	;RP1=0, select bank0
  3212  14C8  0AD8               	incf	(vd_Sauve_Etat@address),f
  3213  14C9  1903               	skipnz
  3214  14CA  0AD9               	incf	(vd_Sauve_Etat@address+1),f
  3215                           	line	199
  3216                           	
  3217  14CB                     l4490:	
  3218                           ;main.c: 199: for(l_uc_Compteur=0;l_uc_Compteur<uc_VARIATEUR_NB;l_uc_Compteur++)
  3219  14CB  01D7               	clrf	(vd_Sauve_Etat@l_uc_Compteur)
  3220  14CC  2CF7               	goto	l4498
  3221                           	line	201
  3222                           	
  3223  14CD                     l4492:	
  3224                           ;main.c: 200: {
  3225                           ;main.c: 201: eeprom_write(address++, st_Variateurs[l_uc_Compteur].c_Eclairage);
  3226  14CD  0857               	movf	(vd_Sauve_Etat@l_uc_Compteur),w
  3227  14CE  0757               	addwf	(vd_Sauve_Etat@l_uc_Compteur),w
  3228  14CF  0757               	addwf	(vd_Sauve_Etat@l_uc_Compteur),w
  3229  14D0  3ED5               	addlw	_st_Variateurs&0ffh
  3230  14D1  0084               	movwf	fsr0
  3231  14D2  1383               	bcf	status, 7	;select IRP bank1
  3232  14D3  0800               	movf	indf,w
  3233  14D4  00D4               	movwf	(eeprom_write@value)
  3234  14D5  0858               	movf	(vd_Sauve_Etat@address),w
  3235  14D6  160A  118A  2092   	fcall	_eeprom_write
              160A  118A         
  3236                           	
  3237  14DB                     l4494:	
  3238  14DB  1283               	bcf	status, 5	;RP0=0, select bank0
  3239  14DC  1303               	bcf	status, 6	;RP1=0, select bank0
  3240  14DD  0AD8               	incf	(vd_Sauve_Etat@address),f
  3241  14DE  1903               	skipnz
  3242  14DF  0AD9               	incf	(vd_Sauve_Etat@address+1),f
  3243                           	line	202
  3244                           	
  3245  14E0                     l4496:	
  3246                           ;main.c: 202: eeprom_write(address++, st_Variateurs[l_uc_Compteur].c_EclairageOld);
  3247  14E0  0857               	movf	(vd_Sauve_Etat@l_uc_Compteur),w
  3248  14E1  0757               	addwf	(vd_Sauve_Etat@l_uc_Compteur),w
  3249  14E2  0757               	addwf	(vd_Sauve_Etat@l_uc_Compteur),w
  3250  14E3  3ED6               	addlw	_st_Variateurs+01h&0ffh
  3251  14E4  0084               	movwf	fsr0
  3252  14E5  1383               	bcf	status, 7	;select IRP bank1
  3253  14E6  0800               	movf	indf,w
  3254  14E7  00D4               	movwf	(eeprom_write@value)
  3255  14E8  0858               	movf	(vd_Sauve_Etat@address),w
  3256  14E9  160A  118A  2092   	fcall	_eeprom_write
              160A  118A         
  3257  14EE  1283               	bcf	status, 5	;RP0=0, select bank0
  3258  14EF  1303               	bcf	status, 6	;RP1=0, select bank0
  3259  14F0  0AD8               	incf	(vd_Sauve_Etat@address),f
  3260  14F1  1903               	skipnz
  3261  14F2  0AD9               	incf	(vd_Sauve_Etat@address+1),f
  3262                           	line	203
  3263                           ;main.c: 203: address++;
  3264  14F3  0AD8               	incf	(vd_Sauve_Etat@address),f
  3265  14F4  1903               	skipnz
  3266  14F5  0AD9               	incf	(vd_Sauve_Etat@address+1),f
  3267                           	line	199
  3268  14F6  0AD7               	incf	(vd_Sauve_Etat@l_uc_Compteur),f
  3269                           	
  3270  14F7                     l4498:	
  3271  14F7  0847               	movf	(_uc_VARIATEUR_NB),w
  3272  14F8  0257               	subwf	(vd_Sauve_Etat@l_uc_Compteur),w
  3273  14F9  1C03               	skipc
  3274  14FA  2CFC               	goto	u4791
  3275  14FB  2CFD               	goto	u4790
  3276  14FC                     u4791:
  3277  14FC  2CCD               	goto	l4492
  3278  14FD                     u4790:
  3279                           	line	207
  3280                           	
  3281  14FD                     l4500:	
  3282                           	line	208
  3283                           	
  3284  14FD                     l4502:	
  3285                           ;main.c: 208: uc_compteur_ecriture_eeprom = eeprom_read(address)+1;
  3286  14FD  3042               	movlw	(042h)
  3287  14FE  160A  118A  203A   	fcall	_eeprom_read
              160A  118A         
  3288  1503  3E01               	addlw	01h
  3289  1504  1303               	bcf	status, 6	;RP1=0, select bank0
  3290  1505  00C9               	movwf	(_uc_compteur_ecriture_eeprom)
  3291                           	line	209
  3292                           	
  3293  1506                     l4504:	
  3294                           ;main.c: 209: if (uc_compteur_ecriture_eeprom >= 255)
  3295  1506  0849               	movf	(_uc_compteur_ecriture_eeprom),w
  3296  1507  3AFF               	xorlw	0FFh
  3297  1508  1D03               	skipz
  3298  1509  2D0B               	goto	u4801
  3299  150A  2D0C               	goto	u4800
  3300  150B                     u4801:
  3301  150B  2D0E               	goto	l4508
  3302  150C                     u4800:
  3303                           	line	210
  3304                           	
  3305  150C                     l4506:	
  3306                           ;main.c: 210: uc_compteur_ecriture_eeprom = 1;
  3307  150C  01C9               	clrf	(_uc_compteur_ecriture_eeprom)
  3308  150D  0AC9               	incf	(_uc_compteur_ecriture_eeprom),f
  3309                           	line	211
  3310                           	
  3311  150E                     l4508:	
  3312                           ;main.c: 211: eeprom_write(address, uc_compteur_ecriture_eeprom);
  3313  150E  0849               	movf	(_uc_compteur_ecriture_eeprom),w
  3314  150F  00D4               	movwf	(eeprom_write@value)
  3315  1510  3042               	movlw	(042h)
  3316  1511  160A  118A  2092   	fcall	_eeprom_write
              160A  118A         
  3317                           	line	213
  3318                           	
  3319  1516                     l648:	
  3320  1516  0008               	return
  3321                           	opt stack 0
  3322                           GLOBAL	__end_of_vd_Sauve_Etat
  3323  1517                     	__end_of_vd_Sauve_Etat:
  3324                           	signat	_vd_Sauve_Etat,88
  3325                           	global	_vd_TraitementApplicatif
  3326                           
  3327 ;; *************** function _vd_TraitementApplicatif *****************
  3328 ;; Defined at:
  3329 ;;		line 246 in file "../source/traitement.c"
  3330 ;; Parameters:    Size  Location     Type
  3331 ;;		None
  3332 ;; Auto vars:     Size  Location     Type
  3333 ;;  l_us_Masque     2    0[BANK3 ] unsigned short 
  3334 ;;  l_uc_Compteu    1    4[BANK3 ] unsigned char 
  3335 ;;  l_uc_RelaisS    1    3[BANK3 ] unsigned char 
  3336 ;;  l_uc_RelaisS    1    2[BANK3 ] unsigned char 
  3337 ;; Return value:  Size  Location     Type
  3338 ;;		None               void
  3339 ;; Registers used:
  3340 ;;		wreg, fsr0l, fsr0h, status,2, status,0, pclath, cstack
  3341 ;; Tracked objects:
  3342 ;;		On entry : 60/0
  3343 ;;		On exit  : 60/60
  3344 ;;		Unchanged: 0/0
  3345 ;; Data sizes:     COMMON   BANK0   BANK3   BANK1   BANK2
  3346 ;;      Params:         0       0       0       0       0
  3347 ;;      Locals:         0       0       5       0       0
  3348 ;;      Temps:          0       2       0       0       0
  3349 ;;      Totals:         0       2       5       0       0
  3350 ;;Total ram usage:        7 bytes
  3351 ;; Hardware stack levels used:    1
  3352 ;; Hardware stack levels required when called:    6
  3353 ;; This function calls:
  3354 ;;		_uc_EteintLampe
  3355 ;;		_uc_StopVolet
  3356 ;;		_us_CodeVariateur
  3357 ;; This function is called by:
  3358 ;;		_main
  3359 ;; This function uses a non-reentrant model
  3360 ;;
  3361                           psect	text4,local,class=CODE,delta=2,merge=1
  3362                           	file	"../source/traitement.c"
  3363                           	line	246
  3364                           global __ptext4
  3365  0041                     __ptext4:	;psect for function _vd_TraitementApplicatif
  3366                           psect	text4
  3367                           	file	"../source/traitement.c"
  3368                           	line	246
  3369                           	global	__size_of_vd_TraitementApplicatif
  3370  056D                     	__size_of_vd_TraitementApplicatif	equ	__end_of_vd_TraitementApplicatif-_vd_TraitementAp
                                 plicatif
  3371                           	
  3372  0041                     _vd_TraitementApplicatif:	
  3373                           ;incstack = 0
  3374                           	opt	stack 1
  3375                           ; Regs used in _vd_TraitementApplicatif: [wreg-fsr0h+status,2+status,0+pclath+cstack]
  3376                           	line	254
  3377                           	
  3378  0041                     l5416:	
  3379                           ;traitement.c: 248: unsigned char l_uc_Compteur;
  3380                           ;traitement.c: 249: unsigned short l_us_Masque;
  3381                           ;traitement.c: 250: unsigned char l_uc_RelaisSens1;
  3382                           ;traitement.c: 251: unsigned char l_uc_RelaisSens2;
  3383                           ;traitement.c: 254: for(l_uc_Compteur=0;l_uc_Compteur<uc_RM_NB;l_uc_Compteur++)
  3384  0041  1683               	bsf	status, 5	;RP0=1, select bank3
  3385  0042  1703               	bsf	status, 6	;RP1=1, select bank3
  3386  0043  01ED               	clrf	(vd_TraitementApplicatif@l_uc_Compteur)^0180h
  3387  0044  28A5               	goto	l5432
  3388                           	line	256
  3389                           	
  3390  0045                     l5418:	
  3391                           ;traitement.c: 255: {
  3392                           ;traitement.c: 256: l_us_Masque = 0x01 << l_uc_Compteur;
  3393  0045  01E9               	clrf	(vd_TraitementApplicatif@l_us_Masque)^0180h
  3394  0046  0AE9               	incf	(vd_TraitementApplicatif@l_us_Masque)^0180h,f
  3395  0047  01EA               	clrf	(vd_TraitementApplicatif@l_us_Masque+1)^0180h
  3396                           	
  3397  0048                     l5420:	
  3398  0048  0A6D               	incf	(vd_TraitementApplicatif@l_uc_Compteur)^0180h,w
  3399  0049  284D               	goto	u6400
  3400  004A                     u6405:
  3401  004A  1003               	clrc
  3402  004B  0DE9               	rlf	(vd_TraitementApplicatif@l_us_Masque)^0180h,f
  3403  004C  0DEA               	rlf	(vd_TraitementApplicatif@l_us_Masque+1)^0180h,f
  3404  004D                     u6400:
  3405  004D  3EFF               	addlw	-1
  3406  004E  1D03               	skipz
  3407  004F  284A               	goto	u6405
  3408                           	line	269
  3409                           ;traitement.c: 269: if ((us_EntreesTOR & l_us_Masque) !=0)
  3410  0050  0869               	movf	(vd_TraitementApplicatif@l_us_Masque)^0180h,w
  3411  0051  1283               	bcf	status, 5	;RP0=0, select bank0
  3412  0052  1303               	bcf	status, 6	;RP1=0, select bank0
  3413  0053  052A               	andwf	(_us_EntreesTOR),w
  3414  0054  00E9               	movwf	(??_vd_TraitementApplicatif+0)+0
  3415  0055  1683               	bsf	status, 5	;RP0=1, select bank3
  3416  0056  1703               	bsf	status, 6	;RP1=1, select bank3
  3417  0057  086A               	movf	(vd_TraitementApplicatif@l_us_Masque+1)^0180h,w
  3418  0058  1283               	bcf	status, 5	;RP0=0, select bank0
  3419  0059  1303               	bcf	status, 6	;RP1=0, select bank0
  3420  005A  052B               	andwf	(_us_EntreesTOR+1),w
  3421  005B  00EA               	movwf	1+(??_vd_TraitementApplicatif+0)+0
  3422  005C  086A               	movf	1+(??_vd_TraitementApplicatif+0)+0,w
  3423  005D  0469               	iorwf	0+(??_vd_TraitementApplicatif+0)+0,w
  3424  005E  1903               	skipnz
  3425  005F  2861               	goto	u6411
  3426  0060  2862               	goto	u6410
  3427  0061                     u6411:
  3428  0061  286E               	goto	l5424
  3429  0062                     u6410:
  3430                           	line	272
  3431                           	
  3432  0062                     l5422:	
  3433                           ;traitement.c: 270: {
  3434                           ;traitement.c: 272: us_SortiesRelais ^= l_us_Masque;
  3435  0062  1683               	bsf	status, 5	;RP0=1, select bank3
  3436  0063  1703               	bsf	status, 6	;RP1=1, select bank3
  3437  0064  0869               	movf	(vd_TraitementApplicatif@l_us_Masque)^0180h,w
  3438  0065  1283               	bcf	status, 5	;RP0=0, select bank0
  3439  0066  1303               	bcf	status, 6	;RP1=0, select bank0
  3440  0067  06AC               	xorwf	(_us_SortiesRelais),f
  3441  0068  1683               	bsf	status, 5	;RP0=1, select bank3
  3442  0069  1703               	bsf	status, 6	;RP1=1, select bank3
  3443  006A  086A               	movf	(vd_TraitementApplicatif@l_us_Masque+1)^0180h,w
  3444  006B  1283               	bcf	status, 5	;RP0=0, select bank0
  3445  006C  1303               	bcf	status, 6	;RP1=0, select bank0
  3446  006D  06AD               	xorwf	(_us_SortiesRelais+1),f
  3447                           	line	280
  3448                           ;traitement.c: 273: }
  3449                           	
  3450  006E                     l5424:	
  3451                           ;traitement.c: 278: }
  3452                           ;traitement.c: 280: if (b1_BT_1S == 1)
  3453  006E  0331               	decf	(_b1_BT_1S),w
  3454  006F  1D03               	skipz
  3455  0070  2872               	goto	u6421
  3456  0071  2873               	goto	u6420
  3457  0072                     u6421:
  3458  0072  28A2               	goto	l5430
  3459  0073                     u6420:
  3460                           	line	282
  3461                           	
  3462  0073                     l5426:	
  3463                           ;traitement.c: 281: {
  3464                           ;traitement.c: 282: if (uc_EteintLampe(l_uc_Compteur, us_SortiesRelais & l_us_Masque) ==
                                  1)
  3465  0073  082D               	movf	(_us_SortiesRelais+1),w
  3466  0074  00E2               	movwf	(uc_EteintLampe@us_Etat_Lampe+1)
  3467  0075  082C               	movf	(_us_SortiesRelais),w
  3468  0076  00E1               	movwf	(uc_EteintLampe@us_Etat_Lampe)
  3469  0077  1683               	bsf	status, 5	;RP0=1, select bank3
  3470  0078  1703               	bsf	status, 6	;RP1=1, select bank3
  3471  0079  0869               	movf	(vd_TraitementApplicatif@l_us_Masque)^0180h,w
  3472  007A  1283               	bcf	status, 5	;RP0=0, select bank0
  3473  007B  1303               	bcf	status, 6	;RP1=0, select bank0
  3474  007C  05E1               	andwf	(uc_EteintLampe@us_Etat_Lampe),f
  3475  007D  1683               	bsf	status, 5	;RP0=1, select bank3
  3476  007E  1703               	bsf	status, 6	;RP1=1, select bank3
  3477  007F  086A               	movf	(vd_TraitementApplicatif@l_us_Masque+1)^0180h,w
  3478  0080  1283               	bcf	status, 5	;RP0=0, select bank0
  3479  0081  1303               	bcf	status, 6	;RP1=0, select bank0
  3480  0082  05E2               	andwf	(uc_EteintLampe@us_Etat_Lampe+1),f
  3481  0083  1683               	bsf	status, 5	;RP0=1, select bank3
  3482  0084  1703               	bsf	status, 6	;RP1=1, select bank3
  3483  0085  086D               	movf	(vd_TraitementApplicatif@l_uc_Compteur)^0180h,w
  3484  0086  160A  118A  26AB   	fcall	_uc_EteintLampe
              120A  118A         
  3485  008B  3A01               	xorlw	01h
  3486  008C  1D03               	skipz
  3487  008D  288F               	goto	u6431
  3488  008E  2890               	goto	u6430
  3489  008F                     u6431:
  3490  008F  28A2               	goto	l5430
  3491  0090                     u6430:
  3492                           	line	284
  3493                           	
  3494  0090                     l5428:	
  3495                           ;traitement.c: 283: {
  3496                           ;traitement.c: 284: us_SortiesRelais &= ~l_us_Masque;
  3497  0090  1683               	bsf	status, 5	;RP0=1, select bank3
  3498  0091  1703               	bsf	status, 6	;RP1=1, select bank3
  3499  0092  086A               	movf	(vd_TraitementApplicatif@l_us_Masque+1)^0180h,w
  3500  0093  1283               	bcf	status, 5	;RP0=0, select bank0
  3501  0094  1303               	bcf	status, 6	;RP1=0, select bank0
  3502  0095  00EA               	movwf	(??_vd_TraitementApplicatif+0)+0+1
  3503  0096  1683               	bsf	status, 5	;RP0=1, select bank3
  3504  0097  1703               	bsf	status, 6	;RP1=1, select bank3
  3505  0098  0869               	movf	(vd_TraitementApplicatif@l_us_Masque)^0180h,w
  3506  0099  1283               	bcf	status, 5	;RP0=0, select bank0
  3507  009A  1303               	bcf	status, 6	;RP1=0, select bank0
  3508  009B  00E9               	movwf	(??_vd_TraitementApplicatif+0)+0
  3509  009C  09E9               	comf	(??_vd_TraitementApplicatif+0)+0,f
  3510  009D  09EA               	comf	(??_vd_TraitementApplicatif+0)+1,f
  3511  009E  0869               	movf	0+(??_vd_TraitementApplicatif+0)+0,w
  3512  009F  05AC               	andwf	(_us_SortiesRelais),f
  3513  00A0  086A               	movf	1+(??_vd_TraitementApplicatif+0)+0,w
  3514  00A1  05AD               	andwf	(_us_SortiesRelais+1),f
  3515                           	line	254
  3516                           	
  3517  00A2                     l5430:	
  3518  00A2  1683               	bsf	status, 5	;RP0=1, select bank3
  3519  00A3  1703               	bsf	status, 6	;RP1=1, select bank3
  3520  00A4  0AED               	incf	(vd_TraitementApplicatif@l_uc_Compteur)^0180h,f
  3521                           	
  3522  00A5                     l5432:	
  3523  00A5  1283               	bcf	status, 5	;RP0=0, select bank0
  3524  00A6  1303               	bcf	status, 6	;RP1=0, select bank0
  3525  00A7  0846               	movf	(_uc_RM_NB),w
  3526  00A8  1683               	bsf	status, 5	;RP0=1, select bank3
  3527  00A9  1703               	bsf	status, 6	;RP1=1, select bank3
  3528  00AA  026D               	subwf	(vd_TraitementApplicatif@l_uc_Compteur)^0180h,w
  3529  00AB  1C03               	skipc
  3530  00AC  28AE               	goto	u6441
  3531  00AD  28AF               	goto	u6440
  3532  00AE                     u6441:
  3533  00AE  2845               	goto	l5418
  3534  00AF                     u6440:
  3535                           	line	328
  3536                           	
  3537  00AF                     l5434:	
  3538                           ;traitement.c: 285: }
  3539                           ;traitement.c: 286: }
  3540                           ;traitement.c: 288: }
  3541                           ;traitement.c: 328: for(l_uc_Compteur=0;l_uc_Compteur<uc_VOLET_NB;l_uc_Compteur++)
  3542  00AF  01ED               	clrf	(vd_TraitementApplicatif@l_uc_Compteur)^0180h
  3543  00B0  2A6A               	goto	l5530
  3544                           	line	330
  3545                           	
  3546  00B1                     l5436:	
  3547                           ;traitement.c: 329: {
  3548                           ;traitement.c: 330: l_uc_RelaisSens1 = l_uc_Compteur *2;
  3549  00B1  1003               	clrc
  3550  00B2  0D6D               	rlf	(vd_TraitementApplicatif@l_uc_Compteur)^0180h,w
  3551  00B3  00EC               	movwf	(vd_TraitementApplicatif@l_uc_RelaisSens1)^0180h
  3552                           	line	331
  3553                           ;traitement.c: 331: l_uc_RelaisSens2 = l_uc_RelaisSens1 +1;
  3554  00B4  086C               	movf	(vd_TraitementApplicatif@l_uc_RelaisSens1)^0180h,w
  3555  00B5  3E01               	addlw	01h
  3556  00B6  00EB               	movwf	(vd_TraitementApplicatif@l_uc_RelaisSens2)^0180h
  3557                           	line	334
  3558                           ;traitement.c: 334: switch (st_EntreesVoletRoulant[l_uc_RelaisSens1].ub3_EtatCommande)
  3559  00B7  28DF               	goto	l5446
  3560                           	line	338
  3561                           	
  3562  00B8                     l783:	
  3563                           	line	340
  3564                           ;traitement.c: 337: case uc_VOLET_APPUI_LONG:
  3565                           ;traitement.c: 338: case uc_VOLET_ON:
  3566                           ;traitement.c: 340: switch (st_EntreesVoletRoulant[l_uc_RelaisSens2].ub3_EtatCommande)
  3567  00B8  28CA               	goto	l5442
  3568                           	line	345
  3569                           	
  3570  00B9                     l5438:	
  3571                           ;traitement.c: 343: case uc_VOLET_APPUI_LONG:
  3572                           ;traitement.c: 344: case uc_VOLET_ON:
  3573                           ;traitement.c: 345: st_EntreesVoletRoulant[l_uc_RelaisSens1].ub3_EtatCommande = uc_VOLET
                                 _OFF;
  3574  00B9  1683               	bsf	status, 5	;RP0=1, select bank3
  3575  00BA  1703               	bsf	status, 6	;RP1=1, select bank3
  3576  00BB  086C               	movf	(vd_TraitementApplicatif@l_uc_RelaisSens1)^0180h,w
  3577  00BC  3EBD               	addlw	_st_EntreesVoletRoulant&0ffh
  3578  00BD  0084               	movwf	fsr0
  3579  00BE  0800               	movf	indf,w
  3580  00BF  391F               	andlw	not (((1<<3)-1)<<5)
  3581  00C0  3820               	iorlw	(01h & ((1<<3)-1))<<5
  3582  00C1  0080               	movwf	indf
  3583                           	line	346
  3584                           ;traitement.c: 346: st_EntreesVoletRoulant[l_uc_RelaisSens2].ub3_EtatCommande = uc_VOLET
                                 _OFF;
  3585  00C2  086B               	movf	(vd_TraitementApplicatif@l_uc_RelaisSens2)^0180h,w
  3586  00C3  3EBD               	addlw	_st_EntreesVoletRoulant&0ffh
  3587  00C4  0084               	movwf	fsr0
  3588  00C5  0800               	movf	indf,w
  3589  00C6  391F               	andlw	not (((1<<3)-1)<<5)
  3590  00C7  3820               	iorlw	(01h & ((1<<3)-1))<<5
  3591  00C8  0080               	movwf	indf
  3592                           	line	347
  3593                           ;traitement.c: 347: break;
  3594  00C9  2994               	goto	l5486
  3595                           	line	340
  3596                           	
  3597  00CA                     l5442:	
  3598  00CA  1683               	bsf	status, 5	;RP0=1, select bank3
  3599  00CB  1703               	bsf	status, 6	;RP1=1, select bank3
  3600  00CC  086B               	movf	(vd_TraitementApplicatif@l_uc_RelaisSens2)^0180h,w
  3601  00CD  3EBD               	addlw	_st_EntreesVoletRoulant&0ffh
  3602  00CE  0084               	movwf	fsr0
  3603  00CF  0E00               	swapf	indf,w
  3604  00D0  1283               	bcf	status, 5	;RP0=0, select bank0
  3605  00D1  1303               	bcf	status, 6	;RP1=0, select bank0
  3606  00D2  00E9               	movwf	(??_vd_TraitementApplicatif+0)+0
  3607  00D3  0C69               	rrf	(??_vd_TraitementApplicatif+0)+0,w
  3608  00D4  3907               	andlw	(1<<3)-1
  3609                           	; Switch size 1, requested type "space"
  3610                           ; Number of cases is 3, Range of values is 2 to 4
  3611                           ; switch strategies available:
  3612                           ; Name         Instructions Cycles
  3613                           ; simple_byte           10     6 (average)
  3614                           ; direct_byte           20    11 (fixed)
  3615                           ; jumptable            263     9 (fixed)
  3616                           ;	Chosen strategy is simple_byte
  3617                           
  3618                           	opt asmopt_off
  3619  00D5  3A02               	xorlw	2^0	; case 2
  3620  00D6  1903               	skipnz
  3621  00D7  28B9               	goto	l5438
  3622  00D8  3A01               	xorlw	3^2	; case 3
  3623  00D9  1903               	skipnz
  3624  00DA  28B9               	goto	l5438
  3625  00DB  3A07               	xorlw	4^3	; case 4
  3626  00DC  1903               	skipnz
  3627  00DD  28B9               	goto	l5438
  3628  00DE  2994               	goto	l5486
  3629                           	opt asmopt_on
  3630                           
  3631                           	line	334
  3632                           	
  3633  00DF                     l5446:	
  3634  00DF  086C               	movf	(vd_TraitementApplicatif@l_uc_RelaisSens1)^0180h,w
  3635  00E0  3EBD               	addlw	_st_EntreesVoletRoulant&0ffh
  3636  00E1  0084               	movwf	fsr0
  3637  00E2  1383               	bcf	status, 7	;select IRP bank1
  3638  00E3  0E00               	swapf	indf,w
  3639  00E4  1283               	bcf	status, 5	;RP0=0, select bank0
  3640  00E5  1303               	bcf	status, 6	;RP1=0, select bank0
  3641  00E6  00E9               	movwf	(??_vd_TraitementApplicatif+0)+0
  3642  00E7  0C69               	rrf	(??_vd_TraitementApplicatif+0)+0,w
  3643  00E8  3907               	andlw	(1<<3)-1
  3644                           	; Switch size 1, requested type "space"
  3645                           ; Number of cases is 3, Range of values is 2 to 4
  3646                           ; switch strategies available:
  3647                           ; Name         Instructions Cycles
  3648                           ; simple_byte           10     6 (average)
  3649                           ; direct_byte           20    11 (fixed)
  3650                           ; jumptable            263     9 (fixed)
  3651                           ;	Chosen strategy is simple_byte
  3652                           
  3653                           	opt asmopt_off
  3654  00E9  3A02               	xorlw	2^0	; case 2
  3655  00EA  1903               	skipnz
  3656  00EB  28B8               	goto	l783
  3657  00EC  3A01               	xorlw	3^2	; case 3
  3658  00ED  1903               	skipnz
  3659  00EE  28CA               	goto	l5442
  3660  00EF  3A07               	xorlw	4^3	; case 4
  3661  00F0  1903               	skipnz
  3662  00F1  28CA               	goto	l5442
  3663  00F2  2994               	goto	l5486
  3664                           	opt asmopt_on
  3665                           
  3666                           	line	360
  3667                           	
  3668  00F3                     l5448:	
  3669                           ;traitement.c: 360: if (st_SortiesRelaisBistables[l_uc_RelaisSens1].ub1_EtatRelaisBistab
                                 leSouhaite == 0)
  3670  00F3  1683               	bsf	status, 5	;RP0=1, select bank3
  3671  00F4  1703               	bsf	status, 6	;RP1=1, select bank3
  3672  00F5  086C               	movf	(vd_TraitementApplicatif@l_uc_RelaisSens1)^0180h,w
  3673  00F6  3EC9               	addlw	_st_SortiesRelaisBistables&0ffh
  3674  00F7  0084               	movwf	fsr0
  3675  00F8  1880               	btfsc	indf,1
  3676  00F9  28FB               	goto	u6451
  3677  00FA  28FC               	goto	u6450
  3678  00FB                     u6451:
  3679  00FB  291F               	goto	l5458
  3680  00FC                     u6450:
  3681                           	line	364
  3682                           	
  3683  00FC                     l5450:	
  3684                           ;traitement.c: 361: {
  3685                           ;traitement.c: 364: if (st_SortiesRelaisBistables[l_uc_RelaisSens2].ub1_EtatRelaisBistab
                                 leSouhaite != 0)
  3686  00FC  086B               	movf	(vd_TraitementApplicatif@l_uc_RelaisSens2)^0180h,w
  3687  00FD  3EC9               	addlw	_st_SortiesRelaisBistables&0ffh
  3688  00FE  0084               	movwf	fsr0
  3689  00FF  1C80               	btfss	indf,1
  3690  0100  2902               	goto	u6461
  3691  0101  2903               	goto	u6460
  3692  0102                     u6461:
  3693  0102  2907               	goto	l5454
  3694  0103                     u6460:
  3695                           	line	366
  3696                           	
  3697  0103                     l5452:	
  3698                           ;traitement.c: 365: {
  3699                           ;traitement.c: 366: st_SortiesRelaisBistables[l_uc_RelaisSens2].ub1_EtatRelaisBistableSo
                                 uhaite = 0;
  3700  0103  086B               	movf	(vd_TraitementApplicatif@l_uc_RelaisSens2)^0180h,w
  3701  0104  3EC9               	addlw	_st_SortiesRelaisBistables&0ffh
  3702  0105  0084               	movwf	fsr0
  3703  0106  1080               	bcf	indf,1
  3704                           	line	369
  3705                           	
  3706  0107                     l5454:	
  3707                           ;traitement.c: 367: }
  3708                           ;traitement.c: 369: if (uc_StopVolet(l_uc_Compteur,INIT)==1)
  3709  0107  1283               	bcf	status, 5	;RP0=0, select bank0
  3710  0108  1303               	bcf	status, 6	;RP1=0, select bank0
  3711  0109  01D4               	clrf	(uc_StopVolet@mode)
  3712  010A  1683               	bsf	status, 5	;RP0=1, select bank3
  3713  010B  1703               	bsf	status, 6	;RP1=1, select bank3
  3714  010C  086D               	movf	(vd_TraitementApplicatif@l_uc_Compteur)^0180h,w
  3715  010D  120A  158A  2011   	fcall	_uc_StopVolet
              120A  118A         
  3716                           	line	371
  3717                           	
  3718  0112                     l5456:	
  3719                           ;traitement.c: 371: st_SortiesRelaisBistables[l_uc_RelaisSens1].ub1_EtatRelaisBistableSo
                                 uhaite = 1;
  3720  0112  1683               	bsf	status, 5	;RP0=1, select bank3
  3721  0113  1703               	bsf	status, 6	;RP1=1, select bank3
  3722  0114  086C               	movf	(vd_TraitementApplicatif@l_uc_RelaisSens1)^0180h,w
  3723  0115  3EC9               	addlw	_st_SortiesRelaisBistables&0ffh
  3724  0116  0084               	movwf	fsr0
  3725  0117  1383               	bcf	status, 7	;select IRP bank1
  3726  0118  1480               	bsf	indf,1
  3727                           	line	374
  3728                           ;traitement.c: 374: st_EntreesVoletRoulant[l_uc_RelaisSens1].ub3_EtatCommande = uc_VOLET
                                 _RIEN;
  3729  0119  086C               	movf	(vd_TraitementApplicatif@l_uc_RelaisSens1)^0180h,w
  3730  011A  3EBD               	addlw	_st_EntreesVoletRoulant&0ffh
  3731  011B  0084               	movwf	fsr0
  3732  011C  301F               	movlw	((0 & ((1<<3)-1))<<5)|not (((1<<3)-1)<<5)
  3733  011D  0580               	andwf	indf,f
  3734                           	line	375
  3735                           ;traitement.c: 375: }
  3736  011E  2A4E               	goto	l5526
  3737                           	line	378
  3738                           	
  3739  011F                     l5458:	
  3740                           ;traitement.c: 376: else
  3741                           ;traitement.c: 377: {
  3742                           ;traitement.c: 378: if (uc_StopVolet(l_uc_Compteur,RAZ)==1)
  3743  011F  1283               	bcf	status, 5	;RP0=0, select bank0
  3744  0120  1303               	bcf	status, 6	;RP1=0, select bank0
  3745  0121  01D4               	clrf	(uc_StopVolet@mode)
  3746  0122  0AD4               	incf	(uc_StopVolet@mode),f
  3747  0123  1683               	bsf	status, 5	;RP0=1, select bank3
  3748  0124  1703               	bsf	status, 6	;RP1=1, select bank3
  3749  0125  086D               	movf	(vd_TraitementApplicatif@l_uc_Compteur)^0180h,w
  3750  0126  120A  158A  2011   	fcall	_uc_StopVolet
              120A  118A         
  3751                           	line	380
  3752                           	
  3753  012B                     l5460:	
  3754                           ;traitement.c: 380: st_SortiesRelaisBistables[l_uc_RelaisSens1].ub1_EtatRelaisBistableSo
                                 uhaite = 0;
  3755  012B  1683               	bsf	status, 5	;RP0=1, select bank3
  3756  012C  1703               	bsf	status, 6	;RP1=1, select bank3
  3757  012D  086C               	movf	(vd_TraitementApplicatif@l_uc_RelaisSens1)^0180h,w
  3758  012E  3EC9               	addlw	_st_SortiesRelaisBistables&0ffh
  3759  012F  0084               	movwf	fsr0
  3760  0130  1383               	bcf	status, 7	;select IRP bank1
  3761  0131  1080               	bcf	indf,1
  3762                           	line	383
  3763                           ;traitement.c: 383: st_EntreesVoletRoulant[l_uc_RelaisSens1].ub3_EtatCommande = uc_VOLET
                                 _RIEN;
  3764  0132  086C               	movf	(vd_TraitementApplicatif@l_uc_RelaisSens1)^0180h,w
  3765  0133  3EBD               	addlw	_st_EntreesVoletRoulant&0ffh
  3766  0134  0084               	movwf	fsr0
  3767  0135  301F               	movlw	((0 & ((1<<3)-1))<<5)|not (((1<<3)-1)<<5)
  3768  0136  0580               	andwf	indf,f
  3769  0137  2A4E               	goto	l5526
  3770                           	line	388
  3771                           	
  3772  0138                     l5462:	
  3773                           ;traitement.c: 388: if (uc_StopVolet(l_uc_Compteur,RAZ)==1)
  3774  0138  01D4               	clrf	(uc_StopVolet@mode)
  3775  0139  0AD4               	incf	(uc_StopVolet@mode),f
  3776  013A  1683               	bsf	status, 5	;RP0=1, select bank3
  3777  013B  1703               	bsf	status, 6	;RP1=1, select bank3
  3778  013C  086D               	movf	(vd_TraitementApplicatif@l_uc_Compteur)^0180h,w
  3779  013D  120A  158A  2011   	fcall	_uc_StopVolet
              120A  118A         
  3780                           	line	390
  3781                           	
  3782  0142                     l5464:	
  3783                           ;traitement.c: 390: st_SortiesRelaisBistables[l_uc_RelaisSens1].ub1_EtatRelaisBistableSo
                                 uhaite = 1;
  3784  0142  1683               	bsf	status, 5	;RP0=1, select bank3
  3785  0143  1703               	bsf	status, 6	;RP1=1, select bank3
  3786  0144  086C               	movf	(vd_TraitementApplicatif@l_uc_RelaisSens1)^0180h,w
  3787  0145  3EC9               	addlw	_st_SortiesRelaisBistables&0ffh
  3788  0146  0084               	movwf	fsr0
  3789  0147  1383               	bcf	status, 7	;select IRP bank1
  3790  0148  1480               	bsf	indf,1
  3791                           	line	392
  3792                           ;traitement.c: 392: st_SortiesRelaisBistables[l_uc_RelaisSens2].ub1_EtatRelaisBistableSo
                                 uhaite = 0;
  3793  0149  086B               	movf	(vd_TraitementApplicatif@l_uc_RelaisSens2)^0180h,w
  3794  014A  3EC9               	addlw	_st_SortiesRelaisBistables&0ffh
  3795  014B  0084               	movwf	fsr0
  3796  014C  1080               	bcf	indf,1
  3797                           	line	393
  3798                           ;traitement.c: 393: break;
  3799  014D  2A4E               	goto	l5526
  3800                           	line	396
  3801                           	
  3802  014E                     l5466:	
  3803                           ;traitement.c: 396: if (uc_StopVolet(l_uc_Compteur,RAZ)==1)
  3804  014E  01D4               	clrf	(uc_StopVolet@mode)
  3805  014F  0AD4               	incf	(uc_StopVolet@mode),f
  3806  0150  1683               	bsf	status, 5	;RP0=1, select bank3
  3807  0151  1703               	bsf	status, 6	;RP1=1, select bank3
  3808  0152  086D               	movf	(vd_TraitementApplicatif@l_uc_Compteur)^0180h,w
  3809  0153  120A  158A  2011   	fcall	_uc_StopVolet
              120A  118A         
  3810  0158  292B               	goto	l5460
  3811                           	line	406
  3812                           	
  3813  0159                     l5470:	
  3814                           ;traitement.c: 406: if (st_SortiesRelaisBistables[l_uc_RelaisSens2].ub1_EtatRelaisBistab
                                 leSouhaite != 0)
  3815  0159  1683               	bsf	status, 5	;RP0=1, select bank3
  3816  015A  1703               	bsf	status, 6	;RP1=1, select bank3
  3817  015B  086B               	movf	(vd_TraitementApplicatif@l_uc_RelaisSens2)^0180h,w
  3818  015C  3EC9               	addlw	_st_SortiesRelaisBistables&0ffh
  3819  015D  0084               	movwf	fsr0
  3820  015E  1C80               	btfss	indf,1
  3821  015F  2961               	goto	u6471
  3822  0160  2962               	goto	u6470
  3823  0161                     u6471:
  3824  0161  2966               	goto	l5474
  3825  0162                     u6470:
  3826                           	line	408
  3827                           	
  3828  0162                     l5472:	
  3829                           ;traitement.c: 407: {
  3830                           ;traitement.c: 408: st_SortiesRelaisBistables[l_uc_RelaisSens2].ub1_EtatRelaisBistableSo
                                 uhaite = 0;
  3831  0162  086B               	movf	(vd_TraitementApplicatif@l_uc_RelaisSens2)^0180h,w
  3832  0163  3EC9               	addlw	_st_SortiesRelaisBistables&0ffh
  3833  0164  0084               	movwf	fsr0
  3834  0165  1080               	bcf	indf,1
  3835                           	line	413
  3836                           	
  3837  0166                     l5474:	
  3838                           ;traitement.c: 411: }
  3839                           ;traitement.c: 413: if (uc_StopVolet(l_uc_Compteur,INIT)==1)
  3840  0166  1283               	bcf	status, 5	;RP0=0, select bank0
  3841  0167  1303               	bcf	status, 6	;RP1=0, select bank0
  3842  0168  01D4               	clrf	(uc_StopVolet@mode)
  3843  0169  1683               	bsf	status, 5	;RP0=1, select bank3
  3844  016A  1703               	bsf	status, 6	;RP1=1, select bank3
  3845  016B  086D               	movf	(vd_TraitementApplicatif@l_uc_Compteur)^0180h,w
  3846  016C  120A  158A  2011   	fcall	_uc_StopVolet
              120A  118A         
  3847  0171  2912               	goto	l5456
  3848                           	line	422
  3849                           	
  3850  0172                     l5478:	
  3851                           ;traitement.c: 422: if(st_SortiesRelaisBistables[l_uc_RelaisSens1].ub1_EtatRelaisBistabl
                                 eSouhaite != 0)
  3852  0172  1683               	bsf	status, 5	;RP0=1, select bank3
  3853  0173  1703               	bsf	status, 6	;RP1=1, select bank3
  3854  0174  086C               	movf	(vd_TraitementApplicatif@l_uc_RelaisSens1)^0180h,w
  3855  0175  3EC9               	addlw	_st_SortiesRelaisBistables&0ffh
  3856  0176  0084               	movwf	fsr0
  3857  0177  1C80               	btfss	indf,1
  3858  0178  297A               	goto	u6481
  3859  0179  297B               	goto	u6480
  3860  017A                     u6481:
  3861  017A  2A4E               	goto	l5526
  3862  017B                     u6480:
  3863                           	line	423
  3864                           	
  3865  017B                     l5480:	
  3866                           ;traitement.c: 423: if (uc_StopVolet(l_uc_Compteur,MAINTIEN)==1)
  3867  017B  3002               	movlw	(02h)
  3868  017C  1283               	bcf	status, 5	;RP0=0, select bank0
  3869  017D  1303               	bcf	status, 6	;RP1=0, select bank0
  3870  017E  00D4               	movwf	(uc_StopVolet@mode)
  3871  017F  1683               	bsf	status, 5	;RP0=1, select bank3
  3872  0180  1703               	bsf	status, 6	;RP1=1, select bank3
  3873  0181  086D               	movf	(vd_TraitementApplicatif@l_uc_Compteur)^0180h,w
  3874  0182  120A  158A  2011   	fcall	_uc_StopVolet
              120A  118A         
  3875  0187  3A01               	xorlw	01h
  3876  0188  1D03               	skipz
  3877  0189  298B               	goto	u6491
  3878  018A  298C               	goto	u6490
  3879  018B                     u6491:
  3880  018B  29AC               	goto	l798
  3881  018C                     u6490:
  3882                           	line	424
  3883                           	
  3884  018C                     l5482:	
  3885                           ;traitement.c: 424: st_SortiesRelaisBistables[l_uc_RelaisSens1].ub1_EtatRelaisBistableSo
                                 uhaite = 0;
  3886  018C  1683               	bsf	status, 5	;RP0=1, select bank3
  3887  018D  1703               	bsf	status, 6	;RP1=1, select bank3
  3888  018E  086C               	movf	(vd_TraitementApplicatif@l_uc_RelaisSens1)^0180h,w
  3889  018F  3EC9               	addlw	_st_SortiesRelaisBistables&0ffh
  3890  0190  0084               	movwf	fsr0
  3891  0191  1383               	bcf	status, 7	;select IRP bank1
  3892  0192  1080               	bcf	indf,1
  3893  0193  2A4E               	goto	l5526
  3894                           	line	356
  3895                           	
  3896  0194                     l5486:	
  3897  0194  1683               	bsf	status, 5	;RP0=1, select bank3
  3898  0195  1703               	bsf	status, 6	;RP1=1, select bank3
  3899  0196  086C               	movf	(vd_TraitementApplicatif@l_uc_RelaisSens1)^0180h,w
  3900  0197  3EBD               	addlw	_st_EntreesVoletRoulant&0ffh
  3901  0198  0084               	movwf	fsr0
  3902  0199  0E00               	swapf	indf,w
  3903  019A  1283               	bcf	status, 5	;RP0=0, select bank0
  3904  019B  1303               	bcf	status, 6	;RP1=0, select bank0
  3905  019C  00E9               	movwf	(??_vd_TraitementApplicatif+0)+0
  3906  019D  0C69               	rrf	(??_vd_TraitementApplicatif+0)+0,w
  3907  019E  3907               	andlw	(1<<3)-1
  3908                           	; Switch size 1, requested type "space"
  3909                           ; Number of cases is 4, Range of values is 1 to 4
  3910                           ; switch strategies available:
  3911                           ; Name         Instructions Cycles
  3912                           ; simple_byte           13     7 (average)
  3913                           ; direct_byte           23    11 (fixed)
  3914                           ; jumptable            263     9 (fixed)
  3915                           ;	Chosen strategy is simple_byte
  3916                           
  3917                           	opt asmopt_off
  3918  019F  3A01               	xorlw	1^0	; case 1
  3919  01A0  1903               	skipnz
  3920  01A1  294E               	goto	l5466
  3921  01A2  3A03               	xorlw	2^1	; case 2
  3922  01A3  1903               	skipnz
  3923  01A4  28F3               	goto	l5448
  3924  01A5  3A01               	xorlw	3^2	; case 3
  3925  01A6  1903               	skipnz
  3926  01A7  2938               	goto	l5462
  3927  01A8  3A07               	xorlw	4^3	; case 4
  3928  01A9  1903               	skipnz
  3929  01AA  2959               	goto	l5470
  3930  01AB  2972               	goto	l5478
  3931                           	opt asmopt_on
  3932                           
  3933                           	line	426
  3934                           	
  3935  01AC                     l798:	
  3936                           	line	429
  3937                           ;traitement.c: 429: switch (st_EntreesVoletRoulant[l_uc_RelaisSens2].ub3_EtatCommande)
  3938  01AC  2A4E               	goto	l5526
  3939                           	line	434
  3940                           	
  3941  01AD                     l5488:	
  3942                           ;traitement.c: 434: if (st_SortiesRelaisBistables[l_uc_RelaisSens2].ub1_EtatRelaisBistab
                                 leSouhaite == 0)
  3943  01AD  1683               	bsf	status, 5	;RP0=1, select bank3
  3944  01AE  1703               	bsf	status, 6	;RP1=1, select bank3
  3945  01AF  086B               	movf	(vd_TraitementApplicatif@l_uc_RelaisSens2)^0180h,w
  3946  01B0  3EC9               	addlw	_st_SortiesRelaisBistables&0ffh
  3947  01B1  0084               	movwf	fsr0
  3948  01B2  1880               	btfsc	indf,1
  3949  01B3  29B5               	goto	u6501
  3950  01B4  29B6               	goto	u6500
  3951  01B5                     u6501:
  3952  01B5  29D9               	goto	l5498
  3953  01B6                     u6500:
  3954                           	line	438
  3955                           	
  3956  01B6                     l5490:	
  3957                           ;traitement.c: 435: {
  3958                           ;traitement.c: 438: if (st_SortiesRelaisBistables[l_uc_RelaisSens1].ub1_EtatRelaisBistab
                                 leSouhaite != 0)
  3959  01B6  086C               	movf	(vd_TraitementApplicatif@l_uc_RelaisSens1)^0180h,w
  3960  01B7  3EC9               	addlw	_st_SortiesRelaisBistables&0ffh
  3961  01B8  0084               	movwf	fsr0
  3962  01B9  1C80               	btfss	indf,1
  3963  01BA  29BC               	goto	u6511
  3964  01BB  29BD               	goto	u6510
  3965  01BC                     u6511:
  3966  01BC  29C1               	goto	l5494
  3967  01BD                     u6510:
  3968                           	line	440
  3969                           	
  3970  01BD                     l5492:	
  3971                           ;traitement.c: 439: {
  3972                           ;traitement.c: 440: st_SortiesRelaisBistables[l_uc_RelaisSens1].ub1_EtatRelaisBistableSo
                                 uhaite = 0;
  3973  01BD  086C               	movf	(vd_TraitementApplicatif@l_uc_RelaisSens1)^0180h,w
  3974  01BE  3EC9               	addlw	_st_SortiesRelaisBistables&0ffh
  3975  01BF  0084               	movwf	fsr0
  3976  01C0  1080               	bcf	indf,1
  3977                           	line	445
  3978                           	
  3979  01C1                     l5494:	
  3980                           ;traitement.c: 443: }
  3981                           ;traitement.c: 445: if (uc_StopVolet(l_uc_Compteur,INIT)==1)
  3982  01C1  1283               	bcf	status, 5	;RP0=0, select bank0
  3983  01C2  1303               	bcf	status, 6	;RP1=0, select bank0
  3984  01C3  01D4               	clrf	(uc_StopVolet@mode)
  3985  01C4  1683               	bsf	status, 5	;RP0=1, select bank3
  3986  01C5  1703               	bsf	status, 6	;RP1=1, select bank3
  3987  01C6  086D               	movf	(vd_TraitementApplicatif@l_uc_Compteur)^0180h,w
  3988  01C7  120A  158A  2011   	fcall	_uc_StopVolet
              120A  118A         
  3989                           	line	447
  3990                           	
  3991  01CC                     l5496:	
  3992                           ;traitement.c: 447: st_SortiesRelaisBistables[l_uc_RelaisSens2].ub1_EtatRelaisBistableSo
                                 uhaite = 1;
  3993  01CC  1683               	bsf	status, 5	;RP0=1, select bank3
  3994  01CD  1703               	bsf	status, 6	;RP1=1, select bank3
  3995  01CE  086B               	movf	(vd_TraitementApplicatif@l_uc_RelaisSens2)^0180h,w
  3996  01CF  3EC9               	addlw	_st_SortiesRelaisBistables&0ffh
  3997  01D0  0084               	movwf	fsr0
  3998  01D1  1383               	bcf	status, 7	;select IRP bank1
  3999  01D2  1480               	bsf	indf,1
  4000                           	line	450
  4001                           ;traitement.c: 450: st_EntreesVoletRoulant[l_uc_RelaisSens2].ub3_EtatCommande = uc_VOLET
                                 _RIEN;
  4002  01D3  086B               	movf	(vd_TraitementApplicatif@l_uc_RelaisSens2)^0180h,w
  4003  01D4  3EBD               	addlw	_st_EntreesVoletRoulant&0ffh
  4004  01D5  0084               	movwf	fsr0
  4005  01D6  301F               	movlw	((0 & ((1<<3)-1))<<5)|not (((1<<3)-1)<<5)
  4006  01D7  0580               	andwf	indf,f
  4007                           	line	451
  4008                           ;traitement.c: 451: }
  4009  01D8  2A67               	goto	l5528
  4010                           	line	454
  4011                           	
  4012  01D9                     l5498:	
  4013                           ;traitement.c: 452: else
  4014                           ;traitement.c: 453: {
  4015                           ;traitement.c: 454: if (uc_StopVolet(l_uc_Compteur,RAZ)==1)
  4016  01D9  1283               	bcf	status, 5	;RP0=0, select bank0
  4017  01DA  1303               	bcf	status, 6	;RP1=0, select bank0
  4018  01DB  01D4               	clrf	(uc_StopVolet@mode)
  4019  01DC  0AD4               	incf	(uc_StopVolet@mode),f
  4020  01DD  1683               	bsf	status, 5	;RP0=1, select bank3
  4021  01DE  1703               	bsf	status, 6	;RP1=1, select bank3
  4022  01DF  086D               	movf	(vd_TraitementApplicatif@l_uc_Compteur)^0180h,w
  4023  01E0  120A  158A  2011   	fcall	_uc_StopVolet
              120A  118A         
  4024                           	line	456
  4025                           	
  4026  01E5                     l5500:	
  4027                           ;traitement.c: 456: st_SortiesRelaisBistables[l_uc_RelaisSens2].ub1_EtatRelaisBistableSo
                                 uhaite = 0;
  4028  01E5  1683               	bsf	status, 5	;RP0=1, select bank3
  4029  01E6  1703               	bsf	status, 6	;RP1=1, select bank3
  4030  01E7  086B               	movf	(vd_TraitementApplicatif@l_uc_RelaisSens2)^0180h,w
  4031  01E8  3EC9               	addlw	_st_SortiesRelaisBistables&0ffh
  4032  01E9  0084               	movwf	fsr0
  4033  01EA  1383               	bcf	status, 7	;select IRP bank1
  4034  01EB  1080               	bcf	indf,1
  4035                           	line	459
  4036                           ;traitement.c: 459: st_EntreesVoletRoulant[l_uc_RelaisSens2].ub3_EtatCommande = uc_VOLET
                                 _RIEN;
  4037  01EC  086B               	movf	(vd_TraitementApplicatif@l_uc_RelaisSens2)^0180h,w
  4038  01ED  3EBD               	addlw	_st_EntreesVoletRoulant&0ffh
  4039  01EE  0084               	movwf	fsr0
  4040  01EF  301F               	movlw	((0 & ((1<<3)-1))<<5)|not (((1<<3)-1)<<5)
  4041  01F0  0580               	andwf	indf,f
  4042  01F1  2A67               	goto	l5528
  4043                           	line	464
  4044                           	
  4045  01F2                     l5502:	
  4046                           ;traitement.c: 464: if (uc_StopVolet(l_uc_Compteur,RAZ)==1)
  4047  01F2  01D4               	clrf	(uc_StopVolet@mode)
  4048  01F3  0AD4               	incf	(uc_StopVolet@mode),f
  4049  01F4  1683               	bsf	status, 5	;RP0=1, select bank3
  4050  01F5  1703               	bsf	status, 6	;RP1=1, select bank3
  4051  01F6  086D               	movf	(vd_TraitementApplicatif@l_uc_Compteur)^0180h,w
  4052  01F7  120A  158A  2011   	fcall	_uc_StopVolet
              120A  118A         
  4053                           	line	466
  4054                           	
  4055  01FC                     l5504:	
  4056                           ;traitement.c: 466: st_SortiesRelaisBistables[l_uc_RelaisSens2].ub1_EtatRelaisBistableSo
                                 uhaite = 1;
  4057  01FC  1683               	bsf	status, 5	;RP0=1, select bank3
  4058  01FD  1703               	bsf	status, 6	;RP1=1, select bank3
  4059  01FE  086B               	movf	(vd_TraitementApplicatif@l_uc_RelaisSens2)^0180h,w
  4060  01FF  3EC9               	addlw	_st_SortiesRelaisBistables&0ffh
  4061  0200  0084               	movwf	fsr0
  4062  0201  1383               	bcf	status, 7	;select IRP bank1
  4063  0202  1480               	bsf	indf,1
  4064                           	line	468
  4065                           ;traitement.c: 468: st_SortiesRelaisBistables[l_uc_RelaisSens1].ub1_EtatRelaisBistableSo
                                 uhaite = 0;
  4066  0203  086C               	movf	(vd_TraitementApplicatif@l_uc_RelaisSens1)^0180h,w
  4067  0204  3EC9               	addlw	_st_SortiesRelaisBistables&0ffh
  4068  0205  0084               	movwf	fsr0
  4069  0206  1080               	bcf	indf,1
  4070                           	line	469
  4071                           ;traitement.c: 469: break;
  4072  0207  2A67               	goto	l5528
  4073                           	line	472
  4074                           	
  4075  0208                     l5506:	
  4076                           ;traitement.c: 472: if (uc_StopVolet(l_uc_Compteur,RAZ)==1)
  4077  0208  01D4               	clrf	(uc_StopVolet@mode)
  4078  0209  0AD4               	incf	(uc_StopVolet@mode),f
  4079  020A  1683               	bsf	status, 5	;RP0=1, select bank3
  4080  020B  1703               	bsf	status, 6	;RP1=1, select bank3
  4081  020C  086D               	movf	(vd_TraitementApplicatif@l_uc_Compteur)^0180h,w
  4082  020D  120A  158A  2011   	fcall	_uc_StopVolet
              120A  118A         
  4083  0212  29E5               	goto	l5500
  4084                           	line	482
  4085                           	
  4086  0213                     l5510:	
  4087                           ;traitement.c: 482: if (st_SortiesRelaisBistables[l_uc_RelaisSens1].ub1_EtatRelaisBistab
                                 leSouhaite != 0)
  4088  0213  1683               	bsf	status, 5	;RP0=1, select bank3
  4089  0214  1703               	bsf	status, 6	;RP1=1, select bank3
  4090  0215  086C               	movf	(vd_TraitementApplicatif@l_uc_RelaisSens1)^0180h,w
  4091  0216  3EC9               	addlw	_st_SortiesRelaisBistables&0ffh
  4092  0217  0084               	movwf	fsr0
  4093  0218  1C80               	btfss	indf,1
  4094  0219  2A1B               	goto	u6521
  4095  021A  2A1C               	goto	u6520
  4096  021B                     u6521:
  4097  021B  2A20               	goto	l5514
  4098  021C                     u6520:
  4099                           	line	484
  4100                           	
  4101  021C                     l5512:	
  4102                           ;traitement.c: 483: {
  4103                           ;traitement.c: 484: st_SortiesRelaisBistables[l_uc_RelaisSens1].ub1_EtatRelaisBistableSo
                                 uhaite = 0;
  4104  021C  086C               	movf	(vd_TraitementApplicatif@l_uc_RelaisSens1)^0180h,w
  4105  021D  3EC9               	addlw	_st_SortiesRelaisBistables&0ffh
  4106  021E  0084               	movwf	fsr0
  4107  021F  1080               	bcf	indf,1
  4108                           	line	489
  4109                           	
  4110  0220                     l5514:	
  4111                           ;traitement.c: 487: }
  4112                           ;traitement.c: 489: if (uc_StopVolet(l_uc_Compteur,INIT)==1)
  4113  0220  1283               	bcf	status, 5	;RP0=0, select bank0
  4114  0221  1303               	bcf	status, 6	;RP1=0, select bank0
  4115  0222  01D4               	clrf	(uc_StopVolet@mode)
  4116  0223  1683               	bsf	status, 5	;RP0=1, select bank3
  4117  0224  1703               	bsf	status, 6	;RP1=1, select bank3
  4118  0225  086D               	movf	(vd_TraitementApplicatif@l_uc_Compteur)^0180h,w
  4119  0226  120A  158A  2011   	fcall	_uc_StopVolet
              120A  118A         
  4120  022B  29CC               	goto	l5496
  4121                           	line	498
  4122                           	
  4123  022C                     l5518:	
  4124                           ;traitement.c: 498: if(st_SortiesRelaisBistables[l_uc_RelaisSens2].ub1_EtatRelaisBistabl
                                 eSouhaite != 0)
  4125  022C  1683               	bsf	status, 5	;RP0=1, select bank3
  4126  022D  1703               	bsf	status, 6	;RP1=1, select bank3
  4127  022E  086B               	movf	(vd_TraitementApplicatif@l_uc_RelaisSens2)^0180h,w
  4128  022F  3EC9               	addlw	_st_SortiesRelaisBistables&0ffh
  4129  0230  0084               	movwf	fsr0
  4130  0231  1C80               	btfss	indf,1
  4131  0232  2A34               	goto	u6531
  4132  0233  2A35               	goto	u6530
  4133  0234                     u6531:
  4134  0234  2A67               	goto	l5528
  4135  0235                     u6530:
  4136                           	line	499
  4137                           	
  4138  0235                     l5520:	
  4139                           ;traitement.c: 499: if (uc_StopVolet(l_uc_Compteur,MAINTIEN)==1)
  4140  0235  3002               	movlw	(02h)
  4141  0236  1283               	bcf	status, 5	;RP0=0, select bank0
  4142  0237  1303               	bcf	status, 6	;RP1=0, select bank0
  4143  0238  00D4               	movwf	(uc_StopVolet@mode)
  4144  0239  1683               	bsf	status, 5	;RP0=1, select bank3
  4145  023A  1703               	bsf	status, 6	;RP1=1, select bank3
  4146  023B  086D               	movf	(vd_TraitementApplicatif@l_uc_Compteur)^0180h,w
  4147  023C  120A  158A  2011   	fcall	_uc_StopVolet
              120A  118A         
  4148  0241  3A01               	xorlw	01h
  4149  0242  1D03               	skipz
  4150  0243  2A45               	goto	u6541
  4151  0244  2A46               	goto	u6540
  4152  0245                     u6541:
  4153  0245  2A67               	goto	l5528
  4154  0246                     u6540:
  4155                           	line	500
  4156                           	
  4157  0246                     l5522:	
  4158                           ;traitement.c: 500: st_SortiesRelaisBistables[l_uc_RelaisSens2].ub1_EtatRelaisBistableSo
                                 uhaite = 0;
  4159  0246  1683               	bsf	status, 5	;RP0=1, select bank3
  4160  0247  1703               	bsf	status, 6	;RP1=1, select bank3
  4161  0248  086B               	movf	(vd_TraitementApplicatif@l_uc_RelaisSens2)^0180h,w
  4162  0249  3EC9               	addlw	_st_SortiesRelaisBistables&0ffh
  4163  024A  0084               	movwf	fsr0
  4164  024B  1383               	bcf	status, 7	;select IRP bank1
  4165  024C  1080               	bcf	indf,1
  4166  024D  2A67               	goto	l5528
  4167                           	line	429
  4168                           	
  4169  024E                     l5526:	
  4170  024E  1683               	bsf	status, 5	;RP0=1, select bank3
  4171  024F  1703               	bsf	status, 6	;RP1=1, select bank3
  4172  0250  086B               	movf	(vd_TraitementApplicatif@l_uc_RelaisSens2)^0180h,w
  4173  0251  3EBD               	addlw	_st_EntreesVoletRoulant&0ffh
  4174  0252  0084               	movwf	fsr0
  4175  0253  1383               	bcf	status, 7	;select IRP bank1
  4176  0254  0E00               	swapf	indf,w
  4177  0255  1283               	bcf	status, 5	;RP0=0, select bank0
  4178  0256  1303               	bcf	status, 6	;RP1=0, select bank0
  4179  0257  00E9               	movwf	(??_vd_TraitementApplicatif+0)+0
  4180  0258  0C69               	rrf	(??_vd_TraitementApplicatif+0)+0,w
  4181  0259  3907               	andlw	(1<<3)-1
  4182                           	; Switch size 1, requested type "space"
  4183                           ; Number of cases is 4, Range of values is 1 to 4
  4184                           ; switch strategies available:
  4185                           ; Name         Instructions Cycles
  4186                           ; simple_byte           13     7 (average)
  4187                           ; direct_byte           23    11 (fixed)
  4188                           ; jumptable            263     9 (fixed)
  4189                           ;	Chosen strategy is simple_byte
  4190                           
  4191                           	opt asmopt_off
  4192  025A  3A01               	xorlw	1^0	; case 1
  4193  025B  1903               	skipnz
  4194  025C  2A08               	goto	l5506
  4195  025D  3A03               	xorlw	2^1	; case 2
  4196  025E  1903               	skipnz
  4197  025F  29AD               	goto	l5488
  4198  0260  3A01               	xorlw	3^2	; case 3
  4199  0261  1903               	skipnz
  4200  0262  29F2               	goto	l5502
  4201  0263  3A07               	xorlw	4^3	; case 4
  4202  0264  1903               	skipnz
  4203  0265  2A13               	goto	l5510
  4204  0266  2A2C               	goto	l5518
  4205                           	opt asmopt_on
  4206                           
  4207                           	line	328
  4208                           	
  4209  0267                     l5528:	
  4210  0267  1683               	bsf	status, 5	;RP0=1, select bank3
  4211  0268  1703               	bsf	status, 6	;RP1=1, select bank3
  4212  0269  0AED               	incf	(vd_TraitementApplicatif@l_uc_Compteur)^0180h,f
  4213                           	
  4214  026A                     l5530:	
  4215  026A  1283               	bcf	status, 5	;RP0=0, select bank0
  4216  026B  1303               	bcf	status, 6	;RP1=0, select bank0
  4217  026C  0848               	movf	(_uc_VOLET_NB),w
  4218  026D  1683               	bsf	status, 5	;RP0=1, select bank3
  4219  026E  1703               	bsf	status, 6	;RP1=1, select bank3
  4220  026F  026D               	subwf	(vd_TraitementApplicatif@l_uc_Compteur)^0180h,w
  4221  0270  1C03               	skipc
  4222  0271  2A73               	goto	u6551
  4223  0272  2A74               	goto	u6550
  4224  0273                     u6551:
  4225  0273  28B1               	goto	l5436
  4226  0274                     u6550:
  4227                           	line	508
  4228                           	
  4229  0274                     l5532:	
  4230                           ;traitement.c: 503: }
  4231                           ;traitement.c: 508: for(l_uc_Compteur=0;l_uc_Compteur<uc_VARIATEUR_NB;l_uc_Compteur++)
  4232  0274  01ED               	clrf	(vd_TraitementApplicatif@l_uc_Compteur)^0180h
  4233  0275  2DA3               	goto	l5614
  4234                           	line	539
  4235                           	
  4236  0276                     l5534:	
  4237                           ;traitement.c: 539: st_Variateurs[l_uc_Compteur].c_Eclairage = 0;
  4238  0276  1683               	bsf	status, 5	;RP0=1, select bank3
  4239  0277  1703               	bsf	status, 6	;RP1=1, select bank3
  4240  0278  086D               	movf	(vd_TraitementApplicatif@l_uc_Compteur)^0180h,w
  4241  0279  076D               	addwf	(vd_TraitementApplicatif@l_uc_Compteur)^0180h,w
  4242  027A  076D               	addwf	(vd_TraitementApplicatif@l_uc_Compteur)^0180h,w
  4243  027B  3ED5               	addlw	_st_Variateurs&0ffh
  4244  027C  0084               	movwf	fsr0
  4245  027D  0180               	clrf	indf
  4246                           	line	540
  4247                           ;traitement.c: 540: st_EntreesVariateur[l_uc_Compteur].ub1_SensCommande = 0;
  4248  027E  086D               	movf	(vd_TraitementApplicatif@l_uc_Compteur)^0180h,w
  4249  027F  1283               	bcf	status, 5	;RP0=0, select bank0
  4250  0280  1303               	bcf	status, 6	;RP1=0, select bank0
  4251  0281  00E9               	movwf	(??_vd_TraitementApplicatif+0)+0
  4252  0282  3001               	movlw	(02h)-1
  4253  0283                     u6565:
  4254  0283  1003               	clrc
  4255  0284  0DE9               	rlf	(??_vd_TraitementApplicatif+0)+0,f
  4256  0285  3EFF               	addlw	-1
  4257  0286  1D03               	skipz
  4258  0287  2A83               	goto	u6565
  4259  0288  1003               	clrc
  4260  0289  0D69               	rlf	(??_vd_TraitementApplicatif+0)+0,w
  4261  028A  3EA3               	addlw	_st_EntreesVariateur+03h&0ffh
  4262  028B  0084               	movwf	fsr0
  4263  028C  1000               	bcf	indf,0
  4264                           	line	543
  4265                           ;traitement.c: 543: st_EntreesVariateur[l_uc_Compteur].ub3_EtatCommande = uc_VARIATEUR_R
                                 IEN;
  4266  028D  1683               	bsf	status, 5	;RP0=1, select bank3
  4267  028E  1703               	bsf	status, 6	;RP1=1, select bank3
  4268  028F  086D               	movf	(vd_TraitementApplicatif@l_uc_Compteur)^0180h,w
  4269  0290  1283               	bcf	status, 5	;RP0=0, select bank0
  4270  0291  1303               	bcf	status, 6	;RP1=0, select bank0
  4271  0292  00E9               	movwf	(??_vd_TraitementApplicatif+0)+0
  4272  0293  3001               	movlw	(02h)-1
  4273  0294                     u6575:
  4274  0294  1003               	clrc
  4275  0295  0DE9               	rlf	(??_vd_TraitementApplicatif+0)+0,f
  4276  0296  3EFF               	addlw	-1
  4277  0297  1D03               	skipz
  4278  0298  2A94               	goto	u6575
  4279  0299  1003               	clrc
  4280  029A  0D69               	rlf	(??_vd_TraitementApplicatif+0)+0,w
  4281  029B  3EA2               	addlw	_st_EntreesVariateur+02h&0ffh
  4282  029C  0084               	movwf	fsr0
  4283  029D  301F               	movlw	((0 & ((1<<3)-1))<<5)|not (((1<<3)-1)<<5)
  4284  029E  0580               	andwf	indf,f
  4285                           	line	544
  4286                           ;traitement.c: 544: break;
  4287  029F  2C7C               	goto	l5576
  4288                           	line	549
  4289                           	
  4290  02A0                     l5536:	
  4291                           ;traitement.c: 548: if ( (st_EntreesVariateur[l_uc_Compteur].ub3_EntreeMode == uc_MODE_T
                                 OR)
  4292                           ;traitement.c: 549: || (st_EntreesVariateur[l_uc_Compteur].ub3_EntreeMode == uc_MODE_SOF
                                 T_START))
  4293  02A0  1683               	bsf	status, 5	;RP0=1, select bank3
  4294  02A1  1703               	bsf	status, 6	;RP1=1, select bank3
  4295  02A2  086D               	movf	(vd_TraitementApplicatif@l_uc_Compteur)^0180h,w
  4296  02A3  1283               	bcf	status, 5	;RP0=0, select bank0
  4297  02A4  1303               	bcf	status, 6	;RP1=0, select bank0
  4298  02A5  00E9               	movwf	(??_vd_TraitementApplicatif+0)+0
  4299  02A6  3001               	movlw	(02h)-1
  4300  02A7                     u6585:
  4301  02A7  1003               	clrc
  4302  02A8  0DE9               	rlf	(??_vd_TraitementApplicatif+0)+0,f
  4303  02A9  3EFF               	addlw	-1
  4304  02AA  1D03               	skipz
  4305  02AB  2AA7               	goto	u6585
  4306  02AC  1003               	clrc
  4307  02AD  0D69               	rlf	(??_vd_TraitementApplicatif+0)+0,w
  4308  02AE  3EA2               	addlw	_st_EntreesVariateur+02h&0ffh
  4309  02AF  0084               	movwf	fsr0
  4310  02B0  0800               	movf	indf,w
  4311  02B1  3907               	andlw	(1<<3)-1
  4312  02B2  3A02               	xorlw	02h
  4313  02B3  1903               	skipnz
  4314  02B4  2AB6               	goto	u6591
  4315  02B5  2AB7               	goto	u6590
  4316  02B6                     u6591:
  4317  02B6  2ACE               	goto	l5540
  4318  02B7                     u6590:
  4319                           	
  4320  02B7                     l5538:	
  4321  02B7  1683               	bsf	status, 5	;RP0=1, select bank3
  4322  02B8  1703               	bsf	status, 6	;RP1=1, select bank3
  4323  02B9  086D               	movf	(vd_TraitementApplicatif@l_uc_Compteur)^0180h,w
  4324  02BA  1283               	bcf	status, 5	;RP0=0, select bank0
  4325  02BB  1303               	bcf	status, 6	;RP1=0, select bank0
  4326  02BC  00E9               	movwf	(??_vd_TraitementApplicatif+0)+0
  4327  02BD  3001               	movlw	(02h)-1
  4328  02BE                     u6605:
  4329  02BE  1003               	clrc
  4330  02BF  0DE9               	rlf	(??_vd_TraitementApplicatif+0)+0,f
  4331  02C0  3EFF               	addlw	-1
  4332  02C1  1D03               	skipz
  4333  02C2  2ABE               	goto	u6605
  4334  02C3  1003               	clrc
  4335  02C4  0D69               	rlf	(??_vd_TraitementApplicatif+0)+0,w
  4336  02C5  3EA2               	addlw	_st_EntreesVariateur+02h&0ffh
  4337  02C6  0084               	movwf	fsr0
  4338  02C7  0800               	movf	indf,w
  4339  02C8  3907               	andlw	(1<<3)-1
  4340  02C9  3800               	iorlw	0
  4341  02CA  1D03               	skipz
  4342  02CB  2ACD               	goto	u6611
  4343  02CC  2ACE               	goto	u6610
  4344  02CD                     u6611:
  4345  02CD  2AD7               	goto	l835
  4346  02CE                     u6610:
  4347                           	line	551
  4348                           	
  4349  02CE                     l5540:	
  4350                           ;traitement.c: 550: {
  4351                           ;traitement.c: 551: st_Variateurs[l_uc_Compteur].c_EclairageOld = 100;
  4352  02CE  1683               	bsf	status, 5	;RP0=1, select bank3
  4353  02CF  1703               	bsf	status, 6	;RP1=1, select bank3
  4354  02D0  086D               	movf	(vd_TraitementApplicatif@l_uc_Compteur)^0180h,w
  4355  02D1  076D               	addwf	(vd_TraitementApplicatif@l_uc_Compteur)^0180h,w
  4356  02D2  076D               	addwf	(vd_TraitementApplicatif@l_uc_Compteur)^0180h,w
  4357  02D3  3ED6               	addlw	_st_Variateurs+01h&0ffh
  4358  02D4  0084               	movwf	fsr0
  4359  02D5  3064               	movlw	(064h)
  4360  02D6  0080               	movwf	indf
  4361                           	line	552
  4362                           	
  4363  02D7                     l835:	
  4364                           	line	555
  4365                           ;traitement.c: 552: }
  4366                           ;traitement.c: 555: if (st_Variateurs[l_uc_Compteur].c_EclairageOld <=0)
  4367  02D7  1683               	bsf	status, 5	;RP0=1, select bank3
  4368  02D8  1703               	bsf	status, 6	;RP1=1, select bank3
  4369  02D9  086D               	movf	(vd_TraitementApplicatif@l_uc_Compteur)^0180h,w
  4370  02DA  076D               	addwf	(vd_TraitementApplicatif@l_uc_Compteur)^0180h,w
  4371  02DB  076D               	addwf	(vd_TraitementApplicatif@l_uc_Compteur)^0180h,w
  4372  02DC  3ED6               	addlw	_st_Variateurs+01h&0ffh
  4373  02DD  0084               	movwf	fsr0
  4374  02DE  0800               	movf	indf,w
  4375  02DF  3A80               	xorlw	80h
  4376  02E0  3E7F               	addlw	-((01h)^80h)
  4377  02E1  1803               	skipnc
  4378  02E2  2AE4               	goto	u6621
  4379  02E3  2AE5               	goto	u6620
  4380  02E4                     u6621:
  4381  02E4  2AEC               	goto	l838
  4382  02E5                     u6620:
  4383                           	line	557
  4384                           	
  4385  02E5                     l5542:	
  4386                           ;traitement.c: 557: st_Variateurs[l_uc_Compteur].c_EclairageOld = 100;
  4387  02E5  086D               	movf	(vd_TraitementApplicatif@l_uc_Compteur)^0180h,w
  4388  02E6  076D               	addwf	(vd_TraitementApplicatif@l_uc_Compteur)^0180h,w
  4389  02E7  076D               	addwf	(vd_TraitementApplicatif@l_uc_Compteur)^0180h,w
  4390  02E8  3ED6               	addlw	_st_Variateurs+01h&0ffh
  4391  02E9  0084               	movwf	fsr0
  4392  02EA  3064               	movlw	(064h)
  4393  02EB  0080               	movwf	indf
  4394                           	
  4395  02EC                     l838:	
  4396                           	line	559
  4397                           ;traitement.c: 559: st_Variateurs[l_uc_Compteur].c_Eclairage = st_Variateurs[l_uc_Compte
                                 ur].c_EclairageOld;
  4398  02EC  086D               	movf	(vd_TraitementApplicatif@l_uc_Compteur)^0180h,w
  4399  02ED  076D               	addwf	(vd_TraitementApplicatif@l_uc_Compteur)^0180h,w
  4400  02EE  076D               	addwf	(vd_TraitementApplicatif@l_uc_Compteur)^0180h,w
  4401  02EF  3ED6               	addlw	_st_Variateurs+01h&0ffh
  4402  02F0  0084               	movwf	fsr0
  4403  02F1  0800               	movf	indf,w
  4404  02F2  1283               	bcf	status, 5	;RP0=0, select bank0
  4405  02F3  1303               	bcf	status, 6	;RP1=0, select bank0
  4406  02F4  00E9               	movwf	(??_vd_TraitementApplicatif+0)+0
  4407  02F5  1683               	bsf	status, 5	;RP0=1, select bank3
  4408  02F6  1703               	bsf	status, 6	;RP1=1, select bank3
  4409  02F7  086D               	movf	(vd_TraitementApplicatif@l_uc_Compteur)^0180h,w
  4410  02F8  076D               	addwf	(vd_TraitementApplicatif@l_uc_Compteur)^0180h,w
  4411  02F9  076D               	addwf	(vd_TraitementApplicatif@l_uc_Compteur)^0180h,w
  4412  02FA  3ED5               	addlw	_st_Variateurs&0ffh
  4413  02FB  0084               	movwf	fsr0
  4414  02FC  1283               	bcf	status, 5	;RP0=0, select bank0
  4415  02FD  1303               	bcf	status, 6	;RP1=0, select bank0
  4416  02FE  0869               	movf	(??_vd_TraitementApplicatif+0)+0,w
  4417  02FF  0080               	movwf	indf
  4418                           	line	560
  4419                           ;traitement.c: 560: st_EntreesVariateur[l_uc_Compteur].ub1_SensCommande = 0;
  4420  0300  1683               	bsf	status, 5	;RP0=1, select bank3
  4421  0301  1703               	bsf	status, 6	;RP1=1, select bank3
  4422  0302  086D               	movf	(vd_TraitementApplicatif@l_uc_Compteur)^0180h,w
  4423  0303  1283               	bcf	status, 5	;RP0=0, select bank0
  4424  0304  1303               	bcf	status, 6	;RP1=0, select bank0
  4425  0305  00E9               	movwf	(??_vd_TraitementApplicatif+0)+0
  4426  0306  3001               	movlw	(02h)-1
  4427  0307                     u6635:
  4428  0307  1003               	clrc
  4429  0308  0DE9               	rlf	(??_vd_TraitementApplicatif+0)+0,f
  4430  0309  3EFF               	addlw	-1
  4431  030A  1D03               	skipz
  4432  030B  2B07               	goto	u6635
  4433  030C  1003               	clrc
  4434  030D  0D69               	rlf	(??_vd_TraitementApplicatif+0)+0,w
  4435  030E  3EA3               	addlw	_st_EntreesVariateur+03h&0ffh
  4436  030F  0084               	movwf	fsr0
  4437  0310  1000               	bcf	indf,0
  4438                           	line	563
  4439                           ;traitement.c: 563: st_EntreesVariateur[l_uc_Compteur].ub3_EtatCommande = uc_VARIATEUR_R
                                 IEN;
  4440  0311  1683               	bsf	status, 5	;RP0=1, select bank3
  4441  0312  1703               	bsf	status, 6	;RP1=1, select bank3
  4442  0313  086D               	movf	(vd_TraitementApplicatif@l_uc_Compteur)^0180h,w
  4443  0314  1283               	bcf	status, 5	;RP0=0, select bank0
  4444  0315  1303               	bcf	status, 6	;RP1=0, select bank0
  4445  0316  00E9               	movwf	(??_vd_TraitementApplicatif+0)+0
  4446  0317  3001               	movlw	(02h)-1
  4447  0318                     u6645:
  4448  0318  1003               	clrc
  4449  0319  0DE9               	rlf	(??_vd_TraitementApplicatif+0)+0,f
  4450  031A  3EFF               	addlw	-1
  4451  031B  1D03               	skipz
  4452  031C  2B18               	goto	u6645
  4453  031D  1003               	clrc
  4454  031E  0D69               	rlf	(??_vd_TraitementApplicatif+0)+0,w
  4455  031F  3EA2               	addlw	_st_EntreesVariateur+02h&0ffh
  4456  0320  0084               	movwf	fsr0
  4457  0321  301F               	movlw	((0 & ((1<<3)-1))<<5)|not (((1<<3)-1)<<5)
  4458  0322  0580               	andwf	indf,f
  4459                           	line	564
  4460                           ;traitement.c: 564: break;
  4461  0323  2C7C               	goto	l5576
  4462                           	line	569
  4463                           	
  4464  0324                     l5544:	
  4465                           ;traitement.c: 568: if ( (st_EntreesVariateur[l_uc_Compteur].ub3_EntreeMode == uc_MODE_T
                                 OR)
  4466                           ;traitement.c: 569: || (st_EntreesVariateur[l_uc_Compteur].ub3_EntreeMode == uc_MODE_SOF
                                 T_START))
  4467  0324  1683               	bsf	status, 5	;RP0=1, select bank3
  4468  0325  1703               	bsf	status, 6	;RP1=1, select bank3
  4469  0326  086D               	movf	(vd_TraitementApplicatif@l_uc_Compteur)^0180h,w
  4470  0327  1283               	bcf	status, 5	;RP0=0, select bank0
  4471  0328  1303               	bcf	status, 6	;RP1=0, select bank0
  4472  0329  00E9               	movwf	(??_vd_TraitementApplicatif+0)+0
  4473  032A  3001               	movlw	(02h)-1
  4474  032B                     u6655:
  4475  032B  1003               	clrc
  4476  032C  0DE9               	rlf	(??_vd_TraitementApplicatif+0)+0,f
  4477  032D  3EFF               	addlw	-1
  4478  032E  1D03               	skipz
  4479  032F  2B2B               	goto	u6655
  4480  0330  1003               	clrc
  4481  0331  0D69               	rlf	(??_vd_TraitementApplicatif+0)+0,w
  4482  0332  3EA2               	addlw	_st_EntreesVariateur+02h&0ffh
  4483  0333  0084               	movwf	fsr0
  4484  0334  0800               	movf	indf,w
  4485  0335  3907               	andlw	(1<<3)-1
  4486  0336  3A02               	xorlw	02h
  4487  0337  1903               	skipnz
  4488  0338  2B3A               	goto	u6661
  4489  0339  2B3B               	goto	u6660
  4490  033A                     u6661:
  4491  033A  2B52               	goto	l5548
  4492  033B                     u6660:
  4493                           	
  4494  033B                     l5546:	
  4495  033B  1683               	bsf	status, 5	;RP0=1, select bank3
  4496  033C  1703               	bsf	status, 6	;RP1=1, select bank3
  4497  033D  086D               	movf	(vd_TraitementApplicatif@l_uc_Compteur)^0180h,w
  4498  033E  1283               	bcf	status, 5	;RP0=0, select bank0
  4499  033F  1303               	bcf	status, 6	;RP1=0, select bank0
  4500  0340  00E9               	movwf	(??_vd_TraitementApplicatif+0)+0
  4501  0341  3001               	movlw	(02h)-1
  4502  0342                     u6675:
  4503  0342  1003               	clrc
  4504  0343  0DE9               	rlf	(??_vd_TraitementApplicatif+0)+0,f
  4505  0344  3EFF               	addlw	-1
  4506  0345  1D03               	skipz
  4507  0346  2B42               	goto	u6675
  4508  0347  1003               	clrc
  4509  0348  0D69               	rlf	(??_vd_TraitementApplicatif+0)+0,w
  4510  0349  3EA2               	addlw	_st_EntreesVariateur+02h&0ffh
  4511  034A  0084               	movwf	fsr0
  4512  034B  0800               	movf	indf,w
  4513  034C  3907               	andlw	(1<<3)-1
  4514  034D  3800               	iorlw	0
  4515  034E  1D03               	skipz
  4516  034F  2B51               	goto	u6681
  4517  0350  2B52               	goto	u6680
  4518  0351                     u6681:
  4519  0351  2B5B               	goto	l840
  4520  0352                     u6680:
  4521                           	line	571
  4522                           	
  4523  0352                     l5548:	
  4524                           ;traitement.c: 570: {
  4525                           ;traitement.c: 571: st_Variateurs[l_uc_Compteur].c_EclairageOld = 100;
  4526  0352  1683               	bsf	status, 5	;RP0=1, select bank3
  4527  0353  1703               	bsf	status, 6	;RP1=1, select bank3
  4528  0354  086D               	movf	(vd_TraitementApplicatif@l_uc_Compteur)^0180h,w
  4529  0355  076D               	addwf	(vd_TraitementApplicatif@l_uc_Compteur)^0180h,w
  4530  0356  076D               	addwf	(vd_TraitementApplicatif@l_uc_Compteur)^0180h,w
  4531  0357  3ED6               	addlw	_st_Variateurs+01h&0ffh
  4532  0358  0084               	movwf	fsr0
  4533  0359  3064               	movlw	(064h)
  4534  035A  0080               	movwf	indf
  4535                           	line	572
  4536                           	
  4537  035B                     l840:	
  4538                           	line	574
  4539                           ;traitement.c: 572: }
  4540                           ;traitement.c: 574: if (st_Variateurs[l_uc_Compteur].c_Eclairage > 0)
  4541  035B  1683               	bsf	status, 5	;RP0=1, select bank3
  4542  035C  1703               	bsf	status, 6	;RP1=1, select bank3
  4543  035D  086D               	movf	(vd_TraitementApplicatif@l_uc_Compteur)^0180h,w
  4544  035E  076D               	addwf	(vd_TraitementApplicatif@l_uc_Compteur)^0180h,w
  4545  035F  076D               	addwf	(vd_TraitementApplicatif@l_uc_Compteur)^0180h,w
  4546  0360  3ED5               	addlw	_st_Variateurs&0ffh
  4547  0361  0084               	movwf	fsr0
  4548  0362  0800               	movf	indf,w
  4549  0363  3A80               	xorlw	80h
  4550  0364  3E7F               	addlw	-((01h)^80h)
  4551  0365  1C03               	skipc
  4552  0366  2B68               	goto	u6691
  4553  0367  2B69               	goto	u6690
  4554  0368                     u6691:
  4555  0368  2B7F               	goto	l5552
  4556  0369                     u6690:
  4557                           	line	576
  4558                           	
  4559  0369                     l5550:	
  4560                           ;traitement.c: 575: {
  4561                           ;traitement.c: 576: st_Variateurs[l_uc_Compteur].c_Eclairage = 0;
  4562  0369  086D               	movf	(vd_TraitementApplicatif@l_uc_Compteur)^0180h,w
  4563  036A  076D               	addwf	(vd_TraitementApplicatif@l_uc_Compteur)^0180h,w
  4564  036B  076D               	addwf	(vd_TraitementApplicatif@l_uc_Compteur)^0180h,w
  4565  036C  3ED5               	addlw	_st_Variateurs&0ffh
  4566  036D  0084               	movwf	fsr0
  4567  036E  0180               	clrf	indf
  4568                           	line	577
  4569                           ;traitement.c: 577: st_EntreesVariateur[l_uc_Compteur].ub1_SensCommande = 0;
  4570  036F  086D               	movf	(vd_TraitementApplicatif@l_uc_Compteur)^0180h,w
  4571  0370  1283               	bcf	status, 5	;RP0=0, select bank0
  4572  0371  1303               	bcf	status, 6	;RP1=0, select bank0
  4573  0372  00E9               	movwf	(??_vd_TraitementApplicatif+0)+0
  4574  0373  3001               	movlw	(02h)-1
  4575  0374                     u6705:
  4576  0374  1003               	clrc
  4577  0375  0DE9               	rlf	(??_vd_TraitementApplicatif+0)+0,f
  4578  0376  3EFF               	addlw	-1
  4579  0377  1D03               	skipz
  4580  0378  2B74               	goto	u6705
  4581  0379  1003               	clrc
  4582  037A  0D69               	rlf	(??_vd_TraitementApplicatif+0)+0,w
  4583  037B  3EA3               	addlw	_st_EntreesVariateur+03h&0ffh
  4584  037C  0084               	movwf	fsr0
  4585  037D  1000               	bcf	indf,0
  4586                           	line	578
  4587                           ;traitement.c: 578: }
  4588  037E  2BB7               	goto	l844
  4589                           	line	581
  4590                           	
  4591  037F                     l5552:	
  4592                           ;traitement.c: 579: else
  4593                           ;traitement.c: 580: {
  4594                           ;traitement.c: 581: if (st_Variateurs[l_uc_Compteur].c_EclairageOld <=0)
  4595  037F  086D               	movf	(vd_TraitementApplicatif@l_uc_Compteur)^0180h,w
  4596  0380  076D               	addwf	(vd_TraitementApplicatif@l_uc_Compteur)^0180h,w
  4597  0381  076D               	addwf	(vd_TraitementApplicatif@l_uc_Compteur)^0180h,w
  4598  0382  3ED6               	addlw	_st_Variateurs+01h&0ffh
  4599  0383  0084               	movwf	fsr0
  4600  0384  0800               	movf	indf,w
  4601  0385  3A80               	xorlw	80h
  4602  0386  3E7F               	addlw	-((01h)^80h)
  4603  0387  1803               	skipnc
  4604  0388  2B8A               	goto	u6711
  4605  0389  2B8B               	goto	u6710
  4606  038A                     u6711:
  4607  038A  2B92               	goto	l845
  4608  038B                     u6710:
  4609                           	line	583
  4610                           	
  4611  038B                     l5554:	
  4612                           ;traitement.c: 583: st_Variateurs[l_uc_Compteur].c_EclairageOld = 100;
  4613  038B  086D               	movf	(vd_TraitementApplicatif@l_uc_Compteur)^0180h,w
  4614  038C  076D               	addwf	(vd_TraitementApplicatif@l_uc_Compteur)^0180h,w
  4615  038D  076D               	addwf	(vd_TraitementApplicatif@l_uc_Compteur)^0180h,w
  4616  038E  3ED6               	addlw	_st_Variateurs+01h&0ffh
  4617  038F  0084               	movwf	fsr0
  4618  0390  3064               	movlw	(064h)
  4619  0391  0080               	movwf	indf
  4620                           	
  4621  0392                     l845:	
  4622                           	line	585
  4623                           ;traitement.c: 585: st_Variateurs[l_uc_Compteur].c_Eclairage = st_Variateurs[l_uc_Compte
                                 ur].c_EclairageOld;
  4624  0392  086D               	movf	(vd_TraitementApplicatif@l_uc_Compteur)^0180h,w
  4625  0393  076D               	addwf	(vd_TraitementApplicatif@l_uc_Compteur)^0180h,w
  4626  0394  076D               	addwf	(vd_TraitementApplicatif@l_uc_Compteur)^0180h,w
  4627  0395  3ED6               	addlw	_st_Variateurs+01h&0ffh
  4628  0396  0084               	movwf	fsr0
  4629  0397  0800               	movf	indf,w
  4630  0398  1283               	bcf	status, 5	;RP0=0, select bank0
  4631  0399  1303               	bcf	status, 6	;RP1=0, select bank0
  4632  039A  00E9               	movwf	(??_vd_TraitementApplicatif+0)+0
  4633  039B  1683               	bsf	status, 5	;RP0=1, select bank3
  4634  039C  1703               	bsf	status, 6	;RP1=1, select bank3
  4635  039D  086D               	movf	(vd_TraitementApplicatif@l_uc_Compteur)^0180h,w
  4636  039E  076D               	addwf	(vd_TraitementApplicatif@l_uc_Compteur)^0180h,w
  4637  039F  076D               	addwf	(vd_TraitementApplicatif@l_uc_Compteur)^0180h,w
  4638  03A0  3ED5               	addlw	_st_Variateurs&0ffh
  4639  03A1  0084               	movwf	fsr0
  4640  03A2  1283               	bcf	status, 5	;RP0=0, select bank0
  4641  03A3  1303               	bcf	status, 6	;RP1=0, select bank0
  4642  03A4  0869               	movf	(??_vd_TraitementApplicatif+0)+0,w
  4643  03A5  0080               	movwf	indf
  4644                           	line	586
  4645                           ;traitement.c: 586: st_EntreesVariateur[l_uc_Compteur].ub1_SensCommande = 0;
  4646  03A6  1683               	bsf	status, 5	;RP0=1, select bank3
  4647  03A7  1703               	bsf	status, 6	;RP1=1, select bank3
  4648  03A8  086D               	movf	(vd_TraitementApplicatif@l_uc_Compteur)^0180h,w
  4649  03A9  1283               	bcf	status, 5	;RP0=0, select bank0
  4650  03AA  1303               	bcf	status, 6	;RP1=0, select bank0
  4651  03AB  00E9               	movwf	(??_vd_TraitementApplicatif+0)+0
  4652  03AC  3001               	movlw	(02h)-1
  4653  03AD                     u6725:
  4654  03AD  1003               	clrc
  4655  03AE  0DE9               	rlf	(??_vd_TraitementApplicatif+0)+0,f
  4656  03AF  3EFF               	addlw	-1
  4657  03B0  1D03               	skipz
  4658  03B1  2BAD               	goto	u6725
  4659  03B2  1003               	clrc
  4660  03B3  0D69               	rlf	(??_vd_TraitementApplicatif+0)+0,w
  4661  03B4  3EA3               	addlw	_st_EntreesVariateur+03h&0ffh
  4662  03B5  0084               	movwf	fsr0
  4663  03B6  1000               	bcf	indf,0
  4664                           	line	587
  4665                           	
  4666  03B7                     l844:	
  4667                           	line	590
  4668                           ;traitement.c: 587: }
  4669                           ;traitement.c: 590: st_EntreesVariateur[l_uc_Compteur].ub3_EtatCommande = uc_VARIATEUR_R
                                 IEN;
  4670  03B7  1683               	bsf	status, 5	;RP0=1, select bank3
  4671  03B8  1703               	bsf	status, 6	;RP1=1, select bank3
  4672  03B9  086D               	movf	(vd_TraitementApplicatif@l_uc_Compteur)^0180h,w
  4673  03BA  1283               	bcf	status, 5	;RP0=0, select bank0
  4674  03BB  1303               	bcf	status, 6	;RP1=0, select bank0
  4675  03BC  00E9               	movwf	(??_vd_TraitementApplicatif+0)+0
  4676  03BD  3001               	movlw	(02h)-1
  4677  03BE                     u6735:
  4678  03BE  1003               	clrc
  4679  03BF  0DE9               	rlf	(??_vd_TraitementApplicatif+0)+0,f
  4680  03C0  3EFF               	addlw	-1
  4681  03C1  1D03               	skipz
  4682  03C2  2BBE               	goto	u6735
  4683  03C3  1003               	clrc
  4684  03C4  0D69               	rlf	(??_vd_TraitementApplicatif+0)+0,w
  4685  03C5  3EA2               	addlw	_st_EntreesVariateur+02h&0ffh
  4686  03C6  0084               	movwf	fsr0
  4687  03C7  301F               	movlw	((0 & ((1<<3)-1))<<5)|not (((1<<3)-1)<<5)
  4688  03C8  0580               	andwf	indf,f
  4689                           	line	591
  4690                           ;traitement.c: 591: break;
  4691  03C9  2C7C               	goto	l5576
  4692                           	line	595
  4693                           	
  4694  03CA                     l5556:	
  4695                           ;traitement.c: 595: st_Variateurs[l_uc_Compteur].c_Eclairage = 100;
  4696  03CA  1683               	bsf	status, 5	;RP0=1, select bank3
  4697  03CB  1703               	bsf	status, 6	;RP1=1, select bank3
  4698  03CC  086D               	movf	(vd_TraitementApplicatif@l_uc_Compteur)^0180h,w
  4699  03CD  076D               	addwf	(vd_TraitementApplicatif@l_uc_Compteur)^0180h,w
  4700  03CE  076D               	addwf	(vd_TraitementApplicatif@l_uc_Compteur)^0180h,w
  4701  03CF  3ED5               	addlw	_st_Variateurs&0ffh
  4702  03D0  0084               	movwf	fsr0
  4703  03D1  3064               	movlw	(064h)
  4704  03D2  0080               	movwf	indf
  4705                           	line	596
  4706                           ;traitement.c: 596: st_EntreesVariateur[l_uc_Compteur].ub1_SensCommande = 1;
  4707  03D3  086D               	movf	(vd_TraitementApplicatif@l_uc_Compteur)^0180h,w
  4708  03D4  1283               	bcf	status, 5	;RP0=0, select bank0
  4709  03D5  1303               	bcf	status, 6	;RP1=0, select bank0
  4710  03D6  00E9               	movwf	(??_vd_TraitementApplicatif+0)+0
  4711  03D7  3001               	movlw	(02h)-1
  4712  03D8                     u6745:
  4713  03D8  1003               	clrc
  4714  03D9  0DE9               	rlf	(??_vd_TraitementApplicatif+0)+0,f
  4715  03DA  3EFF               	addlw	-1
  4716  03DB  1D03               	skipz
  4717  03DC  2BD8               	goto	u6745
  4718  03DD  1003               	clrc
  4719  03DE  0D69               	rlf	(??_vd_TraitementApplicatif+0)+0,w
  4720  03DF  3EA3               	addlw	_st_EntreesVariateur+03h&0ffh
  4721  03E0  0084               	movwf	fsr0
  4722  03E1  1400               	bsf	indf,0
  4723                           	line	599
  4724                           ;traitement.c: 599: st_EntreesVariateur[l_uc_Compteur].ub3_EtatCommande = uc_VARIATEUR_R
                                 IEN;
  4725  03E2  1683               	bsf	status, 5	;RP0=1, select bank3
  4726  03E3  1703               	bsf	status, 6	;RP1=1, select bank3
  4727  03E4  086D               	movf	(vd_TraitementApplicatif@l_uc_Compteur)^0180h,w
  4728  03E5  1283               	bcf	status, 5	;RP0=0, select bank0
  4729  03E6  1303               	bcf	status, 6	;RP1=0, select bank0
  4730  03E7  00E9               	movwf	(??_vd_TraitementApplicatif+0)+0
  4731  03E8  3001               	movlw	(02h)-1
  4732  03E9                     u6755:
  4733  03E9  1003               	clrc
  4734  03EA  0DE9               	rlf	(??_vd_TraitementApplicatif+0)+0,f
  4735  03EB  3EFF               	addlw	-1
  4736  03EC  1D03               	skipz
  4737  03ED  2BE9               	goto	u6755
  4738  03EE  1003               	clrc
  4739  03EF  0D69               	rlf	(??_vd_TraitementApplicatif+0)+0,w
  4740  03F0  3EA2               	addlw	_st_EntreesVariateur+02h&0ffh
  4741  03F1  0084               	movwf	fsr0
  4742  03F2  301F               	movlw	((0 & ((1<<3)-1))<<5)|not (((1<<3)-1)<<5)
  4743  03F3  0580               	andwf	indf,f
  4744                           	line	600
  4745                           ;traitement.c: 600: break;
  4746  03F4  2C7C               	goto	l5576
  4747                           	line	608
  4748                           	
  4749  03F5                     l5558:	
  4750                           ;traitement.c: 605: {
  4751                           ;traitement.c: 608: if (st_EntreesVariateur[l_uc_Compteur].ub1_SensCommande ==0)
  4752  03F5  1683               	bsf	status, 5	;RP0=1, select bank3
  4753  03F6  1703               	bsf	status, 6	;RP1=1, select bank3
  4754  03F7  086D               	movf	(vd_TraitementApplicatif@l_uc_Compteur)^0180h,w
  4755  03F8  1283               	bcf	status, 5	;RP0=0, select bank0
  4756  03F9  1303               	bcf	status, 6	;RP1=0, select bank0
  4757  03FA  00E9               	movwf	(??_vd_TraitementApplicatif+0)+0
  4758  03FB  3001               	movlw	(02h)-1
  4759  03FC                     u6765:
  4760  03FC  1003               	clrc
  4761  03FD  0DE9               	rlf	(??_vd_TraitementApplicatif+0)+0,f
  4762  03FE  3EFF               	addlw	-1
  4763  03FF  1D03               	skipz
  4764  0400  2BFC               	goto	u6765
  4765  0401  1003               	clrc
  4766  0402  0D69               	rlf	(??_vd_TraitementApplicatif+0)+0,w
  4767  0403  3EA3               	addlw	_st_EntreesVariateur+03h&0ffh
  4768  0404  0084               	movwf	fsr0
  4769  0405  1800               	btfsc	indf,0
  4770  0406  2C08               	goto	u6771
  4771  0407  2C09               	goto	u6770
  4772  0408                     u6771:
  4773  0408  2C26               	goto	l5566
  4774  0409                     u6770:
  4775                           	line	610
  4776                           	
  4777  0409                     l5560:	
  4778                           ;traitement.c: 609: {
  4779                           ;traitement.c: 610: if (st_Variateurs[l_uc_Compteur].c_Eclairage < (100-1))
  4780  0409  1683               	bsf	status, 5	;RP0=1, select bank3
  4781  040A  1703               	bsf	status, 6	;RP1=1, select bank3
  4782  040B  086D               	movf	(vd_TraitementApplicatif@l_uc_Compteur)^0180h,w
  4783  040C  076D               	addwf	(vd_TraitementApplicatif@l_uc_Compteur)^0180h,w
  4784  040D  076D               	addwf	(vd_TraitementApplicatif@l_uc_Compteur)^0180h,w
  4785  040E  3ED5               	addlw	_st_Variateurs&0ffh
  4786  040F  0084               	movwf	fsr0
  4787  0410  0800               	movf	indf,w
  4788  0411  3A80               	xorlw	80h
  4789  0412  3E1D               	addlw	-((063h)^80h)
  4790  0413  1803               	skipnc
  4791  0414  2C16               	goto	u6781
  4792  0415  2C17               	goto	u6780
  4793  0416                     u6781:
  4794  0416  2C1E               	goto	l5564
  4795  0417                     u6780:
  4796                           	line	611
  4797                           	
  4798  0417                     l5562:	
  4799                           ;traitement.c: 611: st_Variateurs[l_uc_Compteur].c_Eclairage += 1;
  4800  0417  086D               	movf	(vd_TraitementApplicatif@l_uc_Compteur)^0180h,w
  4801  0418  076D               	addwf	(vd_TraitementApplicatif@l_uc_Compteur)^0180h,w
  4802  0419  076D               	addwf	(vd_TraitementApplicatif@l_uc_Compteur)^0180h,w
  4803  041A  3ED5               	addlw	_st_Variateurs&0ffh
  4804  041B  0084               	movwf	fsr0
  4805  041C  0A80               	incf	indf,f
  4806  041D  2C41               	goto	l851
  4807                           	line	613
  4808                           	
  4809  041E                     l5564:	
  4810                           ;traitement.c: 612: else
  4811                           ;traitement.c: 613: st_Variateurs[l_uc_Compteur].c_Eclairage = 100;
  4812  041E  086D               	movf	(vd_TraitementApplicatif@l_uc_Compteur)^0180h,w
  4813  041F  076D               	addwf	(vd_TraitementApplicatif@l_uc_Compteur)^0180h,w
  4814  0420  076D               	addwf	(vd_TraitementApplicatif@l_uc_Compteur)^0180h,w
  4815  0421  3ED5               	addlw	_st_Variateurs&0ffh
  4816  0422  0084               	movwf	fsr0
  4817  0423  3064               	movlw	(064h)
  4818  0424  0080               	movwf	indf
  4819  0425  2C41               	goto	l851
  4820                           	line	621
  4821                           	
  4822  0426                     l5566:	
  4823                           ;traitement.c: 619: else
  4824                           ;traitement.c: 620: {
  4825                           ;traitement.c: 621: if (st_Variateurs[l_uc_Compteur].c_Eclairage > 1)
  4826  0426  1683               	bsf	status, 5	;RP0=1, select bank3
  4827  0427  1703               	bsf	status, 6	;RP1=1, select bank3
  4828  0428  086D               	movf	(vd_TraitementApplicatif@l_uc_Compteur)^0180h,w
  4829  0429  076D               	addwf	(vd_TraitementApplicatif@l_uc_Compteur)^0180h,w
  4830  042A  076D               	addwf	(vd_TraitementApplicatif@l_uc_Compteur)^0180h,w
  4831  042B  3ED5               	addlw	_st_Variateurs&0ffh
  4832  042C  0084               	movwf	fsr0
  4833  042D  0800               	movf	indf,w
  4834  042E  3A80               	xorlw	80h
  4835  042F  3E7E               	addlw	-((02h)^80h)
  4836  0430  1C03               	skipc
  4837  0431  2C33               	goto	u6791
  4838  0432  2C34               	goto	u6790
  4839  0433                     u6791:
  4840  0433  2C3B               	goto	l5570
  4841  0434                     u6790:
  4842                           	line	622
  4843                           	
  4844  0434                     l5568:	
  4845                           ;traitement.c: 622: st_Variateurs[l_uc_Compteur].c_Eclairage -= 1;
  4846  0434  086D               	movf	(vd_TraitementApplicatif@l_uc_Compteur)^0180h,w
  4847  0435  076D               	addwf	(vd_TraitementApplicatif@l_uc_Compteur)^0180h,w
  4848  0436  076D               	addwf	(vd_TraitementApplicatif@l_uc_Compteur)^0180h,w
  4849  0437  3ED5               	addlw	_st_Variateurs&0ffh
  4850  0438  0084               	movwf	fsr0
  4851  0439  0380               	decf	indf,f
  4852  043A  2C41               	goto	l851
  4853                           	line	624
  4854                           	
  4855  043B                     l5570:	
  4856                           ;traitement.c: 623: else
  4857                           ;traitement.c: 624: st_Variateurs[l_uc_Compteur].c_Eclairage = 0;
  4858  043B  086D               	movf	(vd_TraitementApplicatif@l_uc_Compteur)^0180h,w
  4859  043C  076D               	addwf	(vd_TraitementApplicatif@l_uc_Compteur)^0180h,w
  4860  043D  076D               	addwf	(vd_TraitementApplicatif@l_uc_Compteur)^0180h,w
  4861  043E  3ED5               	addlw	_st_Variateurs&0ffh
  4862  043F  0084               	movwf	fsr0
  4863  0440  0180               	clrf	indf
  4864                           	line	628
  4865                           	
  4866  0441                     l851:	
  4867                           	line	631
  4868                           ;traitement.c: 628: }
  4869                           ;traitement.c: 631: st_Variateurs[l_uc_Compteur].c_EclairageOld = st_Variateurs[l_uc_Com
                                 pteur].c_Eclairage;
  4870  0441  086D               	movf	(vd_TraitementApplicatif@l_uc_Compteur)^0180h,w
  4871  0442  076D               	addwf	(vd_TraitementApplicatif@l_uc_Compteur)^0180h,w
  4872  0443  076D               	addwf	(vd_TraitementApplicatif@l_uc_Compteur)^0180h,w
  4873  0444  3ED5               	addlw	_st_Variateurs&0ffh
  4874  0445  0084               	movwf	fsr0
  4875  0446  0800               	movf	indf,w
  4876  0447  1283               	bcf	status, 5	;RP0=0, select bank0
  4877  0448  1303               	bcf	status, 6	;RP1=0, select bank0
  4878  0449  00E9               	movwf	(??_vd_TraitementApplicatif+0)+0
  4879  044A  1683               	bsf	status, 5	;RP0=1, select bank3
  4880  044B  1703               	bsf	status, 6	;RP1=1, select bank3
  4881  044C  086D               	movf	(vd_TraitementApplicatif@l_uc_Compteur)^0180h,w
  4882  044D  076D               	addwf	(vd_TraitementApplicatif@l_uc_Compteur)^0180h,w
  4883  044E  076D               	addwf	(vd_TraitementApplicatif@l_uc_Compteur)^0180h,w
  4884  044F  3ED6               	addlw	_st_Variateurs+01h&0ffh
  4885  0450  0084               	movwf	fsr0
  4886  0451  1283               	bcf	status, 5	;RP0=0, select bank0
  4887  0452  1303               	bcf	status, 6	;RP1=0, select bank0
  4888  0453  0869               	movf	(??_vd_TraitementApplicatif+0)+0,w
  4889  0454  0080               	movwf	indf
  4890                           	line	634
  4891                           ;traitement.c: 633: }
  4892                           ;traitement.c: 634: break;
  4893  0455  2C7C               	goto	l5576
  4894                           	line	531
  4895                           	
  4896  0456                     l5574:	
  4897  0456  086D               	movf	(vd_TraitementApplicatif@l_uc_Compteur)^0180h,w
  4898  0457  1283               	bcf	status, 5	;RP0=0, select bank0
  4899  0458  1303               	bcf	status, 6	;RP1=0, select bank0
  4900  0459  00E9               	movwf	(??_vd_TraitementApplicatif+0)+0
  4901  045A  3001               	movlw	(02h)-1
  4902  045B                     u6805:
  4903  045B  1003               	clrc
  4904  045C  0DE9               	rlf	(??_vd_TraitementApplicatif+0)+0,f
  4905  045D  3EFF               	addlw	-1
  4906  045E  1D03               	skipz
  4907  045F  2C5B               	goto	u6805
  4908  0460  1003               	clrc
  4909  0461  0D69               	rlf	(??_vd_TraitementApplicatif+0)+0,w
  4910  0462  3EA2               	addlw	_st_EntreesVariateur+02h&0ffh
  4911  0463  0084               	movwf	fsr0
  4912  0464  1383               	bcf	status, 7	;select IRP bank1
  4913  0465  0E00               	swapf	indf,w
  4914  0466  00EA               	movwf	(??_vd_TraitementApplicatif+1)+0
  4915  0467  0C6A               	rrf	(??_vd_TraitementApplicatif+1)+0,w
  4916  0468  3907               	andlw	(1<<3)-1
  4917                           	; Switch size 1, requested type "space"
  4918                           ; Number of cases is 6, Range of values is 0 to 5
  4919                           ; switch strategies available:
  4920                           ; Name         Instructions Cycles
  4921                           ; simple_byte           19    10 (average)
  4922                           ; direct_byte           26     8 (fixed)
  4923                           ; jumptable            260     6 (fixed)
  4924                           ;	Chosen strategy is simple_byte
  4925                           
  4926                           	opt asmopt_off
  4927  0469  3A00               	xorlw	0^0	; case 0
  4928  046A  1903               	skipnz
  4929  046B  2C7C               	goto	l5576
  4930  046C  3A01               	xorlw	1^0	; case 1
  4931  046D  1903               	skipnz
  4932  046E  2A76               	goto	l5534
  4933  046F  3A03               	xorlw	2^1	; case 2
  4934  0470  1903               	skipnz
  4935  0471  2AA0               	goto	l5536
  4936  0472  3A01               	xorlw	3^2	; case 3
  4937  0473  1903               	skipnz
  4938  0474  2B24               	goto	l5544
  4939  0475  3A07               	xorlw	4^3	; case 4
  4940  0476  1903               	skipnz
  4941  0477  2BCA               	goto	l5556
  4942  0478  3A01               	xorlw	5^4	; case 5
  4943  0479  1903               	skipnz
  4944  047A  2BF5               	goto	l5558
  4945  047B  2C7C               	goto	l5576
  4946                           	opt asmopt_on
  4947                           
  4948                           	line	640
  4949                           	
  4950  047C                     l5576:	
  4951                           ;traitement.c: 640: if(st_Variateurs[l_uc_Compteur].c_Eclairage < 0) st_Variateurs[l_uc_
                                 Compteur].c_Eclairage = 0;
  4952  047C  1683               	bsf	status, 5	;RP0=1, select bank3
  4953  047D  1703               	bsf	status, 6	;RP1=1, select bank3
  4954  047E  086D               	movf	(vd_TraitementApplicatif@l_uc_Compteur)^0180h,w
  4955  047F  076D               	addwf	(vd_TraitementApplicatif@l_uc_Compteur)^0180h,w
  4956  0480  076D               	addwf	(vd_TraitementApplicatif@l_uc_Compteur)^0180h,w
  4957  0481  3ED5               	addlw	_st_Variateurs&0ffh
  4958  0482  0084               	movwf	fsr0
  4959  0483  1F80               	btfss	indf,7
  4960  0484  2C86               	goto	u6811
  4961  0485  2C87               	goto	u6810
  4962  0486                     u6811:
  4963  0486  2C8D               	goto	l854
  4964  0487                     u6810:
  4965                           	
  4966  0487                     l5578:	
  4967  0487  086D               	movf	(vd_TraitementApplicatif@l_uc_Compteur)^0180h,w
  4968  0488  076D               	addwf	(vd_TraitementApplicatif@l_uc_Compteur)^0180h,w
  4969  0489  076D               	addwf	(vd_TraitementApplicatif@l_uc_Compteur)^0180h,w
  4970  048A  3ED5               	addlw	_st_Variateurs&0ffh
  4971  048B  0084               	movwf	fsr0
  4972  048C  0180               	clrf	indf
  4973                           	
  4974  048D                     l854:	
  4975                           	line	641
  4976                           ;traitement.c: 641: if(st_Variateurs[l_uc_Compteur].c_Eclairage > 100) st_Variateurs[l_u
                                 c_Compteur].c_Eclairage = 100;
  4977  048D  086D               	movf	(vd_TraitementApplicatif@l_uc_Compteur)^0180h,w
  4978  048E  076D               	addwf	(vd_TraitementApplicatif@l_uc_Compteur)^0180h,w
  4979  048F  076D               	addwf	(vd_TraitementApplicatif@l_uc_Compteur)^0180h,w
  4980  0490  3ED5               	addlw	_st_Variateurs&0ffh
  4981  0491  0084               	movwf	fsr0
  4982  0492  0800               	movf	indf,w
  4983  0493  3A80               	xorlw	80h
  4984  0494  3E1B               	addlw	-((065h)^80h)
  4985  0495  1C03               	skipc
  4986  0496  2C98               	goto	u6821
  4987  0497  2C99               	goto	u6820
  4988  0498                     u6821:
  4989  0498  2CA0               	goto	l5582
  4990  0499                     u6820:
  4991                           	
  4992  0499                     l5580:	
  4993  0499  086D               	movf	(vd_TraitementApplicatif@l_uc_Compteur)^0180h,w
  4994  049A  076D               	addwf	(vd_TraitementApplicatif@l_uc_Compteur)^0180h,w
  4995  049B  076D               	addwf	(vd_TraitementApplicatif@l_uc_Compteur)^0180h,w
  4996  049C  3ED5               	addlw	_st_Variateurs&0ffh
  4997  049D  0084               	movwf	fsr0
  4998  049E  3064               	movlw	(064h)
  4999  049F  0080               	movwf	indf
  5000                           	line	644
  5001                           	
  5002  04A0                     l5582:	
  5003                           ;traitement.c: 644: if (st_Commandes.ub1.AllumeTout == 0)
  5004  04A0  1283               	bcf	status, 5	;RP0=0, select bank0
  5005  04A1  1303               	bcf	status, 6	;RP1=0, select bank0
  5006  04A2  193A               	btfsc	(_st_Commandes),2
  5007  04A3  2CA5               	goto	u6831
  5008  04A4  2CA6               	goto	u6830
  5009  04A5                     u6831:
  5010  04A5  2D48               	goto	l5600
  5011  04A6                     u6830:
  5012                           	line	658
  5013                           	
  5014  04A6                     l5584:	
  5015                           ;traitement.c: 645: {
  5016                           ;traitement.c: 658: if(st_Variateurs[l_uc_Compteur].c_Eclairage != st_Variateurs[l_uc_Co
                                 mpteur].c_Consigne)
  5017  04A6  1683               	bsf	status, 5	;RP0=1, select bank3
  5018  04A7  1703               	bsf	status, 6	;RP1=1, select bank3
  5019  04A8  086D               	movf	(vd_TraitementApplicatif@l_uc_Compteur)^0180h,w
  5020  04A9  076D               	addwf	(vd_TraitementApplicatif@l_uc_Compteur)^0180h,w
  5021  04AA  076D               	addwf	(vd_TraitementApplicatif@l_uc_Compteur)^0180h,w
  5022  04AB  3ED7               	addlw	_st_Variateurs+02h&0ffh
  5023  04AC  0084               	movwf	fsr
  5024  04AD  0800               	movf	indf,w
  5025  04AE  1283               	bcf	status, 5	;RP0=0, select bank0
  5026  04AF  1303               	bcf	status, 6	;RP1=0, select bank0
  5027  04B0  00E9               	movwf	(??_vd_TraitementApplicatif+0)+0
  5028  04B1  1683               	bsf	status, 5	;RP0=1, select bank3
  5029  04B2  1703               	bsf	status, 6	;RP1=1, select bank3
  5030  04B3  086D               	movf	(vd_TraitementApplicatif@l_uc_Compteur)^0180h,w
  5031  04B4  076D               	addwf	(vd_TraitementApplicatif@l_uc_Compteur)^0180h,w
  5032  04B5  076D               	addwf	(vd_TraitementApplicatif@l_uc_Compteur)^0180h,w
  5033  04B6  3ED5               	addlw	_st_Variateurs&0ffh
  5034  04B7  0084               	movwf	fsr0
  5035  04B8  0800               	movf	indf,w
  5036  04B9  1283               	bcf	status, 5	;RP0=0, select bank0
  5037  04BA  1303               	bcf	status, 6	;RP1=0, select bank0
  5038  04BB  0669               	xorwf	(??_vd_TraitementApplicatif+0)+0,w
  5039  04BC  1903               	skipnz
  5040  04BD  2CBF               	goto	u6841
  5041  04BE  2CC0               	goto	u6840
  5042  04BF                     u6841:
  5043  04BF  2DA0               	goto	l5612
  5044  04C0                     u6840:
  5045                           	line	660
  5046                           	
  5047  04C0                     l5586:	
  5048                           ;traitement.c: 659: {
  5049                           ;traitement.c: 660: st_Variateurs[l_uc_Compteur].c_Consigne = st_Variateurs[l_uc_Compteu
                                 r].c_Eclairage;
  5050  04C0  1683               	bsf	status, 5	;RP0=1, select bank3
  5051  04C1  1703               	bsf	status, 6	;RP1=1, select bank3
  5052  04C2  086D               	movf	(vd_TraitementApplicatif@l_uc_Compteur)^0180h,w
  5053  04C3  076D               	addwf	(vd_TraitementApplicatif@l_uc_Compteur)^0180h,w
  5054  04C4  076D               	addwf	(vd_TraitementApplicatif@l_uc_Compteur)^0180h,w
  5055  04C5  3ED5               	addlw	_st_Variateurs&0ffh
  5056  04C6  0084               	movwf	fsr0
  5057  04C7  0800               	movf	indf,w
  5058  04C8  1283               	bcf	status, 5	;RP0=0, select bank0
  5059  04C9  1303               	bcf	status, 6	;RP1=0, select bank0
  5060  04CA  00E9               	movwf	(??_vd_TraitementApplicatif+0)+0
  5061  04CB  1683               	bsf	status, 5	;RP0=1, select bank3
  5062  04CC  1703               	bsf	status, 6	;RP1=1, select bank3
  5063  04CD  086D               	movf	(vd_TraitementApplicatif@l_uc_Compteur)^0180h,w
  5064  04CE  076D               	addwf	(vd_TraitementApplicatif@l_uc_Compteur)^0180h,w
  5065  04CF  076D               	addwf	(vd_TraitementApplicatif@l_uc_Compteur)^0180h,w
  5066  04D0  3ED7               	addlw	_st_Variateurs+02h&0ffh
  5067  04D1  0084               	movwf	fsr0
  5068  04D2  1283               	bcf	status, 5	;RP0=0, select bank0
  5069  04D3  1303               	bcf	status, 6	;RP1=0, select bank0
  5070  04D4  0869               	movf	(??_vd_TraitementApplicatif+0)+0,w
  5071  04D5  0080               	movwf	indf
  5072                           	line	661
  5073                           ;traitement.c: 661: switch (st_EntreesVariateur[l_uc_Compteur].ub3_EntreeMode) {
  5074  04D6  2D2C               	goto	l5598
  5075                           	line	664
  5076                           	
  5077  04D7                     l5588:	
  5078                           ;traitement.c: 664: if (st_Variateurs[l_uc_Compteur].c_Eclairage < 20)
  5079  04D7  1683               	bsf	status, 5	;RP0=1, select bank3
  5080  04D8  1703               	bsf	status, 6	;RP1=1, select bank3
  5081  04D9  086D               	movf	(vd_TraitementApplicatif@l_uc_Compteur)^0180h,w
  5082  04DA  076D               	addwf	(vd_TraitementApplicatif@l_uc_Compteur)^0180h,w
  5083  04DB  076D               	addwf	(vd_TraitementApplicatif@l_uc_Compteur)^0180h,w
  5084  04DC  3ED5               	addlw	_st_Variateurs&0ffh
  5085  04DD  0084               	movwf	fsr0
  5086  04DE  0800               	movf	indf,w
  5087  04DF  3A80               	xorlw	80h
  5088  04E0  3E6C               	addlw	-((014h)^80h)
  5089  04E1  1803               	skipnc
  5090  04E2  2CE4               	goto	u6851
  5091  04E3  2CE5               	goto	u6850
  5092  04E4                     u6851:
  5093  04E4  2CFA               	goto	l5592
  5094  04E5                     u6850:
  5095                           	line	666
  5096                           	
  5097  04E5                     l5590:	
  5098                           ;traitement.c: 665: {
  5099                           ;traitement.c: 666: us_CdeVariateurs[l_uc_Compteur] = us_CodeVariateur (107);
  5100  04E5  306B               	movlw	(06Bh)
  5101  04E6  160A  118A  2004   	fcall	_us_CodeVariateur
              120A  118A         
  5102  04EB  1683               	bsf	status, 5	;RP0=1, select bank3
  5103  04EC  1703               	bsf	status, 6	;RP1=1, select bank3
  5104  04ED  1003               	clrc
  5105  04EE  0D6D               	rlf	(vd_TraitementApplicatif@l_uc_Compteur)^0180h,w
  5106  04EF  3EE1               	addlw	_us_CdeVariateurs&0ffh
  5107  04F0  0084               	movwf	fsr0
  5108  04F1  1283               	bcf	status, 5	;RP0=0, select bank0
  5109  04F2  1303               	bcf	status, 6	;RP1=0, select bank0
  5110  04F3  0854               	movf	(0+(?_us_CodeVariateur)),w
  5111  04F4  1383               	bcf	status, 7	;select IRP bank1
  5112  04F5  0080               	movwf	indf
  5113  04F6  0A84               	incf	fsr0,f
  5114  04F7  0855               	movf	(1+(?_us_CodeVariateur)),w
  5115  04F8  0080               	movwf	indf
  5116                           	line	667
  5117                           ;traitement.c: 667: }
  5118  04F9  2DA0               	goto	l5612
  5119                           	line	670
  5120                           	
  5121  04FA                     l5592:	
  5122                           ;traitement.c: 668: else
  5123                           ;traitement.c: 669: {
  5124                           ;traitement.c: 670: us_CdeVariateurs[l_uc_Compteur] = us_CodeVariateur (106);
  5125  04FA  306A               	movlw	(06Ah)
  5126  04FB  160A  118A  2004   	fcall	_us_CodeVariateur
              120A  118A         
  5127  0500  1683               	bsf	status, 5	;RP0=1, select bank3
  5128  0501  1703               	bsf	status, 6	;RP1=1, select bank3
  5129  0502  1003               	clrc
  5130  0503  0D6D               	rlf	(vd_TraitementApplicatif@l_uc_Compteur)^0180h,w
  5131  0504  3EE1               	addlw	_us_CdeVariateurs&0ffh
  5132  0505  0084               	movwf	fsr0
  5133  0506  1283               	bcf	status, 5	;RP0=0, select bank0
  5134  0507  1303               	bcf	status, 6	;RP1=0, select bank0
  5135  0508  0854               	movf	(0+(?_us_CodeVariateur)),w
  5136  0509  1383               	bcf	status, 7	;select IRP bank1
  5137  050A  0080               	movwf	indf
  5138  050B  0A84               	incf	fsr0,f
  5139  050C  0855               	movf	(1+(?_us_CodeVariateur)),w
  5140  050D  0080               	movwf	indf
  5141  050E  2DA0               	goto	l5612
  5142                           	line	677
  5143                           	
  5144  050F                     l5594:	
  5145                           ;traitement.c: 675: case uc_MODE_VARIATEUR :
  5146                           ;traitement.c: 677: us_CdeVariateurs[l_uc_Compteur] = us_CodeVariateur (st_Variateurs[l_
                                 uc_Compteur].c_Eclairage + 110);
  5147  050F  1683               	bsf	status, 5	;RP0=1, select bank3
  5148  0510  1703               	bsf	status, 6	;RP1=1, select bank3
  5149  0511  086D               	movf	(vd_TraitementApplicatif@l_uc_Compteur)^0180h,w
  5150  0512  076D               	addwf	(vd_TraitementApplicatif@l_uc_Compteur)^0180h,w
  5151  0513  076D               	addwf	(vd_TraitementApplicatif@l_uc_Compteur)^0180h,w
  5152  0514  3ED5               	addlw	_st_Variateurs&0ffh
  5153  0515  0084               	movwf	fsr0
  5154  0516  0800               	movf	indf,w
  5155  0517  3E6E               	addlw	06Eh
  5156  0518  160A  118A  2004   	fcall	_us_CodeVariateur
              120A  118A         
  5157  051D  1683               	bsf	status, 5	;RP0=1, select bank3
  5158  051E  1703               	bsf	status, 6	;RP1=1, select bank3
  5159  051F  1003               	clrc
  5160  0520  0D6D               	rlf	(vd_TraitementApplicatif@l_uc_Compteur)^0180h,w
  5161  0521  3EE1               	addlw	_us_CdeVariateurs&0ffh
  5162  0522  0084               	movwf	fsr0
  5163  0523  1283               	bcf	status, 5	;RP0=0, select bank0
  5164  0524  1303               	bcf	status, 6	;RP1=0, select bank0
  5165  0525  0854               	movf	(0+(?_us_CodeVariateur)),w
  5166  0526  1383               	bcf	status, 7	;select IRP bank1
  5167  0527  0080               	movwf	indf
  5168  0528  0A84               	incf	fsr0,f
  5169  0529  0855               	movf	(1+(?_us_CodeVariateur)),w
  5170  052A  0080               	movwf	indf
  5171                           	line	678
  5172                           ;traitement.c: 678: break;
  5173  052B  2DA0               	goto	l5612
  5174                           	line	661
  5175                           	
  5176  052C                     l5598:	
  5177  052C  1683               	bsf	status, 5	;RP0=1, select bank3
  5178  052D  1703               	bsf	status, 6	;RP1=1, select bank3
  5179  052E  086D               	movf	(vd_TraitementApplicatif@l_uc_Compteur)^0180h,w
  5180  052F  1283               	bcf	status, 5	;RP0=0, select bank0
  5181  0530  1303               	bcf	status, 6	;RP1=0, select bank0
  5182  0531  00E9               	movwf	(??_vd_TraitementApplicatif+0)+0
  5183  0532  3001               	movlw	(02h)-1
  5184  0533                     u6865:
  5185  0533  1003               	clrc
  5186  0534  0DE9               	rlf	(??_vd_TraitementApplicatif+0)+0,f
  5187  0535  3EFF               	addlw	-1
  5188  0536  1D03               	skipz
  5189  0537  2D33               	goto	u6865
  5190  0538  1003               	clrc
  5191  0539  0D69               	rlf	(??_vd_TraitementApplicatif+0)+0,w
  5192  053A  3EA2               	addlw	_st_EntreesVariateur+02h&0ffh
  5193  053B  0084               	movwf	fsr0
  5194  053C  0800               	movf	indf,w
  5195  053D  3907               	andlw	(1<<3)-1
  5196                           	; Switch size 1, requested type "space"
  5197                           ; Number of cases is 3, Range of values is 0 to 2
  5198                           ; switch strategies available:
  5199                           ; Name         Instructions Cycles
  5200                           ; simple_byte           10     6 (average)
  5201                           ; direct_byte           17     8 (fixed)
  5202                           ; jumptable            260     6 (fixed)
  5203                           ;	Chosen strategy is simple_byte
  5204                           
  5205                           	opt asmopt_off
  5206  053E  3A00               	xorlw	0^0	; case 0
  5207  053F  1903               	skipnz
  5208  0540  2D0F               	goto	l5594
  5209  0541  3A01               	xorlw	1^0	; case 1
  5210  0542  1903               	skipnz
  5211  0543  2D0F               	goto	l5594
  5212  0544  3A03               	xorlw	2^1	; case 2
  5213  0545  1903               	skipnz
  5214  0546  2CD7               	goto	l5588
  5215  0547  2DA0               	goto	l5612
  5216                           	opt asmopt_on
  5217                           
  5218                           	line	685
  5219                           	
  5220  0548                     l5600:	
  5221                           ;traitement.c: 682: else
  5222                           ;traitement.c: 683: {
  5223                           ;traitement.c: 685: if(st_Variateurs[l_uc_Compteur].c_Consigne != -1)
  5224  0548  1683               	bsf	status, 5	;RP0=1, select bank3
  5225  0549  1703               	bsf	status, 6	;RP1=1, select bank3
  5226  054A  086D               	movf	(vd_TraitementApplicatif@l_uc_Compteur)^0180h,w
  5227  054B  076D               	addwf	(vd_TraitementApplicatif@l_uc_Compteur)^0180h,w
  5228  054C  076D               	addwf	(vd_TraitementApplicatif@l_uc_Compteur)^0180h,w
  5229  054D  3ED7               	addlw	_st_Variateurs+02h&0ffh
  5230  054E  0084               	movwf	fsr0
  5231  054F  0A00               	incf	indf,w
  5232  0550  1903               	skipnz
  5233  0551  2D53               	goto	u6871
  5234  0552  2D54               	goto	u6870
  5235  0553                     u6871:
  5236  0553  2DA0               	goto	l5612
  5237  0554                     u6870:
  5238                           	line	687
  5239                           	
  5240  0554                     l5602:	
  5241                           ;traitement.c: 686: {
  5242                           ;traitement.c: 687: st_Variateurs[l_uc_Compteur].c_Consigne = -1;
  5243  0554  086D               	movf	(vd_TraitementApplicatif@l_uc_Compteur)^0180h,w
  5244  0555  076D               	addwf	(vd_TraitementApplicatif@l_uc_Compteur)^0180h,w
  5245  0556  076D               	addwf	(vd_TraitementApplicatif@l_uc_Compteur)^0180h,w
  5246  0557  3ED7               	addlw	_st_Variateurs+02h&0ffh
  5247  0558  0084               	movwf	fsr0
  5248  0559  0180               	clrf	indf
  5249  055A  0380               	decf	indf,f
  5250                           	line	688
  5251                           ;traitement.c: 688: switch (st_EntreesVariateur[l_uc_Compteur].ub3_EntreeMode) {
  5252  055B  2D86               	goto	l5610
  5253                           	line	691
  5254                           	
  5255  055C                     l5604:	
  5256                           ;traitement.c: 691: us_CdeVariateurs[l_uc_Compteur] = us_CodeVariateur (106);
  5257  055C  306A               	movlw	(06Ah)
  5258  055D  160A  118A  2004   	fcall	_us_CodeVariateur
              120A  118A         
  5259  0562  1683               	bsf	status, 5	;RP0=1, select bank3
  5260  0563  1703               	bsf	status, 6	;RP1=1, select bank3
  5261  0564  1003               	clrc
  5262  0565  0D6D               	rlf	(vd_TraitementApplicatif@l_uc_Compteur)^0180h,w
  5263  0566  3EE1               	addlw	_us_CdeVariateurs&0ffh
  5264  0567  0084               	movwf	fsr0
  5265  0568  1283               	bcf	status, 5	;RP0=0, select bank0
  5266  0569  1303               	bcf	status, 6	;RP1=0, select bank0
  5267  056A  0854               	movf	(0+(?_us_CodeVariateur)),w
  5268  056B  1383               	bcf	status, 7	;select IRP bank1
  5269  056C  0080               	movwf	indf
  5270  056D  0A84               	incf	fsr0,f
  5271  056E  0855               	movf	(1+(?_us_CodeVariateur)),w
  5272  056F  0080               	movwf	indf
  5273                           	line	692
  5274                           ;traitement.c: 692: break;
  5275  0570  2DA0               	goto	l5612
  5276                           	line	697
  5277                           	
  5278  0571                     l5606:	
  5279                           ;traitement.c: 695: case uc_MODE_VARIATEUR :
  5280                           ;traitement.c: 697: us_CdeVariateurs[l_uc_Compteur] = us_CodeVariateur (210);
  5281  0571  30D2               	movlw	(0D2h)
  5282  0572  160A  118A  2004   	fcall	_us_CodeVariateur
              120A  118A         
  5283  0577  1683               	bsf	status, 5	;RP0=1, select bank3
  5284  0578  1703               	bsf	status, 6	;RP1=1, select bank3
  5285  0579  1003               	clrc
  5286  057A  0D6D               	rlf	(vd_TraitementApplicatif@l_uc_Compteur)^0180h,w
  5287  057B  3EE1               	addlw	_us_CdeVariateurs&0ffh
  5288  057C  0084               	movwf	fsr0
  5289  057D  1283               	bcf	status, 5	;RP0=0, select bank0
  5290  057E  1303               	bcf	status, 6	;RP1=0, select bank0
  5291  057F  0854               	movf	(0+(?_us_CodeVariateur)),w
  5292  0580  1383               	bcf	status, 7	;select IRP bank1
  5293  0581  0080               	movwf	indf
  5294  0582  0A84               	incf	fsr0,f
  5295  0583  0855               	movf	(1+(?_us_CodeVariateur)),w
  5296  0584  0080               	movwf	indf
  5297                           	line	698
  5298                           ;traitement.c: 698: break;
  5299  0585  2DA0               	goto	l5612
  5300                           	line	688
  5301                           	
  5302  0586                     l5610:	
  5303  0586  086D               	movf	(vd_TraitementApplicatif@l_uc_Compteur)^0180h,w
  5304  0587  1283               	bcf	status, 5	;RP0=0, select bank0
  5305  0588  1303               	bcf	status, 6	;RP1=0, select bank0
  5306  0589  00E9               	movwf	(??_vd_TraitementApplicatif+0)+0
  5307  058A  3001               	movlw	(02h)-1
  5308  058B                     u6885:
  5309  058B  1003               	clrc
  5310  058C  0DE9               	rlf	(??_vd_TraitementApplicatif+0)+0,f
  5311  058D  3EFF               	addlw	-1
  5312  058E  1D03               	skipz
  5313  058F  2D8B               	goto	u6885
  5314  0590  1003               	clrc
  5315  0591  0D69               	rlf	(??_vd_TraitementApplicatif+0)+0,w
  5316  0592  3EA2               	addlw	_st_EntreesVariateur+02h&0ffh
  5317  0593  0084               	movwf	fsr0
  5318  0594  0800               	movf	indf,w
  5319  0595  3907               	andlw	(1<<3)-1
  5320                           	; Switch size 1, requested type "space"
  5321                           ; Number of cases is 3, Range of values is 0 to 2
  5322                           ; switch strategies available:
  5323                           ; Name         Instructions Cycles
  5324                           ; simple_byte           10     6 (average)
  5325                           ; direct_byte           17     8 (fixed)
  5326                           ; jumptable            260     6 (fixed)
  5327                           ;	Chosen strategy is simple_byte
  5328                           
  5329                           	opt asmopt_off
  5330  0596  3A00               	xorlw	0^0	; case 0
  5331  0597  1903               	skipnz
  5332  0598  2D71               	goto	l5606
  5333  0599  3A01               	xorlw	1^0	; case 1
  5334  059A  1903               	skipnz
  5335  059B  2D71               	goto	l5606
  5336  059C  3A03               	xorlw	2^1	; case 2
  5337  059D  1903               	skipnz
  5338  059E  2D5C               	goto	l5604
  5339  059F  2DA0               	goto	l5612
  5340                           	opt asmopt_on
  5341                           
  5342                           	line	508
  5343                           	
  5344  05A0                     l5612:	
  5345  05A0  1683               	bsf	status, 5	;RP0=1, select bank3
  5346  05A1  1703               	bsf	status, 6	;RP1=1, select bank3
  5347  05A2  0AED               	incf	(vd_TraitementApplicatif@l_uc_Compteur)^0180h,f
  5348                           	
  5349  05A3                     l5614:	
  5350  05A3  1283               	bcf	status, 5	;RP0=0, select bank0
  5351  05A4  1303               	bcf	status, 6	;RP1=0, select bank0
  5352  05A5  0847               	movf	(_uc_VARIATEUR_NB),w
  5353  05A6  1683               	bsf	status, 5	;RP0=1, select bank3
  5354  05A7  1703               	bsf	status, 6	;RP1=1, select bank3
  5355  05A8  026D               	subwf	(vd_TraitementApplicatif@l_uc_Compteur)^0180h,w
  5356  05A9  1C03               	skipc
  5357  05AA  2DAC               	goto	u6891
  5358  05AB  2DAD               	goto	u6890
  5359  05AC                     u6891:
  5360  05AC  2C56               	goto	l5574
  5361  05AD                     u6890:
  5362                           	line	706
  5363                           	
  5364  05AD                     l873:	
  5365  05AD  0008               	return
  5366                           	opt stack 0
  5367                           GLOBAL	__end_of_vd_TraitementApplicatif
  5368  05AE                     	__end_of_vd_TraitementApplicatif:
  5369                           	signat	_vd_TraitementApplicatif,88
  5370                           	global	_uc_StopVolet
  5371                           
  5372 ;; *************** function _uc_StopVolet *****************
  5373 ;; Defined at:
  5374 ;;		line 197 in file "../source/traitement.c"
  5375 ;; Parameters:    Size  Location     Type
  5376 ;;  uc_NumVolet     1    wreg     unsigned char 
  5377 ;;  mode            1    4[BANK0 ] enum E121
  5378 ;; Auto vars:     Size  Location     Type
  5379 ;;  uc_NumVolet     1    7[BANK0 ] unsigned char 
  5380 ;;  l_stop          1    6[BANK0 ] unsigned char 
  5381 ;; Return value:  Size  Location     Type
  5382 ;;                  1    wreg      unsigned char 
  5383 ;; Registers used:
  5384 ;;		wreg, fsr0l, fsr0h, status,2, status,0
  5385 ;; Tracked objects:
  5386 ;;		On entry : 60/60
  5387 ;;		On exit  : 60/0
  5388 ;;		Unchanged: 0/0
  5389 ;; Data sizes:     COMMON   BANK0   BANK3   BANK1   BANK2
  5390 ;;      Params:         0       1       0       0       0
  5391 ;;      Locals:         0       2       0       0       0
  5392 ;;      Temps:          0       1       0       0       0
  5393 ;;      Totals:         0       4       0       0       0
  5394 ;;Total ram usage:        4 bytes
  5395 ;; Hardware stack levels used:    1
  5396 ;; Hardware stack levels required when called:    4
  5397 ;; This function calls:
  5398 ;;		Nothing
  5399 ;; This function is called by:
  5400 ;;		_vd_TraitementApplicatif
  5401 ;; This function uses a non-reentrant model
  5402 ;;
  5403                           psect	text5,local,class=CODE,delta=2,merge=1
  5404                           	line	197
  5405                           global __ptext5
  5406  0811                     __ptext5:	;psect for function _uc_StopVolet
  5407                           psect	text5
  5408                           	file	"../source/traitement.c"
  5409                           	line	197
  5410                           	global	__size_of_uc_StopVolet
  5411  0054                     	__size_of_uc_StopVolet	equ	__end_of_uc_StopVolet-_uc_StopVolet
  5412                           	
  5413  0811                     _uc_StopVolet:	
  5414                           ;incstack = 0
  5415                           	opt	stack 2
  5416                           ; Regs used in _uc_StopVolet: [wreg-fsr0h+status,2+status,0]
  5417                           ;uc_StopVolet@uc_NumVolet stored from wreg
  5418  0811  1283               	bcf	status, 5	;RP0=0, select bank0
  5419  0812  1303               	bcf	status, 6	;RP1=0, select bank0
  5420  0813  00D7               	movwf	(uc_StopVolet@uc_NumVolet)
  5421                           	line	203
  5422                           	
  5423  0814                     l5662:	
  5424                           ;traitement.c: 199: static unsigned char s_uc_CompteurVolet[RB_NB/2];
  5425                           ;traitement.c: 201: unsigned char l_stop;
  5426                           ;traitement.c: 203: l_stop = 0;
  5427  0814  01D6               	clrf	(uc_StopVolet@l_stop)
  5428                           	line	205
  5429                           	
  5430  0815                     l5664:	
  5431                           ;traitement.c: 205: if ((uc_NumVolet >= uc_VOLET_NB) || (uc_NumVolet >= RB_NB/2))
  5432  0815  0848               	movf	(_uc_VOLET_NB),w
  5433  0816  0257               	subwf	(uc_StopVolet@uc_NumVolet),w
  5434  0817  1803               	skipnc
  5435  0818  281A               	goto	u6951
  5436  0819  281B               	goto	u6950
  5437  081A                     u6951:
  5438  081A  2821               	goto	l5668
  5439  081B                     u6950:
  5440                           	
  5441  081B                     l5666:	
  5442  081B  3006               	movlw	(06h)
  5443  081C  0257               	subwf	(uc_StopVolet@uc_NumVolet),w
  5444  081D  1C03               	skipc
  5445  081E  2820               	goto	u6961
  5446  081F  2821               	goto	u6960
  5447  0820                     u6961:
  5448  0820  2858               	goto	l5686
  5449  0821                     u6960:
  5450                           	line	206
  5451                           	
  5452  0821                     l5668:	
  5453                           ;traitement.c: 206: return (1);
  5454  0821  3001               	movlw	(01h)
  5455  0822  2864               	goto	l759
  5456                           	line	213
  5457                           	
  5458  0823                     l5672:	
  5459                           ;traitement.c: 213: if (uc_TempsCdeVolet[uc_NumVolet]==0)
  5460  0823  0857               	movf	(uc_StopVolet@uc_NumVolet),w
  5461  0824  3E20               	addlw	_uc_TempsCdeVolet&0ffh
  5462  0825  0084               	movwf	fsr0
  5463  0826  1383               	bcf	status, 7	;select IRP bank0
  5464  0827  0880               	movf	indf,f
  5465  0828  1D03               	skipz
  5466  0829  282B               	goto	u6971
  5467  082A  282C               	goto	u6970
  5468  082B                     u6971:
  5469  082B  2831               	goto	l762
  5470  082C                     u6970:
  5471                           	line	214
  5472                           	
  5473  082C                     l5674:	
  5474                           ;traitement.c: 214: uc_TempsCdeVolet[uc_NumVolet]= 2*60;
  5475  082C  0857               	movf	(uc_StopVolet@uc_NumVolet),w
  5476  082D  3E20               	addlw	_uc_TempsCdeVolet&0ffh
  5477  082E  0084               	movwf	fsr0
  5478  082F  3078               	movlw	(078h)
  5479  0830  0080               	movwf	indf
  5480                           	
  5481  0831                     l762:	
  5482                           	line	216
  5483                           ;traitement.c: 216: s_uc_CompteurVolet[uc_NumVolet] = uc_TempsCdeVolet[uc_NumVolet];
  5484  0831  0857               	movf	(uc_StopVolet@uc_NumVolet),w
  5485  0832  3E20               	addlw	_uc_TempsCdeVolet&0ffh
  5486  0833  0084               	movwf	fsr0
  5487  0834  0800               	movf	indf,w
  5488  0835  00D5               	movwf	(??_uc_StopVolet+0)+0
  5489  0836  0857               	movf	(uc_StopVolet@uc_NumVolet),w
  5490  0837  3EE9               	addlw	uc_StopVolet@s_uc_CompteurVolet&0ffh
  5491  0838  0084               	movwf	fsr0
  5492  0839  0855               	movf	(??_uc_StopVolet+0)+0,w
  5493  083A  0080               	movwf	indf
  5494                           	line	217
  5495                           ;traitement.c: 217: break;
  5496  083B  2863               	goto	l5688
  5497                           	line	220
  5498                           	
  5499  083C                     l5676:	
  5500                           ;traitement.c: 220: s_uc_CompteurVolet[uc_NumVolet] = 0;
  5501  083C  0857               	movf	(uc_StopVolet@uc_NumVolet),w
  5502  083D  3EE9               	addlw	uc_StopVolet@s_uc_CompteurVolet&0ffh
  5503  083E  0084               	movwf	fsr0
  5504  083F  1383               	bcf	status, 7	;select IRP bank1
  5505  0840  0180               	clrf	indf
  5506                           	line	221
  5507                           ;traitement.c: 221: break;
  5508  0841  2863               	goto	l5688
  5509                           	line	223
  5510                           	
  5511  0842                     l5678:	
  5512                           ;traitement.c: 223: if (s_uc_CompteurVolet[uc_NumVolet] >0)
  5513  0842  0857               	movf	(uc_StopVolet@uc_NumVolet),w
  5514  0843  3EE9               	addlw	uc_StopVolet@s_uc_CompteurVolet&0ffh
  5515  0844  0084               	movwf	fsr0
  5516  0845  1383               	bcf	status, 7	;select IRP bank1
  5517  0846  0880               	movf	indf
  5518  0847  1903               	skipnz
  5519  0848  284A               	goto	u6981
  5520  0849  284B               	goto	u6980
  5521  084A                     u6981:
  5522  084A  2855               	goto	l766
  5523  084B                     u6980:
  5524                           	line	225
  5525                           	
  5526  084B                     l5680:	
  5527                           ;traitement.c: 224: {
  5528                           ;traitement.c: 225: if (b1_BT_1S == 1)
  5529  084B  0331               	decf	(_b1_BT_1S),w
  5530  084C  1D03               	skipz
  5531  084D  284F               	goto	u6991
  5532  084E  2850               	goto	u6990
  5533  084F                     u6991:
  5534  084F  2863               	goto	l5688
  5535  0850                     u6990:
  5536                           	line	227
  5537                           	
  5538  0850                     l5682:	
  5539                           ;traitement.c: 226: {
  5540                           ;traitement.c: 227: s_uc_CompteurVolet[uc_NumVolet] --;
  5541  0850  0857               	movf	(uc_StopVolet@uc_NumVolet),w
  5542  0851  3EE9               	addlw	uc_StopVolet@s_uc_CompteurVolet&0ffh
  5543  0852  0084               	movwf	fsr0
  5544  0853  0380               	decf	indf,f
  5545  0854  2863               	goto	l5688
  5546                           	line	230
  5547                           	
  5548  0855                     l766:	
  5549                           	line	232
  5550                           ;traitement.c: 230: else
  5551                           ;traitement.c: 231: {
  5552                           ;traitement.c: 232: l_stop = 1;
  5553  0855  01D6               	clrf	(uc_StopVolet@l_stop)
  5554  0856  0AD6               	incf	(uc_StopVolet@l_stop),f
  5555  0857  2863               	goto	l5688
  5556                           	line	208
  5557                           	
  5558  0858                     l5686:	
  5559  0858  0854               	movf	(uc_StopVolet@mode),w
  5560                           	; Switch size 1, requested type "space"
  5561                           ; Number of cases is 3, Range of values is 0 to 2
  5562                           ; switch strategies available:
  5563                           ; Name         Instructions Cycles
  5564                           ; simple_byte           10     6 (average)
  5565                           ; direct_byte           17     8 (fixed)
  5566                           ; jumptable            260     6 (fixed)
  5567                           ;	Chosen strategy is simple_byte
  5568                           
  5569                           	opt asmopt_off
  5570  0859  3A00               	xorlw	0^0	; case 0
  5571  085A  1903               	skipnz
  5572  085B  2823               	goto	l5672
  5573  085C  3A01               	xorlw	1^0	; case 1
  5574  085D  1903               	skipnz
  5575  085E  283C               	goto	l5676
  5576  085F  3A03               	xorlw	2^1	; case 2
  5577  0860  1903               	skipnz
  5578  0861  2842               	goto	l5678
  5579  0862  2863               	goto	l5688
  5580                           	opt asmopt_on
  5581                           
  5582                           	line	236
  5583                           	
  5584  0863                     l5688:	
  5585                           ;traitement.c: 236: return (l_stop);
  5586  0863  0856               	movf	(uc_StopVolet@l_stop),w
  5587                           	line	237
  5588                           	
  5589  0864                     l759:	
  5590  0864  0008               	return
  5591                           	opt stack 0
  5592                           GLOBAL	__end_of_uc_StopVolet
  5593  0865                     	__end_of_uc_StopVolet:
  5594                           	signat	_uc_StopVolet,8313
  5595                           	global	_uc_EteintLampe
  5596                           
  5597 ;; *************** function _uc_EteintLampe *****************
  5598 ;; Defined at:
  5599 ;;		line 134 in file "../source/traitement.c"
  5600 ;; Parameters:    Size  Location     Type
  5601 ;;  uc_Num_Lampe    1    wreg     unsigned char 
  5602 ;;  us_Etat_Lamp    2   17[BANK0 ] unsigned short 
  5603 ;; Auto vars:     Size  Location     Type
  5604 ;;  uc_Num_Lampe    1   24[BANK0 ] unsigned char 
  5605 ;;  l_ul_Valeur     4   20[BANK0 ] unsigned long 
  5606 ;;  l_stop          1   19[BANK0 ] unsigned char 
  5607 ;; Return value:  Size  Location     Type
  5608 ;;                  1    wreg      unsigned char 
  5609 ;; Registers used:
  5610 ;;		wreg, fsr0l, fsr0h, status,2, status,0, pclath, cstack
  5611 ;; Tracked objects:
  5612 ;;		On entry : 60/60
  5613 ;;		On exit  : 60/0
  5614 ;;		Unchanged: 0/0
  5615 ;; Data sizes:     COMMON   BANK0   BANK3   BANK1   BANK2
  5616 ;;      Params:         0       2       0       0       0
  5617 ;;      Locals:         0       6       0       0       0
  5618 ;;      Temps:          0       0       0       0       0
  5619 ;;      Totals:         0       8       0       0       0
  5620 ;;Total ram usage:        8 bytes
  5621 ;; Hardware stack levels used:    1
  5622 ;; Hardware stack levels required when called:    5
  5623 ;; This function calls:
  5624 ;;		___lldiv
  5625 ;;		___lmul
  5626 ;;		___wmul
  5627 ;; This function is called by:
  5628 ;;		_vd_TraitementApplicatif
  5629 ;; This function uses a non-reentrant model
  5630 ;;
  5631                           psect	text6,local,class=CODE,delta=2,merge=1
  5632                           	line	134
  5633                           global __ptext6
  5634  16AB                     __ptext6:	;psect for function _uc_EteintLampe
  5635                           psect	text6
  5636                           	file	"../source/traitement.c"
  5637                           	line	134
  5638                           	global	__size_of_uc_EteintLampe
  5639  00A5                     	__size_of_uc_EteintLampe	equ	__end_of_uc_EteintLampe-_uc_EteintLampe
  5640                           	
  5641  16AB                     _uc_EteintLampe:	
  5642                           ;incstack = 0
  5643                           	opt	stack 1
  5644                           ; Regs used in _uc_EteintLampe: [wreg-fsr0h+status,2+status,0+pclath+cstack]
  5645                           ;uc_EteintLampe@uc_Num_Lampe stored from wreg
  5646  16AB  1283               	bcf	status, 5	;RP0=0, select bank0
  5647  16AC  1303               	bcf	status, 6	;RP1=0, select bank0
  5648  16AD  00E8               	movwf	(uc_EteintLampe@uc_Num_Lampe)
  5649                           	line	141
  5650                           	
  5651  16AE                     l5630:	
  5652                           ;traitement.c: 136: static unsigned short s_us_CompteurLampe[RM_NB];
  5653                           ;traitement.c: 137: unsigned long l_ul_Valeur;
  5654                           ;traitement.c: 139: unsigned char l_stop;
  5655                           ;traitement.c: 141: l_stop = 0;
  5656  16AE  01E3               	clrf	(uc_EteintLampe@l_stop)
  5657                           	line	143
  5658                           	
  5659  16AF                     l5632:	
  5660                           ;traitement.c: 143: if ((uc_Num_Lampe >= uc_RM_NB) || (uc_Num_Lampe >= RM_NB))
  5661  16AF  0846               	movf	(_uc_RM_NB),w
  5662  16B0  0268               	subwf	(uc_EteintLampe@uc_Num_Lampe),w
  5663  16B1  1803               	skipnc
  5664  16B2  2EB4               	goto	u6901
  5665  16B3  2EB5               	goto	u6900
  5666  16B4                     u6901:
  5667  16B4  2EBB               	goto	l5636
  5668  16B5                     u6900:
  5669                           	
  5670  16B5                     l5634:	
  5671  16B5  300D               	movlw	(0Dh)
  5672  16B6  0268               	subwf	(uc_EteintLampe@uc_Num_Lampe),w
  5673  16B7  1C03               	skipc
  5674  16B8  2EBA               	goto	u6911
  5675  16B9  2EBB               	goto	u6910
  5676  16BA                     u6911:
  5677  16BA  2EBD               	goto	l5640
  5678  16BB                     u6910:
  5679                           	line	144
  5680                           	
  5681  16BB                     l5636:	
  5682                           ;traitement.c: 144: return (l_stop);
  5683  16BB  3000               	movlw	(0)
  5684  16BC  2F4F               	goto	l746
  5685                           	line	146
  5686                           	
  5687  16BD                     l5640:	
  5688                           ;traitement.c: 146: if (us_Etat_Lampe == 0)
  5689  16BD  0862               	movf	((uc_EteintLampe@us_Etat_Lampe+1)),w
  5690  16BE  0461               	iorwf	((uc_EteintLampe@us_Etat_Lampe)),w
  5691  16BF  1D03               	skipz
  5692  16C0  2EC2               	goto	u6921
  5693  16C1  2EC3               	goto	u6920
  5694  16C2                     u6921:
  5695  16C2  2ECC               	goto	l5644
  5696  16C3                     u6920:
  5697                           	line	149
  5698                           	
  5699  16C3                     l5642:	
  5700                           ;traitement.c: 147: {
  5701                           ;traitement.c: 149: s_us_CompteurLampe[uc_Num_Lampe] = 0;
  5702  16C3  1003               	clrc
  5703  16C4  0D68               	rlf	(uc_EteintLampe@uc_Num_Lampe),w
  5704  16C5  3EA0               	addlw	uc_EteintLampe@s_us_CompteurLampe&0ffh
  5705  16C6  0084               	movwf	fsr0
  5706  16C7  1783               	bsf	status, 7	;select IRP bank3
  5707  16C8  0180               	clrf	indf
  5708  16C9  0A84               	incf	fsr0,f
  5709  16CA  0180               	clrf	indf
  5710                           	line	150
  5711                           ;traitement.c: 150: }
  5712  16CB  2F4E               	goto	l5658
  5713                           	line	154
  5714                           	
  5715  16CC                     l5644:	
  5716                           ;traitement.c: 151: else
  5717                           ;traitement.c: 152: {
  5718                           ;traitement.c: 154: if (s_us_CompteurLampe[uc_Num_Lampe] >0)
  5719  16CC  1003               	clrc
  5720  16CD  0D68               	rlf	(uc_EteintLampe@uc_Num_Lampe),w
  5721  16CE  3EA0               	addlw	uc_EteintLampe@s_us_CompteurLampe&0ffh
  5722  16CF  0084               	movwf	fsr0
  5723  16D0  1783               	bsf	status, 7	;select IRP bank3
  5724  16D1  0800               	movf	indf,w
  5725  16D2  0A84               	incf	fsr0,f
  5726  16D3  0400               	iorwf	indf,w
  5727  16D4  1903               	skipnz
  5728  16D5  2ED7               	goto	u6931
  5729  16D6  2ED8               	goto	u6930
  5730  16D7                     u6931:
  5731  16D7  2EF2               	goto	l5650
  5732  16D8                     u6930:
  5733                           	line	156
  5734                           	
  5735  16D8                     l5646:	
  5736                           ;traitement.c: 155: {
  5737                           ;traitement.c: 156: s_us_CompteurLampe[uc_Num_Lampe] --;
  5738  16D8  1003               	clrc
  5739  16D9  0D68               	rlf	(uc_EteintLampe@uc_Num_Lampe),w
  5740  16DA  3EA0               	addlw	uc_EteintLampe@s_us_CompteurLampe&0ffh
  5741  16DB  0084               	movwf	fsr0
  5742  16DC  3001               	movlw	low(01h)
  5743  16DD  0280               	subwf	indf,f
  5744  16DE  0F84               	incfsz	fsr0,f
  5745  16DF  3000               	movlw	high(01h)
  5746  16E0  1C03               	skipc
  5747  16E1  0380               	decf	indf,f
  5748  16E2  0280               	subwf	indf,f
  5749  16E3  0384               	decf	fsr0,f
  5750                           	line	157
  5751                           ;traitement.c: 157: if (s_us_CompteurLampe[uc_Num_Lampe] ==0)
  5752  16E4  1003               	clrc
  5753  16E5  0D68               	rlf	(uc_EteintLampe@uc_Num_Lampe),w
  5754  16E6  3EA0               	addlw	uc_EteintLampe@s_us_CompteurLampe&0ffh
  5755  16E7  0084               	movwf	fsr0
  5756  16E8  0800               	movf	indf,w
  5757  16E9  0A84               	incf	fsr0,f
  5758  16EA  0400               	iorwf	indf,w
  5759  16EB  1D03               	skipz
  5760  16EC  2EEE               	goto	u6941
  5761  16ED  2EEF               	goto	u6940
  5762  16EE                     u6941:
  5763  16EE  2F4E               	goto	l5658
  5764  16EF                     u6940:
  5765                           	line	160
  5766                           	
  5767  16EF                     l5648:	
  5768                           ;traitement.c: 158: {
  5769                           ;traitement.c: 160: l_stop = 1;
  5770  16EF  01E3               	clrf	(uc_EteintLampe@l_stop)
  5771  16F0  0AE3               	incf	(uc_EteintLampe@l_stop),f
  5772  16F1  2F4E               	goto	l5658
  5773                           	line	166
  5774                           	
  5775  16F2                     l5650:	
  5776                           ;traitement.c: 163: else
  5777                           ;traitement.c: 164: {
  5778                           ;traitement.c: 166: l_ul_Valeur = (unsigned long)(uc_TempsCdeLampe[uc_Num_Lampe] * 60);
  5779  16F2  0868               	movf	(uc_EteintLampe@uc_Num_Lampe),w
  5780  16F3  3EB0               	addlw	_uc_TempsCdeLampe&0ffh
  5781  16F4  0084               	movwf	fsr0
  5782  16F5  1383               	bcf	status, 7	;select IRP bank1
  5783  16F6  0800               	movf	indf,w
  5784  16F7  00D4               	movwf	(___wmul@multiplier)
  5785  16F8  01D5               	clrf	(___wmul@multiplier+1)
  5786  16F9  303C               	movlw	03Ch
  5787  16FA  00D6               	movwf	(___wmul@multiplicand)
  5788  16FB  01D7               	clrf	(___wmul@multiplicand+1)
  5789  16FC  160A  118A  2056   	fcall	___wmul
              160A  118A         
  5790  1701  0854               	movf	(0+(?___wmul)),w
  5791  1702  00E4               	movwf	(uc_EteintLampe@l_ul_Valeur)
  5792  1703  0855               	movf	(1+(?___wmul)),w
  5793  1704  00E5               	movwf	(uc_EteintLampe@l_ul_Valeur+1)
  5794  1705  3000               	movlw	0
  5795  1706  1BE5               	btfsc	(uc_EteintLampe@l_ul_Valeur+1),7
  5796  1707  30FF               	movlw	255
  5797  1708  00E6               	movwf	(uc_EteintLampe@l_ul_Valeur+2)
  5798  1709  00E7               	movwf	(uc_EteintLampe@l_ul_Valeur+3)
  5799                           	line	173
  5800                           	
  5801  170A                     l5652:	
  5802                           ;traitement.c: 173: l_ul_Valeur = l_ul_Valeur * 994;
  5803  170A  3000               	movlw	0
  5804  170B  00D7               	movwf	(___lmul@multiplier+3)
  5805  170C  3000               	movlw	0
  5806  170D  00D6               	movwf	(___lmul@multiplier+2)
  5807  170E  3003               	movlw	03h
  5808  170F  00D5               	movwf	(___lmul@multiplier+1)
  5809  1710  30E2               	movlw	0E2h
  5810  1711  00D4               	movwf	(___lmul@multiplier)
  5811                           
  5812  1712  0867               	movf	(uc_EteintLampe@l_ul_Valeur+3),w
  5813  1713  00DB               	movwf	(___lmul@multiplicand+3)
  5814  1714  0866               	movf	(uc_EteintLampe@l_ul_Valeur+2),w
  5815  1715  00DA               	movwf	(___lmul@multiplicand+2)
  5816  1716  0865               	movf	(uc_EteintLampe@l_ul_Valeur+1),w
  5817  1717  00D9               	movwf	(___lmul@multiplicand+1)
  5818  1718  0864               	movf	(uc_EteintLampe@l_ul_Valeur),w
  5819  1719  00D8               	movwf	(___lmul@multiplicand)
  5820                           
  5821  171A  160A  118A  21A3   	fcall	___lmul
              160A  118A         
  5822  171F  0857               	movf	(3+(?___lmul)),w
  5823  1720  00E7               	movwf	(uc_EteintLampe@l_ul_Valeur+3)
  5824  1721  0856               	movf	(2+(?___lmul)),w
  5825  1722  00E6               	movwf	(uc_EteintLampe@l_ul_Valeur+2)
  5826  1723  0855               	movf	(1+(?___lmul)),w
  5827  1724  00E5               	movwf	(uc_EteintLampe@l_ul_Valeur+1)
  5828  1725  0854               	movf	(0+(?___lmul)),w
  5829  1726  00E4               	movwf	(uc_EteintLampe@l_ul_Valeur)
  5830                           
  5831                           	line	174
  5832                           	
  5833  1727                     l5654:	
  5834                           ;traitement.c: 174: l_ul_Valeur = l_ul_Valeur / 1000;
  5835  1727  3000               	movlw	0
  5836  1728  00D7               	movwf	(___lldiv@divisor+3)
  5837  1729  3000               	movlw	0
  5838  172A  00D6               	movwf	(___lldiv@divisor+2)
  5839  172B  3003               	movlw	03h
  5840  172C  00D5               	movwf	(___lldiv@divisor+1)
  5841  172D  30E8               	movlw	0E8h
  5842  172E  00D4               	movwf	(___lldiv@divisor)
  5843                           
  5844  172F  0867               	movf	(uc_EteintLampe@l_ul_Valeur+3),w
  5845  1730  00DB               	movwf	(___lldiv@dividend+3)
  5846  1731  0866               	movf	(uc_EteintLampe@l_ul_Valeur+2),w
  5847  1732  00DA               	movwf	(___lldiv@dividend+2)
  5848  1733  0865               	movf	(uc_EteintLampe@l_ul_Valeur+1),w
  5849  1734  00D9               	movwf	(___lldiv@dividend+1)
  5850  1735  0864               	movf	(uc_EteintLampe@l_ul_Valeur),w
  5851  1736  00D8               	movwf	(___lldiv@dividend)
  5852                           
  5853  1737  160A  118A  23B2   	fcall	___lldiv
              160A  118A         
  5854  173C  0857               	movf	(3+(?___lldiv)),w
  5855  173D  00E7               	movwf	(uc_EteintLampe@l_ul_Valeur+3)
  5856  173E  0856               	movf	(2+(?___lldiv)),w
  5857  173F  00E6               	movwf	(uc_EteintLampe@l_ul_Valeur+2)
  5858  1740  0855               	movf	(1+(?___lldiv)),w
  5859  1741  00E5               	movwf	(uc_EteintLampe@l_ul_Valeur+1)
  5860  1742  0854               	movf	(0+(?___lldiv)),w
  5861  1743  00E4               	movwf	(uc_EteintLampe@l_ul_Valeur)
  5862                           
  5863                           	line	176
  5864                           	
  5865  1744                     l5656:	
  5866                           ;traitement.c: 176: s_us_CompteurLampe[uc_Num_Lampe] = (unsigned short)l_ul_Valeur;
  5867  1744  1003               	clrc
  5868  1745  0D68               	rlf	(uc_EteintLampe@uc_Num_Lampe),w
  5869  1746  3EA0               	addlw	uc_EteintLampe@s_us_CompteurLampe&0ffh
  5870  1747  0084               	movwf	fsr0
  5871  1748  0864               	movf	(uc_EteintLampe@l_ul_Valeur),w
  5872  1749  1783               	bsf	status, 7	;select IRP bank3
  5873  174A  0080               	movwf	indf
  5874  174B  0A84               	incf	fsr0,f
  5875  174C  0865               	movf	(uc_EteintLampe@l_ul_Valeur+1),w
  5876  174D  0080               	movwf	indf
  5877                           	line	179
  5878                           	
  5879  174E                     l5658:	
  5880                           ;traitement.c: 177: }
  5881                           ;traitement.c: 178: }
  5882                           ;traitement.c: 179: return (l_stop);
  5883  174E  0863               	movf	(uc_EteintLampe@l_stop),w
  5884                           	line	180
  5885                           	
  5886  174F                     l746:	
  5887  174F  0008               	return
  5888                           	opt stack 0
  5889                           GLOBAL	__end_of_uc_EteintLampe
  5890  1750                     	__end_of_uc_EteintLampe:
  5891                           	signat	_uc_EteintLampe,8313
  5892                           	global	___wmul
  5893                           
  5894 ;; *************** function ___wmul *****************
  5895 ;; Defined at:
  5896 ;;		line 4 in file "C:\Program Files (x86)\Microchip\xc8\v1.30\sources\common\wmul.c"
  5897 ;; Parameters:    Size  Location     Type
  5898 ;;  multiplier      2    4[BANK0 ] unsigned int 
  5899 ;;  multiplicand    2    6[BANK0 ] unsigned int 
  5900 ;; Auto vars:     Size  Location     Type
  5901 ;;  product         2    8[BANK0 ] unsigned int 
  5902 ;; Return value:  Size  Location     Type
  5903 ;;                  2    4[BANK0 ] unsigned int 
  5904 ;; Registers used:
  5905 ;;		wreg, status,2, status,0
  5906 ;; Tracked objects:
  5907 ;;		On entry : 160/0
  5908 ;;		On exit  : 160/0
  5909 ;;		Unchanged: 100/0
  5910 ;; Data sizes:     COMMON   BANK0   BANK3   BANK1   BANK2
  5911 ;;      Params:         0       4       0       0       0
  5912 ;;      Locals:         0       2       0       0       0
  5913 ;;      Temps:          0       0       0       0       0
  5914 ;;      Totals:         0       6       0       0       0
  5915 ;;Total ram usage:        6 bytes
  5916 ;; Hardware stack levels used:    1
  5917 ;; Hardware stack levels required when called:    4
  5918 ;; This function calls:
  5919 ;;		Nothing
  5920 ;; This function is called by:
  5921 ;;		_uc_EteintLampe
  5922 ;; This function uses a non-reentrant model
  5923 ;;
  5924                           psect	text7,local,class=CODE,delta=2,merge=1
  5925                           	file	"C:\Program Files (x86)\Microchip\xc8\v1.30\sources\common\wmul.c"
  5926                           	line	4
  5927                           global __ptext7
  5928  1056                     __ptext7:	;psect for function ___wmul
  5929                           psect	text7
  5930                           	file	"C:\Program Files (x86)\Microchip\xc8\v1.30\sources\common\wmul.c"
  5931                           	line	4
  5932                           	global	__size_of___wmul
  5933  001D                     	__size_of___wmul	equ	__end_of___wmul-___wmul
  5934                           	
  5935  1056                     ___wmul:	
  5936                           ;incstack = 0
  5937                           	opt	stack 1
  5938                           ; Regs used in ___wmul: [wreg+status,2+status,0]
  5939                           	line	20
  5940                           	
  5941  1056                     l5754:	
  5942  1056  01D8               	clrf	(___wmul@product)
  5943  1057  01D9               	clrf	(___wmul@product+1)
  5944                           	line	22
  5945                           	
  5946  1058                     l5756:	
  5947  1058  1C54               	btfss	(___wmul@multiplier),(0)&7
  5948  1059  285B               	goto	u7101
  5949  105A  285C               	goto	u7100
  5950  105B                     u7101:
  5951  105B  2862               	goto	l5760
  5952  105C                     u7100:
  5953                           	line	23
  5954                           	
  5955  105C                     l5758:	
  5956  105C  0856               	movf	(___wmul@multiplicand),w
  5957  105D  07D8               	addwf	(___wmul@product),f
  5958  105E  1803               	skipnc
  5959  105F  0AD9               	incf	(___wmul@product+1),f
  5960  1060  0857               	movf	(___wmul@multiplicand+1),w
  5961  1061  07D9               	addwf	(___wmul@product+1),f
  5962                           	line	24
  5963                           	
  5964  1062                     l5760:	
  5965  1062  1003               	clrc
  5966  1063  0DD6               	rlf	(___wmul@multiplicand),f
  5967  1064  0DD7               	rlf	(___wmul@multiplicand+1),f
  5968                           	line	25
  5969                           	
  5970  1065                     l5762:	
  5971  1065  1003               	clrc
  5972  1066  0CD5               	rrf	(___wmul@multiplier+1),f
  5973  1067  0CD4               	rrf	(___wmul@multiplier),f
  5974                           	line	26
  5975                           	
  5976  1068                     l5764:	
  5977  1068  0855               	movf	((___wmul@multiplier+1)),w
  5978  1069  0454               	iorwf	((___wmul@multiplier)),w
  5979  106A  1D03               	skipz
  5980  106B  286D               	goto	u7111
  5981  106C  286E               	goto	u7110
  5982  106D                     u7111:
  5983  106D  2858               	goto	l5756
  5984  106E                     u7110:
  5985                           	line	30
  5986                           	
  5987  106E                     l5766:	
  5988  106E  0859               	movf	(___wmul@product+1),w
  5989  106F  00D5               	movwf	(?___wmul+1)
  5990  1070  0858               	movf	(___wmul@product),w
  5991  1071  00D4               	movwf	(?___wmul)
  5992                           	line	31
  5993                           	
  5994  1072                     l1526:	
  5995  1072  0008               	return
  5996                           	opt stack 0
  5997                           GLOBAL	__end_of___wmul
  5998  1073                     	__end_of___wmul:
  5999                           	signat	___wmul,8314
  6000                           	global	___lmul
  6001                           
  6002 ;; *************** function ___lmul *****************
  6003 ;; Defined at:
  6004 ;;		line 2 in file "C:\Program Files (x86)\Microchip\xc8\v1.30\sources\common\lmul.c"
  6005 ;; Parameters:    Size  Location     Type
  6006 ;;  multiplier      4    4[BANK0 ] unsigned long 
  6007 ;;  multiplicand    4    8[BANK0 ] unsigned long 
  6008 ;; Auto vars:     Size  Location     Type
  6009 ;;  product         4   12[BANK0 ] unsigned long 
  6010 ;; Return value:  Size  Location     Type
  6011 ;;                  4    4[BANK0 ] unsigned long 
  6012 ;; Registers used:
  6013 ;;		wreg, status,2, status,0
  6014 ;; Tracked objects:
  6015 ;;		On entry : 160/0
  6016 ;;		On exit  : 160/0
  6017 ;;		Unchanged: 100/0
  6018 ;; Data sizes:     COMMON   BANK0   BANK3   BANK1   BANK2
  6019 ;;      Params:         0       8       0       0       0
  6020 ;;      Locals:         0       4       0       0       0
  6021 ;;      Temps:          0       0       0       0       0
  6022 ;;      Totals:         0      12       0       0       0
  6023 ;;Total ram usage:       12 bytes
  6024 ;; Hardware stack levels used:    1
  6025 ;; Hardware stack levels required when called:    4
  6026 ;; This function calls:
  6027 ;;		Nothing
  6028 ;; This function is called by:
  6029 ;;		_uc_EteintLampe
  6030 ;; This function uses a non-reentrant model
  6031 ;;
  6032                           psect	text8,local,class=CODE,delta=2,merge=1
  6033                           	file	"C:\Program Files (x86)\Microchip\xc8\v1.30\sources\common\lmul.c"
  6034                           	line	2
  6035                           global __ptext8
  6036  11A3                     __ptext8:	;psect for function ___lmul
  6037                           psect	text8
  6038                           	file	"C:\Program Files (x86)\Microchip\xc8\v1.30\sources\common\lmul.c"
  6039                           	line	2
  6040                           	global	__size_of___lmul
  6041  003A                     	__size_of___lmul	equ	__end_of___lmul-___lmul
  6042                           	
  6043  11A3                     ___lmul:	
  6044                           ;incstack = 0
  6045                           	opt	stack 1
  6046                           ; Regs used in ___lmul: [wreg+status,2+status,0]
  6047                           	line	4
  6048                           	
  6049  11A3                     l5742:	
  6050  11A3  01DC               	clrf	(___lmul@product)
  6051  11A4  01DD               	clrf	(___lmul@product+1)
  6052  11A5  01DE               	clrf	(___lmul@product+2)
  6053  11A6  01DF               	clrf	(___lmul@product+3)
  6054                           	line	6
  6055                           	
  6056  11A7                     l1461:	
  6057                           	line	7
  6058  11A7  1C54               	btfss	(___lmul@multiplier),(0)&7
  6059  11A8  29AA               	goto	u7071
  6060  11A9  29AB               	goto	u7070
  6061  11AA                     u7071:
  6062  11AA  29C2               	goto	l5746
  6063  11AB                     u7070:
  6064                           	line	8
  6065                           	
  6066  11AB                     l5744:	
  6067  11AB  0858               	movf	(___lmul@multiplicand),w
  6068  11AC  07DC               	addwf	(___lmul@product),f
  6069  11AD  0859               	movf	(___lmul@multiplicand+1),w
  6070  11AE  1103               	clrz
  6071  11AF  1803               	skipnc
  6072  11B0  3E01               	addlw	1
  6073  11B1  1903               	skipnz
  6074  11B2  29B4               	goto	u7081
  6075  11B3  07DD               	addwf	(___lmul@product+1),f
  6076  11B4                     u7081:
  6077  11B4  085A               	movf	(___lmul@multiplicand+2),w
  6078  11B5  1103               	clrz
  6079  11B6  1803               	skipnc
  6080  11B7  3E01               	addlw	1
  6081  11B8  1903               	skipnz
  6082  11B9  29BB               	goto	u7082
  6083  11BA  07DE               	addwf	(___lmul@product+2),f
  6084  11BB                     u7082:
  6085  11BB  085B               	movf	(___lmul@multiplicand+3),w
  6086  11BC  1103               	clrz
  6087  11BD  1803               	skipnc
  6088  11BE  3E01               	addlw	1
  6089  11BF  1903               	skipnz
  6090  11C0  29C2               	goto	u7083
  6091  11C1  07DF               	addwf	(___lmul@product+3),f
  6092  11C2                     u7083:
  6093                           
  6094                           	line	9
  6095                           	
  6096  11C2                     l5746:	
  6097  11C2  1003               	clrc
  6098  11C3  0DD8               	rlf	(___lmul@multiplicand),f
  6099  11C4  0DD9               	rlf	(___lmul@multiplicand+1),f
  6100  11C5  0DDA               	rlf	(___lmul@multiplicand+2),f
  6101  11C6  0DDB               	rlf	(___lmul@multiplicand+3),f
  6102                           	line	10
  6103                           	
  6104  11C7                     l5748:	
  6105  11C7  1003               	clrc
  6106  11C8  0CD7               	rrf	(___lmul@multiplier+3),f
  6107  11C9  0CD6               	rrf	(___lmul@multiplier+2),f
  6108  11CA  0CD5               	rrf	(___lmul@multiplier+1),f
  6109  11CB  0CD4               	rrf	(___lmul@multiplier),f
  6110                           	line	11
  6111  11CC  0857               	movf	(___lmul@multiplier+3),w
  6112  11CD  0456               	iorwf	(___lmul@multiplier+2),w
  6113  11CE  0455               	iorwf	(___lmul@multiplier+1),w
  6114  11CF  0454               	iorwf	(___lmul@multiplier),w
  6115  11D0  1D03               	skipz
  6116  11D1  29D3               	goto	u7091
  6117  11D2  29D4               	goto	u7090
  6118  11D3                     u7091:
  6119  11D3  29A7               	goto	l1461
  6120  11D4                     u7090:
  6121                           	line	12
  6122                           	
  6123  11D4                     l5750:	
  6124  11D4  085F               	movf	(___lmul@product+3),w
  6125  11D5  00D7               	movwf	(?___lmul+3)
  6126  11D6  085E               	movf	(___lmul@product+2),w
  6127  11D7  00D6               	movwf	(?___lmul+2)
  6128  11D8  085D               	movf	(___lmul@product+1),w
  6129  11D9  00D5               	movwf	(?___lmul+1)
  6130  11DA  085C               	movf	(___lmul@product),w
  6131  11DB  00D4               	movwf	(?___lmul)
  6132                           
  6133                           	line	13
  6134                           	
  6135  11DC                     l1464:	
  6136  11DC  0008               	return
  6137                           	opt stack 0
  6138                           GLOBAL	__end_of___lmul
  6139  11DD                     	__end_of___lmul:
  6140                           	signat	___lmul,8316
  6141                           	global	___lldiv
  6142                           
  6143 ;; *************** function ___lldiv *****************
  6144 ;; Defined at:
  6145 ;;		line 6 in file "C:\Program Files (x86)\Microchip\xc8\v1.30\sources\common\lldiv.c"
  6146 ;; Parameters:    Size  Location     Type
  6147 ;;  divisor         4    4[BANK0 ] unsigned long 
  6148 ;;  dividend        4    8[BANK0 ] unsigned long 
  6149 ;; Auto vars:     Size  Location     Type
  6150 ;;  quotient        4   12[BANK0 ] unsigned long 
  6151 ;;  counter         1   16[BANK0 ] unsigned char 
  6152 ;; Return value:  Size  Location     Type
  6153 ;;                  4    4[BANK0 ] unsigned long 
  6154 ;; Registers used:
  6155 ;;		wreg, status,2, status,0
  6156 ;; Tracked objects:
  6157 ;;		On entry : 160/0
  6158 ;;		On exit  : 160/0
  6159 ;;		Unchanged: 100/0
  6160 ;; Data sizes:     COMMON   BANK0   BANK3   BANK1   BANK2
  6161 ;;      Params:         0       8       0       0       0
  6162 ;;      Locals:         0       5       0       0       0
  6163 ;;      Temps:          0       0       0       0       0
  6164 ;;      Totals:         0      13       0       0       0
  6165 ;;Total ram usage:       13 bytes
  6166 ;; Hardware stack levels used:    1
  6167 ;; Hardware stack levels required when called:    4
  6168 ;; This function calls:
  6169 ;;		Nothing
  6170 ;; This function is called by:
  6171 ;;		_uc_EteintLampe
  6172 ;; This function uses a non-reentrant model
  6173 ;;
  6174                           psect	text9,local,class=CODE,delta=2,merge=1
  6175                           	file	"C:\Program Files (x86)\Microchip\xc8\v1.30\sources\common\lldiv.c"
  6176                           	line	6
  6177                           global __ptext9
  6178  13B2                     __ptext9:	;psect for function ___lldiv
  6179                           psect	text9
  6180                           	file	"C:\Program Files (x86)\Microchip\xc8\v1.30\sources\common\lldiv.c"
  6181                           	line	6
  6182                           	global	__size_of___lldiv
  6183  0051                     	__size_of___lldiv	equ	__end_of___lldiv-___lldiv
  6184                           	
  6185  13B2                     ___lldiv:	
  6186                           ;incstack = 0
  6187                           	opt	stack 1
  6188                           ; Regs used in ___lldiv: [wreg+status,2+status,0]
  6189                           	line	14
  6190                           	
  6191  13B2                     l5716:	
  6192  13B2  01DC               	clrf	(___lldiv@quotient)
  6193  13B3  01DD               	clrf	(___lldiv@quotient+1)
  6194  13B4  01DE               	clrf	(___lldiv@quotient+2)
  6195  13B5  01DF               	clrf	(___lldiv@quotient+3)
  6196                           	line	15
  6197                           	
  6198  13B6                     l5718:	
  6199  13B6  0857               	movf	(___lldiv@divisor+3),w
  6200  13B7  0456               	iorwf	(___lldiv@divisor+2),w
  6201  13B8  0455               	iorwf	(___lldiv@divisor+1),w
  6202  13B9  0454               	iorwf	(___lldiv@divisor),w
  6203  13BA  1903               	skipnz
  6204  13BB  2BBD               	goto	u7031
  6205  13BC  2BBE               	goto	u7030
  6206  13BD                     u7031:
  6207  13BD  2BFA               	goto	l5738
  6208  13BE                     u7030:
  6209                           	line	16
  6210                           	
  6211  13BE                     l5720:	
  6212  13BE  01E0               	clrf	(___lldiv@counter)
  6213  13BF  0AE0               	incf	(___lldiv@counter),f
  6214                           	line	17
  6215  13C0  2BC7               	goto	l5724
  6216                           	line	18
  6217                           	
  6218  13C1                     l5722:	
  6219  13C1  1003               	clrc
  6220  13C2  0DD4               	rlf	(___lldiv@divisor),f
  6221  13C3  0DD5               	rlf	(___lldiv@divisor+1),f
  6222  13C4  0DD6               	rlf	(___lldiv@divisor+2),f
  6223  13C5  0DD7               	rlf	(___lldiv@divisor+3),f
  6224                           	line	19
  6225  13C6  0AE0               	incf	(___lldiv@counter),f
  6226                           	line	17
  6227                           	
  6228  13C7                     l5724:	
  6229  13C7  1FD7               	btfss	(___lldiv@divisor+3),(31)&7
  6230  13C8  2BCA               	goto	u7041
  6231  13C9  2BCB               	goto	u7040
  6232  13CA                     u7041:
  6233  13CA  2BC1               	goto	l5722
  6234  13CB                     u7040:
  6235                           	line	22
  6236                           	
  6237  13CB                     l5726:	
  6238  13CB  1003               	clrc
  6239  13CC  0DDC               	rlf	(___lldiv@quotient),f
  6240  13CD  0DDD               	rlf	(___lldiv@quotient+1),f
  6241  13CE  0DDE               	rlf	(___lldiv@quotient+2),f
  6242  13CF  0DDF               	rlf	(___lldiv@quotient+3),f
  6243                           	line	23
  6244                           	
  6245  13D0                     l5728:	
  6246  13D0  0857               	movf	(___lldiv@divisor+3),w
  6247  13D1  025B               	subwf	(___lldiv@dividend+3),w
  6248  13D2  1D03               	skipz
  6249  13D3  2BDE               	goto	u7055
  6250  13D4  0856               	movf	(___lldiv@divisor+2),w
  6251  13D5  025A               	subwf	(___lldiv@dividend+2),w
  6252  13D6  1D03               	skipz
  6253  13D7  2BDE               	goto	u7055
  6254  13D8  0855               	movf	(___lldiv@divisor+1),w
  6255  13D9  0259               	subwf	(___lldiv@dividend+1),w
  6256  13DA  1D03               	skipz
  6257  13DB  2BDE               	goto	u7055
  6258  13DC  0854               	movf	(___lldiv@divisor),w
  6259  13DD  0258               	subwf	(___lldiv@dividend),w
  6260  13DE                     u7055:
  6261  13DE  1C03               	skipc
  6262  13DF  2BE1               	goto	u7051
  6263  13E0  2BE2               	goto	u7050
  6264  13E1                     u7051:
  6265  13E1  2BF1               	goto	l5734
  6266  13E2                     u7050:
  6267                           	line	24
  6268                           	
  6269  13E2                     l5730:	
  6270  13E2  0854               	movf	(___lldiv@divisor),w
  6271  13E3  02D8               	subwf	(___lldiv@dividend),f
  6272  13E4  0855               	movf	(___lldiv@divisor+1),w
  6273  13E5  1C03               	skipc
  6274  13E6  0F55               	incfsz	(___lldiv@divisor+1),w
  6275  13E7  02D9               	subwf	(___lldiv@dividend+1),f
  6276  13E8  0856               	movf	(___lldiv@divisor+2),w
  6277  13E9  1C03               	skipc
  6278  13EA  0F56               	incfsz	(___lldiv@divisor+2),w
  6279  13EB  02DA               	subwf	(___lldiv@dividend+2),f
  6280  13EC  0857               	movf	(___lldiv@divisor+3),w
  6281  13ED  1C03               	skipc
  6282  13EE  0F57               	incfsz	(___lldiv@divisor+3),w
  6283  13EF  02DB               	subwf	(___lldiv@dividend+3),f
  6284                           	line	25
  6285                           	
  6286  13F0                     l5732:	
  6287  13F0  145C               	bsf	(___lldiv@quotient)+(0/8),(0)&7
  6288                           	line	27
  6289                           	
  6290  13F1                     l5734:	
  6291  13F1  1003               	clrc
  6292  13F2  0CD7               	rrf	(___lldiv@divisor+3),f
  6293  13F3  0CD6               	rrf	(___lldiv@divisor+2),f
  6294  13F4  0CD5               	rrf	(___lldiv@divisor+1),f
  6295  13F5  0CD4               	rrf	(___lldiv@divisor),f
  6296                           	line	28
  6297                           	
  6298  13F6                     l5736:	
  6299  13F6  0BE0               	decfsz	(___lldiv@counter),f
  6300  13F7  2BF9               	goto	u7061
  6301  13F8  2BFA               	goto	u7060
  6302  13F9                     u7061:
  6303  13F9  2BCB               	goto	l5726
  6304  13FA                     u7060:
  6305                           	line	30
  6306                           	
  6307  13FA                     l5738:	
  6308  13FA  085F               	movf	(___lldiv@quotient+3),w
  6309  13FB  00D7               	movwf	(?___lldiv+3)
  6310  13FC  085E               	movf	(___lldiv@quotient+2),w
  6311  13FD  00D6               	movwf	(?___lldiv+2)
  6312  13FE  085D               	movf	(___lldiv@quotient+1),w
  6313  13FF  00D5               	movwf	(?___lldiv+1)
  6314  1400  085C               	movf	(___lldiv@quotient),w
  6315  1401  00D4               	movwf	(?___lldiv)
  6316                           
  6317                           	line	31
  6318                           	
  6319  1402                     l1440:	
  6320  1402  0008               	return
  6321                           	opt stack 0
  6322                           GLOBAL	__end_of___lldiv
  6323  1403                     	__end_of___lldiv:
  6324                           	signat	___lldiv,8316
  6325                           	global	_vd_PiloterSorties
  6326                           
  6327 ;; *************** function _vd_PiloterSorties *****************
  6328 ;; Defined at:
  6329 ;;		line 220 in file "../source/gestionsorties.c"
  6330 ;; Parameters:    Size  Location     Type
  6331 ;;		None
  6332 ;; Auto vars:     Size  Location     Type
  6333 ;;		None
  6334 ;; Return value:  Size  Location     Type
  6335 ;;		None               void
  6336 ;; Registers used:
  6337 ;;		wreg, fsr0l, fsr0h, status,2, status,0, pclath, cstack
  6338 ;; Tracked objects:
  6339 ;;		On entry : 60/0
  6340 ;;		On exit  : 0/0
  6341 ;;		Unchanged: 0/0
  6342 ;; Data sizes:     COMMON   BANK0   BANK3   BANK1   BANK2
  6343 ;;      Params:         0       0       0       0       0
  6344 ;;      Locals:         0       0       0       0       0
  6345 ;;      Temps:          0       0       0       0       0
  6346 ;;      Totals:         0       0       0       0       0
  6347 ;;Total ram usage:        0 bytes
  6348 ;; Hardware stack levels used:    1
  6349 ;; Hardware stack levels required when called:    7
  6350 ;; This function calls:
  6351 ;;		_vd_PiloterLed
  6352 ;;		_vd_PiloterRelais
  6353 ;;		_vd_PiloterRelaisBistables
  6354 ;; This function is called by:
  6355 ;;		_main
  6356 ;; This function uses a non-reentrant model
  6357 ;;
  6358                           psect	text10,local,class=CODE,delta=2,merge=1
  6359                           	file	"../source/gestionsorties.c"
  6360                           	line	220
  6361                           global __ptext10
  6362  0801                     __ptext10:	;psect for function _vd_PiloterSorties
  6363                           psect	text10
  6364                           	file	"../source/gestionsorties.c"
  6365                           	line	220
  6366                           	global	__size_of_vd_PiloterSorties
  6367  0010                     	__size_of_vd_PiloterSorties	equ	__end_of_vd_PiloterSorties-_vd_PiloterSorties
  6368                           	
  6369  0801                     _vd_PiloterSorties:	
  6370                           ;incstack = 0
  6371                           	opt	stack 0
  6372                           ; Regs used in _vd_PiloterSorties: [wreg-fsr0h+status,2+status,0+pclath+cstack]
  6373                           	line	224
  6374                           	
  6375  0801                     l4106:	
  6376                           ;gestionsorties.c: 224: vd_PiloterLed();
  6377  0801  160A  118A  213E   	fcall	_vd_PiloterLed
              120A  158A         
  6378                           	line	225
  6379                           ;gestionsorties.c: 225: vd_PiloterRelais();
  6380  0806  160A  118A  21DD   	fcall	_vd_PiloterRelais
              120A  158A         
  6381                           	line	226
  6382                           ;gestionsorties.c: 226: vd_PiloterRelaisBistables();
  6383  080B  120A  158A  2065   	fcall	_vd_PiloterRelaisBistables
              120A  158A         
  6384                           	line	228
  6385                           	
  6386  0810                     l215:	
  6387  0810  0008               	return
  6388                           	opt stack 0
  6389                           GLOBAL	__end_of_vd_PiloterSorties
  6390  0811                     	__end_of_vd_PiloterSorties:
  6391                           	signat	_vd_PiloterSorties,88
  6392                           	global	_vd_PiloterRelaisBistables
  6393                           
  6394 ;; *************** function _vd_PiloterRelaisBistables *****************
  6395 ;; Defined at:
  6396 ;;		line 95 in file "../source/gestionsorties.c"
  6397 ;; Parameters:    Size  Location     Type
  6398 ;;		None
  6399 ;; Auto vars:     Size  Location     Type
  6400 ;;  l_uc_Compteu    1    9[BANK0 ] unsigned char 
  6401 ;; Return value:  Size  Location     Type
  6402 ;;		None               void
  6403 ;; Registers used:
  6404 ;;		wreg, fsr0l, fsr0h, status,2, status,0, pclath, cstack
  6405 ;; Tracked objects:
  6406 ;;		On entry : 60/0
  6407 ;;		On exit  : 0/0
  6408 ;;		Unchanged: 0/0
  6409 ;; Data sizes:     COMMON   BANK0   BANK3   BANK1   BANK2
  6410 ;;      Params:         0       0       0       0       0
  6411 ;;      Locals:         0       1       0       0       0
  6412 ;;      Temps:          0       1       0       0       0
  6413 ;;      Totals:         0       2       0       0       0
  6414 ;;Total ram usage:        2 bytes
  6415 ;; Hardware stack levels used:    1
  6416 ;; Hardware stack levels required when called:    6
  6417 ;; This function calls:
  6418 ;;		_vd_PiloterRelaisBistable
  6419 ;; This function is called by:
  6420 ;;		_vd_PiloterSorties
  6421 ;; This function uses a non-reentrant model
  6422 ;;
  6423                           psect	text11,local,class=CODE,delta=2,merge=1
  6424                           	line	95
  6425                           global __ptext11
  6426  0865                     __ptext11:	;psect for function _vd_PiloterRelaisBistables
  6427                           psect	text11
  6428                           	file	"../source/gestionsorties.c"
  6429                           	line	95
  6430                           	global	__size_of_vd_PiloterRelaisBistables
  6431  00D7                     	__size_of_vd_PiloterRelaisBistables	equ	__end_of_vd_PiloterRelaisBistables-_vd_PiloterR
                                 elaisBistables
  6432                           	
  6433  0865                     _vd_PiloterRelaisBistables:	
  6434                           ;incstack = 0
  6435                           	opt	stack 0
  6436                           ; Regs used in _vd_PiloterRelaisBistables: [wreg-fsr0h+status,2+status,0+pclath+cstack]
  6437                           	line	107
  6438                           	
  6439  0865                     l4022:	
  6440                           ;gestionsorties.c: 97: unsigned char l_uc_Compteur;
  6441                           ;gestionsorties.c: 98: static unsigned char s_uc_CompteurCommandeMaintenu = 5;
  6442                           ;gestionsorties.c: 107: if(s_uc_CompteurCommandeMaintenu < 5)
  6443  0865  3005               	movlw	(05h)
  6444  0866  026B               	subwf	(vd_PiloterRelaisBistables@s_uc_CompteurCommandeMaintenu),w
  6445  0867  1803               	skipnc
  6446  0868  286A               	goto	u4311
  6447  0869  286B               	goto	u4310
  6448  086A                     u4311:
  6449  086A  286C               	goto	l4026
  6450  086B                     u4310:
  6451                           	line	110
  6452                           	
  6453  086B                     l4024:	
  6454                           ;gestionsorties.c: 108: {
  6455                           ;gestionsorties.c: 110: s_uc_CompteurCommandeMaintenu++;
  6456  086B  0AEB               	incf	(vd_PiloterRelaisBistables@s_uc_CompteurCommandeMaintenu),f
  6457                           	line	113
  6458                           	
  6459  086C                     l4026:	
  6460                           ;gestionsorties.c: 111: }
  6461                           ;gestionsorties.c: 113: for(l_uc_Compteur=0;l_uc_Compteur<uc_RB_NB;l_uc_Compteur++)
  6462  086C  01D9               	clrf	(vd_PiloterRelaisBistables@l_uc_Compteur)
  6463  086D  2935               	goto	l4076
  6464                           	line	115
  6465                           	
  6466  086E                     l4028:	
  6467                           ;gestionsorties.c: 114: {
  6468                           ;gestionsorties.c: 115: if(s_uc_CompteurCommandeMaintenu >= 5)
  6469  086E  3005               	movlw	(05h)
  6470  086F  026B               	subwf	(vd_PiloterRelaisBistables@s_uc_CompteurCommandeMaintenu),w
  6471  0870  1C03               	skipc
  6472  0871  2873               	goto	u4321
  6473  0872  2874               	goto	u4320
  6474  0873                     u4321:
  6475  0873  2934               	goto	l4074
  6476  0874                     u4320:
  6477                           	line	117
  6478                           	
  6479  0874                     l4030:	
  6480                           ;gestionsorties.c: 116: {
  6481                           ;gestionsorties.c: 117: if (st_Commandes.ub1.bloqueVolets != 0)
  6482  0874  1CBA               	btfss	(_st_Commandes),1
  6483  0875  2877               	goto	u4331
  6484  0876  2878               	goto	u4330
  6485  0877                     u4331:
  6486  0877  287D               	goto	l185
  6487  0878                     u4330:
  6488                           	line	119
  6489                           	
  6490  0878                     l4032:	
  6491                           ;gestionsorties.c: 118: {
  6492                           ;gestionsorties.c: 119: st_SortiesRelaisBistables[l_uc_Compteur].ub1_EtatRelaisBistableS
                                 ouhaite = 0;
  6493  0878  0859               	movf	(vd_PiloterRelaisBistables@l_uc_Compteur),w
  6494  0879  3EC9               	addlw	_st_SortiesRelaisBistables&0ffh
  6495  087A  0084               	movwf	fsr0
  6496  087B  1383               	bcf	status, 7	;select IRP bank1
  6497  087C  1080               	bcf	indf,1
  6498                           	line	120
  6499                           	
  6500  087D                     l185:	
  6501                           	line	123
  6502                           ;gestionsorties.c: 120: }
  6503                           ;gestionsorties.c: 123: if(st_SortiesRelaisBistables[l_uc_Compteur].ub1_EtatRelaisBistab
                                 le != st_SortiesRelaisBistables[l_uc_Compteur].ub1_EtatRelaisBistableSouhaite)
  6504  087D  0859               	movf	(vd_PiloterRelaisBistables@l_uc_Compteur),w
  6505  087E  3EC9               	addlw	_st_SortiesRelaisBistables&0ffh
  6506  087F  0084               	movwf	fsr0
  6507  0880  1383               	bcf	status, 7	;select IRP bank1
  6508  0881  0C00               	rrf	indf,w
  6509  0882  3901               	andlw	(1<<1)-1
  6510  0883  00D8               	movwf	(??_vd_PiloterRelaisBistables+0)+0
  6511  0884  0859               	movf	(vd_PiloterRelaisBistables@l_uc_Compteur),w
  6512  0885  3EC9               	addlw	_st_SortiesRelaisBistables&0ffh
  6513  0886  0084               	movwf	fsr0
  6514  0887  0800               	movf	indf,w
  6515  0888  3901               	andlw	(1<<1)-1
  6516  0889  0658               	xorwf	(??_vd_PiloterRelaisBistables+0)+0,w
  6517  088A  1903               	skipnz
  6518  088B  288D               	goto	u4341
  6519  088C  288E               	goto	u4340
  6520  088D                     u4341:
  6521  088D  2934               	goto	l4074
  6522  088E                     u4340:
  6523                           	line	127
  6524                           	
  6525  088E                     l4034:	
  6526                           ;gestionsorties.c: 124: {
  6527                           ;gestionsorties.c: 127: if( (l_uc_Compteur % 2) == 0 && st_SortiesRelaisBistables[l_uc_C
                                 ompteur].ub1_EtatRelaisBistableSouhaite != 0)
  6528  088E  1859               	btfsc	(vd_PiloterRelaisBistables@l_uc_Compteur),(0)&7
  6529  088F  2891               	goto	u4351
  6530  0890  2892               	goto	u4350
  6531  0891                     u4351:
  6532  0891  28D5               	goto	l187
  6533  0892                     u4350:
  6534                           	
  6535  0892                     l4036:	
  6536  0892  0859               	movf	(vd_PiloterRelaisBistables@l_uc_Compteur),w
  6537  0893  3EC9               	addlw	_st_SortiesRelaisBistables&0ffh
  6538  0894  0084               	movwf	fsr0
  6539  0895  1C80               	btfss	indf,1
  6540  0896  2898               	goto	u4361
  6541  0897  2899               	goto	u4360
  6542  0898                     u4361:
  6543  0898  28D5               	goto	l187
  6544  0899                     u4360:
  6545                           	line	129
  6546                           	
  6547  0899                     l4038:	
  6548                           ;gestionsorties.c: 128: {
  6549                           ;gestionsorties.c: 129: if(st_SortiesRelaisBistables[l_uc_Compteur+1].ub1_EtatRelaisBist
                                 able != 0)
  6550  0899  0859               	movf	(vd_PiloterRelaisBistables@l_uc_Compteur),w
  6551  089A  3ECA               	addlw	_st_SortiesRelaisBistables+01h&0ffh
  6552  089B  0084               	movwf	fsr0
  6553  089C  1C00               	btfss	indf,0
  6554  089D  289F               	goto	u4371
  6555  089E  28A0               	goto	u4370
  6556  089F                     u4371:
  6557  089F  28BD               	goto	l4046
  6558  08A0                     u4370:
  6559                           	line	131
  6560                           	
  6561  08A0                     l4040:	
  6562                           ;gestionsorties.c: 130: {
  6563                           ;gestionsorties.c: 131: st_SortiesRelaisBistables[l_uc_Compteur+1].ub1_EtatRelaisBistabl
                                 eSouhaite = 0;
  6564  08A0  0859               	movf	(vd_PiloterRelaisBistables@l_uc_Compteur),w
  6565  08A1  3ECA               	addlw	_st_SortiesRelaisBistables+01h&0ffh
  6566  08A2  0084               	movwf	fsr0
  6567  08A3  1080               	bcf	indf,1
  6568                           	line	132
  6569                           ;gestionsorties.c: 132: st_SortiesRelaisBistables[l_uc_Compteur+1].ub1_EtatRelaisBistabl
                                 e = st_SortiesRelaisBistables[l_uc_Compteur+1].ub1_EtatRelaisBistableSouhaite;
  6570  08A4  0859               	movf	(vd_PiloterRelaisBistables@l_uc_Compteur),w
  6571  08A5  3ECA               	addlw	_st_SortiesRelaisBistables+01h&0ffh
  6572  08A6  0084               	movwf	fsr0
  6573  08A7  1880               	btfsc	indf,1
  6574  08A8  28AD               	goto	u4381
  6575  08A9  28B0               	goto	u4380
  6576  08AA  0859               	movf	(vd_PiloterRelaisBistables@l_uc_Compteur),w
  6577  08AB  3ECA               	addlw	_st_SortiesRelaisBistables+01h&0ffh
  6578  08AC  0084               	movwf	fsr0
  6579                           	
  6580  08AD                     u4381:
  6581  08AD  1383               	bcf	status, 7	;select IRP bank1
  6582  08AE  1400               	bsf	indf,0
  6583  08AF  28B2               	goto	u4394
  6584  08B0                     u4380:
  6585  08B0  1383               	bcf	status, 7	;select IRP bank1
  6586  08B1  1000               	bcf	indf,0
  6587  08B2                     u4394:
  6588                           	line	133
  6589                           	
  6590  08B2                     l4042:	
  6591                           ;gestionsorties.c: 133: s_uc_CompteurCommandeMaintenu = 0;
  6592  08B2  1283               	bcf	status, 5	;RP0=0, select bank0
  6593  08B3  1303               	bcf	status, 6	;RP1=0, select bank0
  6594  08B4  01EB               	clrf	(vd_PiloterRelaisBistables@s_uc_CompteurCommandeMaintenu)
  6595                           	line	134
  6596                           	
  6597  08B5                     l4044:	
  6598                           ;gestionsorties.c: 134: vd_PiloterRelaisBistable(l_uc_Compteur+1);
  6599  08B5  0859               	movf	(vd_PiloterRelaisBistables@l_uc_Compteur),w
  6600  08B6  3E01               	addlw	01h
  6601  08B7  160A  118A  2218   	fcall	_vd_PiloterRelaisBistable
              120A  158A         
  6602                           	line	135
  6603                           ;gestionsorties.c: 135: }
  6604  08BC  293B               	goto	l196
  6605                           	line	138
  6606                           	
  6607  08BD                     l4046:	
  6608                           ;gestionsorties.c: 136: else
  6609                           ;gestionsorties.c: 137: {
  6610                           ;gestionsorties.c: 138: st_SortiesRelaisBistables[l_uc_Compteur].ub1_EtatRelaisBistable 
                                 = st_SortiesRelaisBistables[l_uc_Compteur].ub1_EtatRelaisBistableSouhaite;
  6611  08BD  0859               	movf	(vd_PiloterRelaisBistables@l_uc_Compteur),w
  6612  08BE  3EC9               	addlw	_st_SortiesRelaisBistables&0ffh
  6613  08BF  0084               	movwf	fsr0
  6614  08C0  1880               	btfsc	indf,1
  6615  08C1  28C6               	goto	u4401
  6616  08C2  28C9               	goto	u4400
  6617  08C3  0859               	movf	(vd_PiloterRelaisBistables@l_uc_Compteur),w
  6618  08C4  3EC9               	addlw	_st_SortiesRelaisBistables&0ffh
  6619  08C5  0084               	movwf	fsr0
  6620                           	
  6621  08C6                     u4401:
  6622  08C6  1383               	bcf	status, 7	;select IRP bank1
  6623  08C7  1400               	bsf	indf,0
  6624  08C8  28CB               	goto	u4414
  6625  08C9                     u4400:
  6626  08C9  1383               	bcf	status, 7	;select IRP bank1
  6627  08CA  1000               	bcf	indf,0
  6628  08CB                     u4414:
  6629                           	line	139
  6630                           	
  6631  08CB                     l4048:	
  6632                           ;gestionsorties.c: 139: s_uc_CompteurCommandeMaintenu = 0;
  6633  08CB  1283               	bcf	status, 5	;RP0=0, select bank0
  6634  08CC  1303               	bcf	status, 6	;RP1=0, select bank0
  6635  08CD  01EB               	clrf	(vd_PiloterRelaisBistables@s_uc_CompteurCommandeMaintenu)
  6636                           	line	140
  6637                           	
  6638  08CE                     l4050:	
  6639                           ;gestionsorties.c: 140: vd_PiloterRelaisBistable(l_uc_Compteur);
  6640  08CE  0859               	movf	(vd_PiloterRelaisBistables@l_uc_Compteur),w
  6641  08CF  160A  118A  2218   	fcall	_vd_PiloterRelaisBistable
              120A  158A         
  6642  08D4  293B               	goto	l196
  6643                           	line	145
  6644                           	
  6645  08D5                     l187:	
  6646                           ;gestionsorties.c: 145: else if( (l_uc_Compteur % 2) != 0 && st_SortiesRelaisBistables[l
                                 _uc_Compteur].ub1_EtatRelaisBistableSouhaite != 0)
  6647  08D5  1C59               	btfss	(vd_PiloterRelaisBistables@l_uc_Compteur),(0)&7
  6648  08D6  28D8               	goto	u4421
  6649  08D7  28D9               	goto	u4420
  6650  08D8                     u4421:
  6651  08D8  291C               	goto	l4068
  6652  08D9                     u4420:
  6653                           	
  6654  08D9                     l4052:	
  6655  08D9  0859               	movf	(vd_PiloterRelaisBistables@l_uc_Compteur),w
  6656  08DA  3EC9               	addlw	_st_SortiesRelaisBistables&0ffh
  6657  08DB  0084               	movwf	fsr0
  6658  08DC  1C80               	btfss	indf,1
  6659  08DD  28DF               	goto	u4431
  6660  08DE  28E0               	goto	u4430
  6661  08DF                     u4431:
  6662  08DF  291C               	goto	l4068
  6663  08E0                     u4430:
  6664                           	line	147
  6665                           	
  6666  08E0                     l4054:	
  6667                           ;gestionsorties.c: 146: {
  6668                           ;gestionsorties.c: 147: if(st_SortiesRelaisBistables[l_uc_Compteur-1].ub1_EtatRelaisBist
                                 able != 0)
  6669  08E0  0859               	movf	(vd_PiloterRelaisBistables@l_uc_Compteur),w
  6670  08E1  3EC8               	addlw	_st_SortiesRelaisBistables+0FFh&0ffh
  6671  08E2  0084               	movwf	fsr0
  6672  08E3  1C00               	btfss	indf,0
  6673  08E4  28E6               	goto	u4441
  6674  08E5  28E7               	goto	u4440
  6675  08E6                     u4441:
  6676  08E6  2904               	goto	l4062
  6677  08E7                     u4440:
  6678                           	line	149
  6679                           	
  6680  08E7                     l4056:	
  6681                           ;gestionsorties.c: 148: {
  6682                           ;gestionsorties.c: 149: st_SortiesRelaisBistables[l_uc_Compteur-1].ub1_EtatRelaisBistabl
                                 eSouhaite = 0;
  6683  08E7  0859               	movf	(vd_PiloterRelaisBistables@l_uc_Compteur),w
  6684  08E8  3EC8               	addlw	_st_SortiesRelaisBistables+0FFh&0ffh
  6685  08E9  0084               	movwf	fsr0
  6686  08EA  1080               	bcf	indf,1
  6687                           	line	150
  6688                           ;gestionsorties.c: 150: st_SortiesRelaisBistables[l_uc_Compteur-1].ub1_EtatRelaisBistabl
                                 e = st_SortiesRelaisBistables[l_uc_Compteur-1].ub1_EtatRelaisBistableSouhaite;
  6689  08EB  0859               	movf	(vd_PiloterRelaisBistables@l_uc_Compteur),w
  6690  08EC  3EC8               	addlw	_st_SortiesRelaisBistables+0FFh&0ffh
  6691  08ED  0084               	movwf	fsr0
  6692  08EE  1880               	btfsc	indf,1
  6693  08EF  28F4               	goto	u4451
  6694  08F0  28F7               	goto	u4450
  6695  08F1  0859               	movf	(vd_PiloterRelaisBistables@l_uc_Compteur),w
  6696  08F2  3EC8               	addlw	_st_SortiesRelaisBistables+0FFh&0ffh
  6697  08F3  0084               	movwf	fsr0
  6698                           	
  6699  08F4                     u4451:
  6700  08F4  1383               	bcf	status, 7	;select IRP bank1
  6701  08F5  1400               	bsf	indf,0
  6702  08F6  28F9               	goto	u4464
  6703  08F7                     u4450:
  6704  08F7  1383               	bcf	status, 7	;select IRP bank1
  6705  08F8  1000               	bcf	indf,0
  6706  08F9                     u4464:
  6707                           	line	151
  6708                           	
  6709  08F9                     l4058:	
  6710                           ;gestionsorties.c: 151: s_uc_CompteurCommandeMaintenu = 0;
  6711  08F9  1283               	bcf	status, 5	;RP0=0, select bank0
  6712  08FA  1303               	bcf	status, 6	;RP1=0, select bank0
  6713  08FB  01EB               	clrf	(vd_PiloterRelaisBistables@s_uc_CompteurCommandeMaintenu)
  6714                           	line	152
  6715                           	
  6716  08FC                     l4060:	
  6717                           ;gestionsorties.c: 152: vd_PiloterRelaisBistable(l_uc_Compteur-1);
  6718  08FC  0859               	movf	(vd_PiloterRelaisBistables@l_uc_Compteur),w
  6719  08FD  3EFF               	addlw	0FFh
  6720  08FE  160A  118A  2218   	fcall	_vd_PiloterRelaisBistable
              120A  158A         
  6721                           	line	153
  6722                           ;gestionsorties.c: 153: }
  6723  0903  293B               	goto	l196
  6724                           	line	156
  6725                           	
  6726  0904                     l4062:	
  6727                           ;gestionsorties.c: 154: else
  6728                           ;gestionsorties.c: 155: {
  6729                           ;gestionsorties.c: 156: st_SortiesRelaisBistables[l_uc_Compteur].ub1_EtatRelaisBistable 
                                 = st_SortiesRelaisBistables[l_uc_Compteur].ub1_EtatRelaisBistableSouhaite;
  6730  0904  0859               	movf	(vd_PiloterRelaisBistables@l_uc_Compteur),w
  6731  0905  3EC9               	addlw	_st_SortiesRelaisBistables&0ffh
  6732  0906  0084               	movwf	fsr0
  6733  0907  1880               	btfsc	indf,1
  6734  0908  290D               	goto	u4471
  6735  0909  2910               	goto	u4470
  6736  090A  0859               	movf	(vd_PiloterRelaisBistables@l_uc_Compteur),w
  6737  090B  3EC9               	addlw	_st_SortiesRelaisBistables&0ffh
  6738  090C  0084               	movwf	fsr0
  6739                           	
  6740  090D                     u4471:
  6741  090D  1383               	bcf	status, 7	;select IRP bank1
  6742  090E  1400               	bsf	indf,0
  6743  090F  2912               	goto	u4484
  6744  0910                     u4470:
  6745  0910  1383               	bcf	status, 7	;select IRP bank1
  6746  0911  1000               	bcf	indf,0
  6747  0912                     u4484:
  6748                           	line	157
  6749                           	
  6750  0912                     l4064:	
  6751                           ;gestionsorties.c: 157: s_uc_CompteurCommandeMaintenu = 0;
  6752  0912  1283               	bcf	status, 5	;RP0=0, select bank0
  6753  0913  1303               	bcf	status, 6	;RP1=0, select bank0
  6754  0914  01EB               	clrf	(vd_PiloterRelaisBistables@s_uc_CompteurCommandeMaintenu)
  6755                           	line	158
  6756                           	
  6757  0915                     l4066:	
  6758                           ;gestionsorties.c: 158: vd_PiloterRelaisBistable(l_uc_Compteur);
  6759  0915  0859               	movf	(vd_PiloterRelaisBistables@l_uc_Compteur),w
  6760  0916  160A  118A  2218   	fcall	_vd_PiloterRelaisBistable
              120A  158A         
  6761  091B  293B               	goto	l196
  6762                           	line	163
  6763                           	
  6764  091C                     l4068:	
  6765                           ;gestionsorties.c: 161: else
  6766                           ;gestionsorties.c: 162: {
  6767                           ;gestionsorties.c: 163: st_SortiesRelaisBistables[l_uc_Compteur].ub1_EtatRelaisBistable 
                                 = st_SortiesRelaisBistables[l_uc_Compteur].ub1_EtatRelaisBistableSouhaite;
  6768  091C  0859               	movf	(vd_PiloterRelaisBistables@l_uc_Compteur),w
  6769  091D  3EC9               	addlw	_st_SortiesRelaisBistables&0ffh
  6770  091E  0084               	movwf	fsr0
  6771  091F  1880               	btfsc	indf,1
  6772  0920  2925               	goto	u4491
  6773  0921  2928               	goto	u4490
  6774  0922  0859               	movf	(vd_PiloterRelaisBistables@l_uc_Compteur),w
  6775  0923  3EC9               	addlw	_st_SortiesRelaisBistables&0ffh
  6776  0924  0084               	movwf	fsr0
  6777                           	
  6778  0925                     u4491:
  6779  0925  1383               	bcf	status, 7	;select IRP bank1
  6780  0926  1400               	bsf	indf,0
  6781  0927  292A               	goto	u4504
  6782  0928                     u4490:
  6783  0928  1383               	bcf	status, 7	;select IRP bank1
  6784  0929  1000               	bcf	indf,0
  6785  092A                     u4504:
  6786                           	line	164
  6787                           	
  6788  092A                     l4070:	
  6789                           ;gestionsorties.c: 164: s_uc_CompteurCommandeMaintenu = 0;
  6790  092A  1283               	bcf	status, 5	;RP0=0, select bank0
  6791  092B  1303               	bcf	status, 6	;RP1=0, select bank0
  6792  092C  01EB               	clrf	(vd_PiloterRelaisBistables@s_uc_CompteurCommandeMaintenu)
  6793                           	line	165
  6794                           	
  6795  092D                     l4072:	
  6796                           ;gestionsorties.c: 165: vd_PiloterRelaisBistable(l_uc_Compteur);
  6797  092D  0859               	movf	(vd_PiloterRelaisBistables@l_uc_Compteur),w
  6798  092E  160A  118A  2218   	fcall	_vd_PiloterRelaisBistable
              120A  158A         
  6799  0933  293B               	goto	l196
  6800                           	line	113
  6801                           	
  6802  0934                     l4074:	
  6803  0934  0AD9               	incf	(vd_PiloterRelaisBistables@l_uc_Compteur),f
  6804                           	
  6805  0935                     l4076:	
  6806  0935  0845               	movf	(_uc_RB_NB),w
  6807  0936  0259               	subwf	(vd_PiloterRelaisBistables@l_uc_Compteur),w
  6808  0937  1C03               	skipc
  6809  0938  293A               	goto	u4511
  6810  0939  293B               	goto	u4510
  6811  093A                     u4511:
  6812  093A  286E               	goto	l4028
  6813  093B                     u4510:
  6814                           	line	172
  6815                           	
  6816  093B                     l196:	
  6817  093B  0008               	return
  6818                           	opt stack 0
  6819                           GLOBAL	__end_of_vd_PiloterRelaisBistables
  6820  093C                     	__end_of_vd_PiloterRelaisBistables:
  6821                           	signat	_vd_PiloterRelaisBistables,88
  6822                           	global	_vd_PiloterRelaisBistable
  6823                           
  6824 ;; *************** function _vd_PiloterRelaisBistable *****************
  6825 ;; Defined at:
  6826 ;;		line 69 in file "../source/gestionsorties.c"
  6827 ;; Parameters:    Size  Location     Type
  6828 ;;  uc_NumeroRel    1    wreg     unsigned char 
  6829 ;; Auto vars:     Size  Location     Type
  6830 ;;  uc_NumeroRel    1    7[BANK0 ] unsigned char 
  6831 ;; Return value:  Size  Location     Type
  6832 ;;		None               void
  6833 ;; Registers used:
  6834 ;;		wreg, fsr0l, fsr0h, status,2, status,0, pclath, cstack
  6835 ;; Tracked objects:
  6836 ;;		On entry : 160/0
  6837 ;;		On exit  : 60/60
  6838 ;;		Unchanged: 0/0
  6839 ;; Data sizes:     COMMON   BANK0   BANK3   BANK1   BANK2
  6840 ;;      Params:         0       0       0       0       0
  6841 ;;      Locals:         0       1       0       0       0
  6842 ;;      Temps:          0       0       0       0       0
  6843 ;;      Totals:         0       1       0       0       0
  6844 ;;Total ram usage:        1 bytes
  6845 ;; Hardware stack levels used:    1
  6846 ;; Hardware stack levels required when called:    5
  6847 ;; This function calls:
  6848 ;;		_vd_PiloterSortie
  6849 ;; This function is called by:
  6850 ;;		_vd_PiloterRelaisBistables
  6851 ;; This function uses a non-reentrant model
  6852 ;;
  6853                           psect	text12,local,class=CODE,delta=2,merge=1
  6854                           	line	69
  6855                           global __ptext12
  6856  1218                     __ptext12:	;psect for function _vd_PiloterRelaisBistable
  6857                           psect	text12
  6858                           	file	"../source/gestionsorties.c"
  6859                           	line	69
  6860                           	global	__size_of_vd_PiloterRelaisBistable
  6861  003E                     	__size_of_vd_PiloterRelaisBistable	equ	__end_of_vd_PiloterRelaisBistable-_vd_PiloterRel
                                 aisBistable
  6862                           	
  6863  1218                     _vd_PiloterRelaisBistable:	
  6864                           ;incstack = 0
  6865                           	opt	stack 0
  6866                           ; Regs used in _vd_PiloterRelaisBistable: [wreg-fsr0h+status,2+status,0+pclath+cstack]
  6867                           ;vd_PiloterRelaisBistable@uc_NumeroRelaisBistable stored from wreg
  6868  1218  00D7               	movwf	(vd_PiloterRelaisBistable@uc_NumeroRelaisBistable)
  6869                           	line	73
  6870                           	
  6871  1219                     l4000:	
  6872                           ;gestionsorties.c: 73: if(st_SortiesRelaisBistables[uc_NumeroRelaisBistable].ub1_EtatRel
                                 aisBistable == 0)
  6873  1219  0857               	movf	(vd_PiloterRelaisBistable@uc_NumeroRelaisBistable),w
  6874  121A  3EC9               	addlw	_st_SortiesRelaisBistables&0ffh
  6875  121B  0084               	movwf	fsr0
  6876  121C  1800               	btfsc	indf,0
  6877  121D  2A1F               	goto	u4301
  6878  121E  2A20               	goto	u4300
  6879  121F                     u4301:
  6880  121F  2A3B               	goto	l4012
  6881  1220                     u4300:
  6882                           	line	76
  6883                           	
  6884  1220                     l4002:	
  6885                           ;gestionsorties.c: 74: {
  6886                           ;gestionsorties.c: 76: vd_PiloterSortie(uc_SORTIE_RELAIS_BISTABLE_SENS,uc_RBSENS1,0);
  6887  1220  01D4               	clrf	(vd_PiloterSortie@uc_NumeroSortie)
  6888  1221  01D5               	clrf	(vd_PiloterSortie@uc_Etat)
  6889  1222  3001               	movlw	(01h)
  6890  1223  120A  158A  2216   	fcall	_vd_PiloterSortie
              160A  118A         
  6891                           	line	77
  6892                           	
  6893  1228                     l4004:	
  6894                           ;gestionsorties.c: 77: CCPR2L = 0x5C;;
  6895  1228  305C               	movlw	(05Ch)
  6896  1229  1283               	bcf	status, 5	;RP0=0, select bank0
  6897  122A  1303               	bcf	status, 6	;RP1=0, select bank0
  6898  122B  009B               	movwf	(27)	;volatile
  6899                           	line	78
  6900                           	
  6901  122C                     l4006:	
  6902                           ;gestionsorties.c: 78: CCP2CON |= 0x30;;
  6903  122C  3030               	movlw	(030h)
  6904  122D  049D               	iorwf	(29),f	;volatile
  6905                           	line	79
  6906                           	
  6907  122E                     l4008:	
  6908                           ;gestionsorties.c: 79: uc_CompteurBiStable = 20;
  6909  122E  3014               	movlw	(014h)
  6910  122F  00BD               	movwf	(_uc_CompteurBiStable)
  6911                           	line	81
  6912                           	
  6913  1230                     l4010:	
  6914                           ;gestionsorties.c: 81: vd_PiloterSortie(uc_SORTIE_RELAIS_BISTABLE,uc_NumeroRelaisBistabl
                                 e,1);
  6915  1230  0857               	movf	(vd_PiloterRelaisBistable@uc_NumeroRelaisBistable),w
  6916  1231  00D4               	movwf	(vd_PiloterSortie@uc_NumeroSortie)
  6917  1232  01D5               	clrf	(vd_PiloterSortie@uc_Etat)
  6918  1233  0AD5               	incf	(vd_PiloterSortie@uc_Etat),f
  6919  1234  3002               	movlw	(02h)
  6920  1235  120A  158A  2216   	fcall	_vd_PiloterSortie
              160A  118A         
  6921                           	line	82
  6922                           ;gestionsorties.c: 82: }
  6923  123A  2A55               	goto	l176
  6924                           	line	85
  6925                           	
  6926  123B                     l4012:	
  6927                           ;gestionsorties.c: 83: else
  6928                           ;gestionsorties.c: 84: {
  6929                           ;gestionsorties.c: 85: vd_PiloterSortie(uc_SORTIE_RELAIS_BISTABLE_SENS,uc_RBSENS2,0);
  6930  123B  01D4               	clrf	(vd_PiloterSortie@uc_NumeroSortie)
  6931  123C  0AD4               	incf	(vd_PiloterSortie@uc_NumeroSortie),f
  6932  123D  01D5               	clrf	(vd_PiloterSortie@uc_Etat)
  6933  123E  3001               	movlw	(01h)
  6934  123F  120A  158A  2216   	fcall	_vd_PiloterSortie
              160A  118A         
  6935                           	line	86
  6936                           	
  6937  1244                     l4014:	
  6938                           ;gestionsorties.c: 86: CCPR2L = 0;
  6939  1244  1283               	bcf	status, 5	;RP0=0, select bank0
  6940  1245  1303               	bcf	status, 6	;RP1=0, select bank0
  6941  1246  019B               	clrf	(27)	;volatile
  6942                           	line	87
  6943                           	
  6944  1247                     l4016:	
  6945                           ;gestionsorties.c: 87: CCP2CON &= ~0x30;
  6946  1247  30CF               	movlw	(0CFh)
  6947  1248  059D               	andwf	(29),f	;volatile
  6948                           	line	88
  6949                           	
  6950  1249                     l4018:	
  6951                           ;gestionsorties.c: 88: uc_CompteurBiStable = 20;
  6952  1249  3014               	movlw	(014h)
  6953  124A  00BD               	movwf	(_uc_CompteurBiStable)
  6954                           	line	90
  6955                           	
  6956  124B                     l4020:	
  6957                           ;gestionsorties.c: 90: vd_PiloterSortie(uc_SORTIE_RELAIS_BISTABLE,uc_NumeroRelaisBistabl
                                 e,1);
  6958  124B  0857               	movf	(vd_PiloterRelaisBistable@uc_NumeroRelaisBistable),w
  6959  124C  00D4               	movwf	(vd_PiloterSortie@uc_NumeroSortie)
  6960  124D  01D5               	clrf	(vd_PiloterSortie@uc_Etat)
  6961  124E  0AD5               	incf	(vd_PiloterSortie@uc_Etat),f
  6962  124F  3002               	movlw	(02h)
  6963  1250  120A  158A  2216   	fcall	_vd_PiloterSortie
              160A  118A         
  6964                           	line	92
  6965                           	
  6966  1255                     l176:	
  6967  1255  0008               	return
  6968                           	opt stack 0
  6969                           GLOBAL	__end_of_vd_PiloterRelaisBistable
  6970  1256                     	__end_of_vd_PiloterRelaisBistable:
  6971                           	signat	_vd_PiloterRelaisBistable,4216
  6972                           	global	_vd_PiloterRelais
  6973                           
  6974 ;; *************** function _vd_PiloterRelais *****************
  6975 ;; Defined at:
  6976 ;;		line 48 in file "../source/gestionsorties.c"
  6977 ;; Parameters:    Size  Location     Type
  6978 ;;		None
  6979 ;; Auto vars:     Size  Location     Type
  6980 ;;  l_us_Masque     2    9[BANK0 ] unsigned short 
  6981 ;;  l_uc_Compteu    1   11[BANK0 ] unsigned char 
  6982 ;; Return value:  Size  Location     Type
  6983 ;;		None               void
  6984 ;; Registers used:
  6985 ;;		wreg, fsr0l, fsr0h, status,2, status,0, pclath, cstack
  6986 ;; Tracked objects:
  6987 ;;		On entry : 60/0
  6988 ;;		On exit  : 60/0
  6989 ;;		Unchanged: 0/0
  6990 ;; Data sizes:     COMMON   BANK0   BANK3   BANK1   BANK2
  6991 ;;      Params:         0       0       0       0       0
  6992 ;;      Locals:         0       3       0       0       0
  6993 ;;      Temps:          0       2       0       0       0
  6994 ;;      Totals:         0       5       0       0       0
  6995 ;;Total ram usage:        5 bytes
  6996 ;; Hardware stack levels used:    1
  6997 ;; Hardware stack levels required when called:    5
  6998 ;; This function calls:
  6999 ;;		_vd_PiloterSortie
  7000 ;; This function is called by:
  7001 ;;		_vd_PiloterSorties
  7002 ;; This function uses a non-reentrant model
  7003 ;;
  7004                           psect	text13,local,class=CODE,delta=2,merge=1
  7005                           	line	48
  7006                           global __ptext13
  7007  11DD                     __ptext13:	;psect for function _vd_PiloterRelais
  7008                           psect	text13
  7009                           	file	"../source/gestionsorties.c"
  7010                           	line	48
  7011                           	global	__size_of_vd_PiloterRelais
  7012  003B                     	__size_of_vd_PiloterRelais	equ	__end_of_vd_PiloterRelais-_vd_PiloterRelais
  7013                           	
  7014  11DD                     _vd_PiloterRelais:	
  7015                           ;incstack = 0
  7016                           	opt	stack 1
  7017                           ; Regs used in _vd_PiloterRelais: [wreg-fsr0h+status,2+status,0+pclath+cstack]
  7018                           	line	54
  7019                           	
  7020  11DD                     l3984:	
  7021                           ;gestionsorties.c: 50: unsigned char l_uc_Compteur;
  7022                           ;gestionsorties.c: 51: unsigned short l_us_Masque;
  7023                           ;gestionsorties.c: 54: for(l_uc_Compteur=0;l_uc_Compteur<uc_RM_NB;l_uc_Compteur++)
  7024  11DD  01DB               	clrf	(vd_PiloterRelais@l_uc_Compteur)
  7025  11DE  2A11               	goto	l3998
  7026                           	line	56
  7027                           	
  7028  11DF                     l3986:	
  7029                           ;gestionsorties.c: 55: {
  7030                           ;gestionsorties.c: 56: l_us_Masque = 0x01 << l_uc_Compteur;
  7031  11DF  01D9               	clrf	(vd_PiloterRelais@l_us_Masque)
  7032  11E0  0AD9               	incf	(vd_PiloterRelais@l_us_Masque),f
  7033  11E1  01DA               	clrf	(vd_PiloterRelais@l_us_Masque+1)
  7034                           	
  7035  11E2                     l3988:	
  7036  11E2  0A5B               	incf	(vd_PiloterRelais@l_uc_Compteur),w
  7037  11E3  29E7               	goto	u4260
  7038  11E4                     u4265:
  7039  11E4  1003               	clrc
  7040  11E5  0DD9               	rlf	(vd_PiloterRelais@l_us_Masque),f
  7041  11E6  0DDA               	rlf	(vd_PiloterRelais@l_us_Masque+1),f
  7042  11E7                     u4260:
  7043  11E7  3EFF               	addlw	-1
  7044  11E8  1D03               	skipz
  7045  11E9  29E4               	goto	u4265
  7046                           	line	59
  7047                           ;gestionsorties.c: 58: if( ((us_SortiesRelais & l_us_Masque) == 0)
  7048                           ;gestionsorties.c: 59: && (st_Commandes.ub1.AllumeTout == 0))
  7049  11EA  0859               	movf	(vd_PiloterRelais@l_us_Masque),w
  7050  11EB  052C               	andwf	(_us_SortiesRelais),w
  7051  11EC  00D7               	movwf	(??_vd_PiloterRelais+0)+0
  7052  11ED  085A               	movf	(vd_PiloterRelais@l_us_Masque+1),w
  7053  11EE  052D               	andwf	(_us_SortiesRelais+1),w
  7054  11EF  00D8               	movwf	1+(??_vd_PiloterRelais+0)+0
  7055  11F0  0858               	movf	1+(??_vd_PiloterRelais+0)+0,w
  7056  11F1  0457               	iorwf	0+(??_vd_PiloterRelais+0)+0,w
  7057  11F2  1D03               	skipz
  7058  11F3  29F5               	goto	u4271
  7059  11F4  29F6               	goto	u4270
  7060  11F5                     u4271:
  7061  11F5  2A04               	goto	l3994
  7062  11F6                     u4270:
  7063                           	
  7064  11F6                     l3990:	
  7065  11F6  193A               	btfsc	(_st_Commandes),2
  7066  11F7  29F9               	goto	u4281
  7067  11F8  29FA               	goto	u4280
  7068  11F9                     u4281:
  7069  11F9  2A04               	goto	l3994
  7070  11FA                     u4280:
  7071                           	line	61
  7072                           	
  7073  11FA                     l3992:	
  7074                           ;gestionsorties.c: 61: vd_PiloterSortie(uc_SORTIE_RELAIS,l_uc_Compteur,uc_OFF);
  7075  11FA  085B               	movf	(vd_PiloterRelais@l_uc_Compteur),w
  7076  11FB  00D4               	movwf	(vd_PiloterSortie@uc_NumeroSortie)
  7077  11FC  01D5               	clrf	(vd_PiloterSortie@uc_Etat)
  7078  11FD  3000               	movlw	(0)
  7079  11FE  120A  158A  2216   	fcall	_vd_PiloterSortie
              160A  118A         
  7080  1203  2A0E               	goto	l3996
  7081                           	line	64
  7082                           	
  7083  1204                     l3994:	
  7084                           ;gestionsorties.c: 62: else
  7085                           ;gestionsorties.c: 64: vd_PiloterSortie(uc_SORTIE_RELAIS,l_uc_Compteur,uc_ON);
  7086  1204  085B               	movf	(vd_PiloterRelais@l_uc_Compteur),w
  7087  1205  00D4               	movwf	(vd_PiloterSortie@uc_NumeroSortie)
  7088  1206  01D5               	clrf	(vd_PiloterSortie@uc_Etat)
  7089  1207  0AD5               	incf	(vd_PiloterSortie@uc_Etat),f
  7090  1208  3000               	movlw	(0)
  7091  1209  120A  158A  2216   	fcall	_vd_PiloterSortie
              160A  118A         
  7092                           	line	54
  7093                           	
  7094  120E                     l3996:	
  7095  120E  1283               	bcf	status, 5	;RP0=0, select bank0
  7096  120F  1303               	bcf	status, 6	;RP1=0, select bank0
  7097  1210  0ADB               	incf	(vd_PiloterRelais@l_uc_Compteur),f
  7098                           	
  7099  1211                     l3998:	
  7100  1211  0846               	movf	(_uc_RM_NB),w
  7101  1212  025B               	subwf	(vd_PiloterRelais@l_uc_Compteur),w
  7102  1213  1C03               	skipc
  7103  1214  2A16               	goto	u4291
  7104  1215  2A17               	goto	u4290
  7105  1216                     u4291:
  7106  1216  29DF               	goto	l3986
  7107  1217                     u4290:
  7108                           	line	66
  7109                           	
  7110  1217                     l171:	
  7111  1217  0008               	return
  7112                           	opt stack 0
  7113                           GLOBAL	__end_of_vd_PiloterRelais
  7114  1218                     	__end_of_vd_PiloterRelais:
  7115                           	signat	_vd_PiloterRelais,88
  7116                           	global	_vd_PiloterLed
  7117                           
  7118 ;; *************** function _vd_PiloterLed *****************
  7119 ;; Defined at:
  7120 ;;		line 15 in file "../source/gestionsorties.c"
  7121 ;; Parameters:    Size  Location     Type
  7122 ;;		None
  7123 ;; Auto vars:     Size  Location     Type
  7124 ;;		None
  7125 ;; Return value:  Size  Location     Type
  7126 ;;		None               void
  7127 ;; Registers used:
  7128 ;;		wreg, fsr0l, fsr0h, status,2, status,0, pclath, cstack
  7129 ;; Tracked objects:
  7130 ;;		On entry : 60/0
  7131 ;;		On exit  : 60/0
  7132 ;;		Unchanged: 0/0
  7133 ;; Data sizes:     COMMON   BANK0   BANK3   BANK1   BANK2
  7134 ;;      Params:         0       0       0       0       0
  7135 ;;      Locals:         0       0       0       0       0
  7136 ;;      Temps:          0       0       0       0       0
  7137 ;;      Totals:         0       0       0       0       0
  7138 ;;Total ram usage:        0 bytes
  7139 ;; Hardware stack levels used:    1
  7140 ;; Hardware stack levels required when called:    5
  7141 ;; This function calls:
  7142 ;;		_vd_PiloterSortie
  7143 ;; This function is called by:
  7144 ;;		_vd_PiloterSorties
  7145 ;; This function uses a non-reentrant model
  7146 ;;
  7147                           psect	text14,local,class=CODE,delta=2,merge=1
  7148                           	line	15
  7149                           global __ptext14
  7150  113E                     __ptext14:	;psect for function _vd_PiloterLed
  7151                           psect	text14
  7152                           	file	"../source/gestionsorties.c"
  7153                           	line	15
  7154                           	global	__size_of_vd_PiloterLed
  7155  0030                     	__size_of_vd_PiloterLed	equ	__end_of_vd_PiloterLed-_vd_PiloterLed
  7156                           	
  7157  113E                     _vd_PiloterLed:	
  7158                           ;incstack = 0
  7159                           	opt	stack 1
  7160                           ; Regs used in _vd_PiloterLed: [wreg-fsr0h+status,2+status,0+pclath+cstack]
  7161                           	line	17
  7162                           	
  7163  113E                     l3850:	
  7164                           ;gestionsorties.c: 17: if(uc_CompteurLED < 3)
  7165  113E  3003               	movlw	(03h)
  7166  113F  023F               	subwf	(_uc_CompteurLED),w
  7167  1140  1803               	skipnc
  7168  1141  2943               	goto	u4021
  7169  1142  2944               	goto	u4020
  7170  1143                     u4021:
  7171  1143  2951               	goto	l3856
  7172  1144                     u4020:
  7173                           	line	19
  7174                           	
  7175  1144                     l3852:	
  7176                           ;gestionsorties.c: 18: {
  7177                           ;gestionsorties.c: 19: vd_PiloterSortie(uc_SORTIE_LED,0,uc_ON);
  7178  1144  01D4               	clrf	(vd_PiloterSortie@uc_NumeroSortie)
  7179  1145  01D5               	clrf	(vd_PiloterSortie@uc_Etat)
  7180  1146  0AD5               	incf	(vd_PiloterSortie@uc_Etat),f
  7181  1147  3004               	movlw	(04h)
  7182  1148  120A  158A  2216   	fcall	_vd_PiloterSortie
              160A  118A         
  7183                           	line	20
  7184                           	
  7185  114D                     l3854:	
  7186                           ;gestionsorties.c: 20: uc_CompteurLED++;
  7187  114D  1283               	bcf	status, 5	;RP0=0, select bank0
  7188  114E  1303               	bcf	status, 6	;RP1=0, select bank0
  7189  114F  0ABF               	incf	(_uc_CompteurLED),f
  7190                           	line	21
  7191                           ;gestionsorties.c: 21: }
  7192  1150  296D               	goto	l163
  7193                           	line	22
  7194                           	
  7195  1151                     l3856:	
  7196                           ;gestionsorties.c: 22: else if(uc_CompteurLED < 25)
  7197  1151  3019               	movlw	(019h)
  7198  1152  023F               	subwf	(_uc_CompteurLED),w
  7199  1153  1803               	skipnc
  7200  1154  2956               	goto	u4031
  7201  1155  2957               	goto	u4030
  7202  1156                     u4031:
  7203  1156  2960               	goto	l3862
  7204  1157                     u4030:
  7205                           	line	24
  7206                           	
  7207  1157                     l3858:	
  7208                           ;gestionsorties.c: 23: {
  7209                           ;gestionsorties.c: 24: vd_PiloterSortie(uc_SORTIE_LED,0,uc_OFF);
  7210  1157  01D4               	clrf	(vd_PiloterSortie@uc_NumeroSortie)
  7211  1158  01D5               	clrf	(vd_PiloterSortie@uc_Etat)
  7212  1159  3004               	movlw	(04h)
  7213  115A  120A  158A  2216   	fcall	_vd_PiloterSortie
              160A  118A         
  7214  115F  294D               	goto	l3854
  7215                           	line	29
  7216                           	
  7217  1160                     l3862:	
  7218                           ;gestionsorties.c: 27: else
  7219                           ;gestionsorties.c: 28: {
  7220                           ;gestionsorties.c: 29: vd_PiloterSortie(uc_SORTIE_LED,0,uc_ON);
  7221  1160  01D4               	clrf	(vd_PiloterSortie@uc_NumeroSortie)
  7222  1161  01D5               	clrf	(vd_PiloterSortie@uc_Etat)
  7223  1162  0AD5               	incf	(vd_PiloterSortie@uc_Etat),f
  7224  1163  3004               	movlw	(04h)
  7225  1164  120A  158A  2216   	fcall	_vd_PiloterSortie
              160A  118A         
  7226                           	line	30
  7227                           	
  7228  1169                     l3864:	
  7229                           ;gestionsorties.c: 30: uc_CompteurLED = 1;
  7230  1169  1283               	bcf	status, 5	;RP0=0, select bank0
  7231  116A  1303               	bcf	status, 6	;RP1=0, select bank0
  7232  116B  01BF               	clrf	(_uc_CompteurLED)
  7233  116C  0ABF               	incf	(_uc_CompteurLED),f
  7234                           	line	45
  7235                           	
  7236  116D                     l163:	
  7237  116D  0008               	return
  7238                           	opt stack 0
  7239                           GLOBAL	__end_of_vd_PiloterLed
  7240  116E                     	__end_of_vd_PiloterLed:
  7241                           	signat	_vd_PiloterLed,88
  7242                           	global	_vd_Lit_Config
  7243                           
  7244 ;; *************** function _vd_Lit_Config *****************
  7245 ;; Defined at:
  7246 ;;		line 67 in file "../source/main.c"
  7247 ;; Parameters:    Size  Location     Type
  7248 ;;		None
  7249 ;; Auto vars:     Size  Location     Type
  7250 ;;  address         2   11[BANK0 ] unsigned int 
  7251 ;;  l_us_Test       2    8[BANK0 ] unsigned short 
  7252 ;;  l_uc_Compteu    1   10[BANK0 ] unsigned char 
  7253 ;; Return value:  Size  Location     Type
  7254 ;;		None               void
  7255 ;; Registers used:
  7256 ;;		wreg, fsr0l, fsr0h, status,2, status,0, btemp+1, pclath, cstack
  7257 ;; Tracked objects:
  7258 ;;		On entry : 0/0
  7259 ;;		On exit  : 60/0
  7260 ;;		Unchanged: 0/0
  7261 ;; Data sizes:     COMMON   BANK0   BANK3   BANK1   BANK2
  7262 ;;      Params:         0       0       0       0       0
  7263 ;;      Locals:         0       5       0       0       0
  7264 ;;      Temps:          0       2       0       0       0
  7265 ;;      Totals:         0       7       0       0       0
  7266 ;;Total ram usage:        7 bytes
  7267 ;; Hardware stack levels used:    1
  7268 ;; Hardware stack levels required when called:    5
  7269 ;; This function calls:
  7270 ;;		_eeprom_read
  7271 ;;		_eeprom_write
  7272 ;; This function is called by:
  7273 ;;		_main
  7274 ;; This function uses a non-reentrant model
  7275 ;;
  7276                           psect	text15,local,class=CODE,delta=2,merge=1
  7277                           	file	"../source/main.c"
  7278                           	line	67
  7279                           global __ptext15
  7280  0E50                     __ptext15:	;psect for function _vd_Lit_Config
  7281                           psect	text15
  7282                           	file	"../source/main.c"
  7283                           	line	67
  7284                           	global	__size_of_vd_Lit_Config
  7285  01B0                     	__size_of_vd_Lit_Config	equ	__end_of_vd_Lit_Config-_vd_Lit_Config
  7286                           	
  7287  0E50                     _vd_Lit_Config:	
  7288                           ;incstack = 0
  7289                           	opt	stack 2
  7290                           ; Regs used in _vd_Lit_Config: [wreg-fsr0h+status,2+status,0+btemp+1+pclath+cstack]
  7291                           	line	72
  7292                           	
  7293  0E50                     l4318:	
  7294                           ;main.c: 69: unsigned char l_uc_Compteur;
  7295                           ;main.c: 72: unsigned int address = 0x000E;
  7296  0E50  300E               	movlw	0Eh
  7297  0E51  1283               	bcf	status, 5	;RP0=0, select bank0
  7298  0E52  1303               	bcf	status, 6	;RP1=0, select bank0
  7299  0E53  00DB               	movwf	(vd_Lit_Config@address)
  7300  0E54  01DC               	clrf	(vd_Lit_Config@address+1)
  7301                           	line	73
  7302                           	
  7303  0E55                     l4320:	
  7304                           	line	75
  7305                           	
  7306  0E55                     l4322:	
  7307                           ;main.c: 75: l_us_Test = eeprom_read(address++);
  7308  0E55  300E               	movlw	(0Eh)
  7309  0E56  160A  118A  203A   	fcall	_eeprom_read
              120A  158A         
  7310  0E5B  1303               	bcf	status, 6	;RP1=0, select bank0
  7311  0E5C  00D8               	movwf	(vd_Lit_Config@l_us_Test)
  7312  0E5D  01D9               	clrf	(vd_Lit_Config@l_us_Test+1)
  7313                           	
  7314  0E5E                     l4324:	
  7315  0E5E  0ADB               	incf	(vd_Lit_Config@address),f
  7316  0E5F  1903               	skipnz
  7317  0E60  0ADC               	incf	(vd_Lit_Config@address+1),f
  7318                           	line	76
  7319                           	
  7320  0E61                     l4326:	
  7321                           ;main.c: 76: l_us_Test |= (eeprom_read(address++) << 8);
  7322  0E61  085B               	movf	(vd_Lit_Config@address),w
  7323  0E62  160A  118A  203A   	fcall	_eeprom_read
              120A  158A         
  7324  0E67  1303               	bcf	status, 6	;RP1=0, select bank0
  7325  0E68  00D6               	movwf	(??_vd_Lit_Config+0)+0
  7326  0E69  01D7               	clrf	(??_vd_Lit_Config+0)+0+1
  7327  0E6A  0856               	movf	(??_vd_Lit_Config+0)+0,w
  7328  0E6B  00D7               	movwf	(??_vd_Lit_Config+0)+1
  7329  0E6C  01D6               	clrf	(??_vd_Lit_Config+0)+0
  7330  0E6D  0856               	movf	0+(??_vd_Lit_Config+0)+0,w
  7331  0E6E  04D8               	iorwf	(vd_Lit_Config@l_us_Test),f
  7332  0E6F  0857               	movf	1+(??_vd_Lit_Config+0)+0,w
  7333  0E70  04D9               	iorwf	(vd_Lit_Config@l_us_Test+1),f
  7334                           	
  7335  0E71                     l4328:	
  7336  0E71  0ADB               	incf	(vd_Lit_Config@address),f
  7337  0E72  1903               	skipnz
  7338  0E73  0ADC               	incf	(vd_Lit_Config@address+1),f
  7339                           	line	77
  7340                           	
  7341  0E74                     l4330:	
  7342                           ;main.c: 77: if (l_us_Test == 0xAA55)
  7343  0E74  0859               		movf	(vd_Lit_Config@l_us_Test+1),w
  7344  0E75  3AAA               	xorlw	170
  7345  0E76  3055               	movlw	85
  7346  0E77  1903               	skipnz
  7347  0E78  0658               	xorwf	(vd_Lit_Config@l_us_Test),w
  7348                           
  7349  0E79  1D03               	skipz
  7350  0E7A  2E7C               	goto	u4701
  7351  0E7B  2E7D               	goto	u4700
  7352  0E7C                     u4701:
  7353  0E7C  2F22               	goto	l4392
  7354  0E7D                     u4700:
  7355                           	line	83
  7356                           	
  7357  0E7D                     l4332:	
  7358                           ;main.c: 78: {
  7359                           ;main.c: 83: us_SortiesRelais = eeprom_read(address++);
  7360  0E7D  085B               	movf	(vd_Lit_Config@address),w
  7361  0E7E  160A  118A  203A   	fcall	_eeprom_read
              120A  158A         
  7362  0E83  1303               	bcf	status, 6	;RP1=0, select bank0
  7363  0E84  00AC               	movwf	(_us_SortiesRelais)
  7364  0E85  01AD               	clrf	(_us_SortiesRelais+1)
  7365                           	
  7366  0E86                     l4334:	
  7367  0E86  0ADB               	incf	(vd_Lit_Config@address),f
  7368  0E87  1903               	skipnz
  7369  0E88  0ADC               	incf	(vd_Lit_Config@address+1),f
  7370                           	line	84
  7371                           	
  7372  0E89                     l4336:	
  7373                           ;main.c: 84: us_SortiesRelais |= (eeprom_read(address++) << 8);
  7374  0E89  085B               	movf	(vd_Lit_Config@address),w
  7375  0E8A  160A  118A  203A   	fcall	_eeprom_read
              120A  158A         
  7376  0E8F  1303               	bcf	status, 6	;RP1=0, select bank0
  7377  0E90  00D6               	movwf	(??_vd_Lit_Config+0)+0
  7378  0E91  01D7               	clrf	(??_vd_Lit_Config+0)+0+1
  7379  0E92  0856               	movf	(??_vd_Lit_Config+0)+0,w
  7380  0E93  00D7               	movwf	(??_vd_Lit_Config+0)+1
  7381  0E94  01D6               	clrf	(??_vd_Lit_Config+0)+0
  7382  0E95  0856               	movf	0+(??_vd_Lit_Config+0)+0,w
  7383  0E96  04AC               	iorwf	(_us_SortiesRelais),f
  7384  0E97  0857               	movf	1+(??_vd_Lit_Config+0)+0,w
  7385  0E98  04AD               	iorwf	(_us_SortiesRelais+1),f
  7386                           	
  7387  0E99                     l4338:	
  7388  0E99  0ADB               	incf	(vd_Lit_Config@address),f
  7389  0E9A  1903               	skipnz
  7390  0E9B  0ADC               	incf	(vd_Lit_Config@address+1),f
  7391                           	line	89
  7392                           	
  7393  0E9C                     l4340:	
  7394                           ;main.c: 89: for(l_uc_Compteur=0;l_uc_Compteur<uc_VARIATEUR_NB;l_uc_Compteur++)
  7395  0E9C  01DA               	clrf	(vd_Lit_Config@l_uc_Compteur)
  7396  0E9D  2EDF               	goto	l4354
  7397                           	line	91
  7398                           	
  7399  0E9E                     l4342:	
  7400                           ;main.c: 90: {
  7401                           ;main.c: 91: st_Variateurs[l_uc_Compteur].c_Eclairage = eeprom_read(address++);
  7402  0E9E  085A               	movf	(vd_Lit_Config@l_uc_Compteur),w
  7403  0E9F  075A               	addwf	(vd_Lit_Config@l_uc_Compteur),w
  7404  0EA0  075A               	addwf	(vd_Lit_Config@l_uc_Compteur),w
  7405  0EA1  3ED5               	addlw	_st_Variateurs&0ffh
  7406  0EA2  0084               	movwf	fsr0
  7407  0EA3  085B               	movf	(vd_Lit_Config@address),w
  7408  0EA4  160A  118A  203A   	fcall	_eeprom_read
              120A  158A         
  7409  0EA9  1383               	bcf	status, 7	;select IRP bank1
  7410  0EAA  0080               	movwf	indf
  7411                           	
  7412  0EAB                     l4344:	
  7413  0EAB  1303               	bcf	status, 6	;RP1=0, select bank0
  7414  0EAC  0ADB               	incf	(vd_Lit_Config@address),f
  7415  0EAD  1903               	skipnz
  7416  0EAE  0ADC               	incf	(vd_Lit_Config@address+1),f
  7417                           	line	92
  7418                           	
  7419  0EAF                     l4346:	
  7420                           ;main.c: 92: st_Variateurs[l_uc_Compteur].c_EclairageOld = eeprom_read(address++);
  7421  0EAF  085A               	movf	(vd_Lit_Config@l_uc_Compteur),w
  7422  0EB0  075A               	addwf	(vd_Lit_Config@l_uc_Compteur),w
  7423  0EB1  075A               	addwf	(vd_Lit_Config@l_uc_Compteur),w
  7424  0EB2  3ED6               	addlw	_st_Variateurs+01h&0ffh
  7425  0EB3  0084               	movwf	fsr0
  7426  0EB4  085B               	movf	(vd_Lit_Config@address),w
  7427  0EB5  160A  118A  203A   	fcall	_eeprom_read
              120A  158A         
  7428  0EBA  1383               	bcf	status, 7	;select IRP bank1
  7429  0EBB  0080               	movwf	indf
  7430  0EBC  1303               	bcf	status, 6	;RP1=0, select bank0
  7431  0EBD  0ADB               	incf	(vd_Lit_Config@address),f
  7432  0EBE  1903               	skipnz
  7433  0EBF  0ADC               	incf	(vd_Lit_Config@address+1),f
  7434                           	line	93
  7435                           	
  7436  0EC0                     l4348:	
  7437                           ;main.c: 93: st_EntreesVariateur[l_uc_Compteur].ub3_EntreeMode = eeprom_read(address++) 
                                 & 0x07;
  7438  0EC0  085B               	movf	(vd_Lit_Config@address),w
  7439  0EC1  160A  118A  203A   	fcall	_eeprom_read
              120A  158A         
  7440  0EC6  3907               	andlw	07h
  7441  0EC7  1303               	bcf	status, 6	;RP1=0, select bank0
  7442  0EC8  00D6               	movwf	(??_vd_Lit_Config+0)+0
  7443  0EC9  085A               	movf	(vd_Lit_Config@l_uc_Compteur),w
  7444  0ECA  00D7               	movwf	(??_vd_Lit_Config+1)+0
  7445  0ECB  3001               	movlw	(02h)-1
  7446  0ECC                     u4715:
  7447  0ECC  1003               	clrc
  7448  0ECD  0DD7               	rlf	(??_vd_Lit_Config+1)+0,f
  7449  0ECE  3EFF               	addlw	-1
  7450  0ECF  1D03               	skipz
  7451  0ED0  2ECC               	goto	u4715
  7452  0ED1  1003               	clrc
  7453  0ED2  0D57               	rlf	(??_vd_Lit_Config+1)+0,w
  7454  0ED3  3EA2               	addlw	_st_EntreesVariateur+02h&0ffh
  7455  0ED4  0084               	movwf	fsr0
  7456  0ED5  1383               	bcf	status, 7	;select IRP bank1
  7457  0ED6  0800               	movf	indf,w
  7458  0ED7  0656               	xorwf	(??_vd_Lit_Config+0)+0,w
  7459  0ED8  39F8               	andlw	not ((1<<3)-1)
  7460  0ED9  0656               	xorwf	(??_vd_Lit_Config+0)+0,w
  7461  0EDA  0080               	movwf	indf
  7462                           	
  7463  0EDB                     l4350:	
  7464  0EDB  0ADB               	incf	(vd_Lit_Config@address),f
  7465  0EDC  1903               	skipnz
  7466  0EDD  0ADC               	incf	(vd_Lit_Config@address+1),f
  7467                           	line	89
  7468                           	
  7469  0EDE                     l4352:	
  7470  0EDE  0ADA               	incf	(vd_Lit_Config@l_uc_Compteur),f
  7471                           	
  7472  0EDF                     l4354:	
  7473  0EDF  0847               	movf	(_uc_VARIATEUR_NB),w
  7474  0EE0  025A               	subwf	(vd_Lit_Config@l_uc_Compteur),w
  7475  0EE1  1C03               	skipc
  7476  0EE2  2EE4               	goto	u4721
  7477  0EE3  2EE5               	goto	u4720
  7478  0EE4                     u4721:
  7479  0EE4  2E9E               	goto	l4342
  7480  0EE5                     u4720:
  7481                           	line	97
  7482                           	
  7483  0EE5                     l4356:	
  7484                           ;main.c: 94: }
  7485                           ;main.c: 97: address = 0x002A;
  7486  0EE5  302A               	movlw	02Ah
  7487  0EE6  00DB               	movwf	(vd_Lit_Config@address)
  7488  0EE7  01DC               	clrf	(vd_Lit_Config@address+1)
  7489                           	line	98
  7490                           	
  7491  0EE8                     l4358:	
  7492                           ;main.c: 98: for (l_uc_Compteur = 0; l_uc_Compteur < RB_NB/2; l_uc_Compteur++)
  7493  0EE8  01DA               	clrf	(vd_Lit_Config@l_uc_Compteur)
  7494                           	line	100
  7495                           	
  7496  0EE9                     l4364:	
  7497                           ;main.c: 99: {
  7498                           ;main.c: 100: uc_TempsCdeVolet[l_uc_Compteur] = eeprom_read(address++);
  7499  0EE9  085A               	movf	(vd_Lit_Config@l_uc_Compteur),w
  7500  0EEA  3E20               	addlw	_uc_TempsCdeVolet&0ffh
  7501  0EEB  0084               	movwf	fsr0
  7502  0EEC  085B               	movf	(vd_Lit_Config@address),w
  7503  0EED  160A  118A  203A   	fcall	_eeprom_read
              120A  158A         
  7504  0EF2  1383               	bcf	status, 7	;select IRP bank0
  7505  0EF3  0080               	movwf	indf
  7506                           	
  7507  0EF4                     l4366:	
  7508  0EF4  1303               	bcf	status, 6	;RP1=0, select bank0
  7509  0EF5  0ADB               	incf	(vd_Lit_Config@address),f
  7510  0EF6  1903               	skipnz
  7511  0EF7  0ADC               	incf	(vd_Lit_Config@address+1),f
  7512                           	line	98
  7513                           	
  7514  0EF8                     l4368:	
  7515  0EF8  0ADA               	incf	(vd_Lit_Config@l_uc_Compteur),f
  7516                           	
  7517  0EF9                     l4370:	
  7518  0EF9  3006               	movlw	(06h)
  7519  0EFA  025A               	subwf	(vd_Lit_Config@l_uc_Compteur),w
  7520  0EFB  1C03               	skipc
  7521  0EFC  2EFE               	goto	u4731
  7522  0EFD  2EFF               	goto	u4730
  7523  0EFE                     u4731:
  7524  0EFE  2EE9               	goto	l4364
  7525  0EFF                     u4730:
  7526                           	line	104
  7527                           	
  7528  0EFF                     l4372:	
  7529                           ;main.c: 101: }
  7530                           ;main.c: 104: address = 0x0032;
  7531  0EFF  3032               	movlw	032h
  7532  0F00  00DB               	movwf	(vd_Lit_Config@address)
  7533  0F01  01DC               	clrf	(vd_Lit_Config@address+1)
  7534                           	line	105
  7535                           	
  7536  0F02                     l4374:	
  7537                           ;main.c: 105: for (l_uc_Compteur = 0; l_uc_Compteur < RM_NB; l_uc_Compteur++)
  7538  0F02  01DA               	clrf	(vd_Lit_Config@l_uc_Compteur)
  7539                           	line	107
  7540                           	
  7541  0F03                     l4380:	
  7542                           ;main.c: 106: {
  7543                           ;main.c: 107: uc_TempsCdeLampe[l_uc_Compteur] = eeprom_read(address++);
  7544  0F03  085A               	movf	(vd_Lit_Config@l_uc_Compteur),w
  7545  0F04  3EB0               	addlw	_uc_TempsCdeLampe&0ffh
  7546  0F05  0084               	movwf	fsr0
  7547  0F06  085B               	movf	(vd_Lit_Config@address),w
  7548  0F07  160A  118A  203A   	fcall	_eeprom_read
              120A  158A         
  7549  0F0C  1383               	bcf	status, 7	;select IRP bank1
  7550  0F0D  0080               	movwf	indf
  7551                           	
  7552  0F0E                     l4382:	
  7553  0F0E  1303               	bcf	status, 6	;RP1=0, select bank0
  7554  0F0F  0ADB               	incf	(vd_Lit_Config@address),f
  7555  0F10  1903               	skipnz
  7556  0F11  0ADC               	incf	(vd_Lit_Config@address+1),f
  7557                           	line	105
  7558                           	
  7559  0F12                     l4384:	
  7560  0F12  0ADA               	incf	(vd_Lit_Config@l_uc_Compteur),f
  7561                           	
  7562  0F13                     l4386:	
  7563  0F13  300D               	movlw	(0Dh)
  7564  0F14  025A               	subwf	(vd_Lit_Config@l_uc_Compteur),w
  7565  0F15  1C03               	skipc
  7566  0F16  2F18               	goto	u4741
  7567  0F17  2F19               	goto	u4740
  7568  0F18                     u4741:
  7569  0F18  2F03               	goto	l4380
  7570  0F19                     u4740:
  7571                           	line	111
  7572                           	
  7573  0F19                     l4388:	
  7574                           	line	112
  7575                           	
  7576  0F19                     l4390:	
  7577                           ;main.c: 112: uc_compteur_lecture_eeprom = eeprom_read(address);
  7578  0F19  3042               	movlw	(042h)
  7579  0F1A  160A  118A  203A   	fcall	_eeprom_read
              120A  158A         
  7580  0F1F  1303               	bcf	status, 6	;RP1=0, select bank0
  7581  0F20  00CA               	movwf	(_uc_compteur_lecture_eeprom)
  7582                           	line	114
  7583                           ;main.c: 114: }
  7584  0F21  2FFF               	goto	l641
  7585                           	line	121
  7586                           	
  7587  0F22                     l4392:	
  7588                           ;main.c: 115: else
  7589                           ;main.c: 116: {
  7590                           ;main.c: 121: eeprom_write(address++, 0);
  7591  0F22  01D4               	clrf	(eeprom_write@value)
  7592  0F23  085B               	movf	(vd_Lit_Config@address),w
  7593  0F24  160A  118A  2092   	fcall	_eeprom_write
              120A  158A         
  7594                           	
  7595  0F29                     l4394:	
  7596  0F29  1283               	bcf	status, 5	;RP0=0, select bank0
  7597  0F2A  1303               	bcf	status, 6	;RP1=0, select bank0
  7598  0F2B  0ADB               	incf	(vd_Lit_Config@address),f
  7599  0F2C  1903               	skipnz
  7600  0F2D  0ADC               	incf	(vd_Lit_Config@address+1),f
  7601                           	line	122
  7602                           	
  7603  0F2E                     l4396:	
  7604                           ;main.c: 122: eeprom_write(address++, 0);
  7605  0F2E  01D4               	clrf	(eeprom_write@value)
  7606  0F2F  085B               	movf	(vd_Lit_Config@address),w
  7607  0F30  160A  118A  2092   	fcall	_eeprom_write
              120A  158A         
  7608  0F35  1283               	bcf	status, 5	;RP0=0, select bank0
  7609  0F36  1303               	bcf	status, 6	;RP1=0, select bank0
  7610  0F37  0ADB               	incf	(vd_Lit_Config@address),f
  7611  0F38  1903               	skipnz
  7612  0F39  0ADC               	incf	(vd_Lit_Config@address+1),f
  7613                           	line	123
  7614                           	
  7615  0F3A                     l4398:	
  7616                           ;main.c: 123: us_SortiesRelais = 0;
  7617  0F3A  01AC               	clrf	(_us_SortiesRelais)
  7618  0F3B  01AD               	clrf	(_us_SortiesRelais+1)
  7619                           	line	128
  7620                           	
  7621  0F3C                     l4400:	
  7622                           ;main.c: 128: for(l_uc_Compteur=0;l_uc_Compteur<uc_VARIATEUR_NB;l_uc_Compteur++)
  7623  0F3C  01DA               	clrf	(vd_Lit_Config@l_uc_Compteur)
  7624  0F3D  2F82               	goto	l4420
  7625                           	line	130
  7626                           	
  7627  0F3E                     l4402:	
  7628                           ;main.c: 129: {
  7629                           ;main.c: 130: eeprom_write(address++, 0);
  7630  0F3E  01D4               	clrf	(eeprom_write@value)
  7631  0F3F  085B               	movf	(vd_Lit_Config@address),w
  7632  0F40  160A  118A  2092   	fcall	_eeprom_write
              120A  158A         
  7633                           	
  7634  0F45                     l4404:	
  7635  0F45  1283               	bcf	status, 5	;RP0=0, select bank0
  7636  0F46  1303               	bcf	status, 6	;RP1=0, select bank0
  7637  0F47  0ADB               	incf	(vd_Lit_Config@address),f
  7638  0F48  1903               	skipnz
  7639  0F49  0ADC               	incf	(vd_Lit_Config@address+1),f
  7640                           	line	131
  7641                           	
  7642  0F4A                     l4406:	
  7643                           ;main.c: 131: eeprom_write(address++, 0);
  7644  0F4A  01D4               	clrf	(eeprom_write@value)
  7645  0F4B  085B               	movf	(vd_Lit_Config@address),w
  7646  0F4C  160A  118A  2092   	fcall	_eeprom_write
              120A  158A         
  7647  0F51  1283               	bcf	status, 5	;RP0=0, select bank0
  7648  0F52  1303               	bcf	status, 6	;RP1=0, select bank0
  7649  0F53  0ADB               	incf	(vd_Lit_Config@address),f
  7650  0F54  1903               	skipnz
  7651  0F55  0ADC               	incf	(vd_Lit_Config@address+1),f
  7652                           	line	132
  7653                           	
  7654  0F56                     l4408:	
  7655                           ;main.c: 132: st_Variateurs[l_uc_Compteur].c_Eclairage = 0;
  7656  0F56  085A               	movf	(vd_Lit_Config@l_uc_Compteur),w
  7657  0F57  075A               	addwf	(vd_Lit_Config@l_uc_Compteur),w
  7658  0F58  075A               	addwf	(vd_Lit_Config@l_uc_Compteur),w
  7659  0F59  3ED5               	addlw	_st_Variateurs&0ffh
  7660  0F5A  0084               	movwf	fsr0
  7661  0F5B  1383               	bcf	status, 7	;select IRP bank1
  7662  0F5C  0180               	clrf	indf
  7663                           	line	133
  7664                           	
  7665  0F5D                     l4410:	
  7666                           ;main.c: 133: st_Variateurs[l_uc_Compteur].c_EclairageOld = 0;
  7667  0F5D  085A               	movf	(vd_Lit_Config@l_uc_Compteur),w
  7668  0F5E  075A               	addwf	(vd_Lit_Config@l_uc_Compteur),w
  7669  0F5F  075A               	addwf	(vd_Lit_Config@l_uc_Compteur),w
  7670  0F60  3ED6               	addlw	_st_Variateurs+01h&0ffh
  7671  0F61  0084               	movwf	fsr0
  7672  0F62  0180               	clrf	indf
  7673                           	line	134
  7674                           	
  7675  0F63                     l4412:	
  7676                           ;main.c: 134: eeprom_write(address++, uc_MODE_VARIATEUR);
  7677  0F63  01D4               	clrf	(eeprom_write@value)
  7678  0F64  0AD4               	incf	(eeprom_write@value),f
  7679  0F65  085B               	movf	(vd_Lit_Config@address),w
  7680  0F66  160A  118A  2092   	fcall	_eeprom_write
              120A  158A         
  7681                           	
  7682  0F6B                     l4414:	
  7683  0F6B  1283               	bcf	status, 5	;RP0=0, select bank0
  7684  0F6C  1303               	bcf	status, 6	;RP1=0, select bank0
  7685  0F6D  0ADB               	incf	(vd_Lit_Config@address),f
  7686  0F6E  1903               	skipnz
  7687  0F6F  0ADC               	incf	(vd_Lit_Config@address+1),f
  7688                           	line	135
  7689                           	
  7690  0F70                     l4416:	
  7691                           ;main.c: 135: st_EntreesVariateur[l_uc_Compteur].ub3_EntreeMode = uc_MODE_VARIATEUR;
  7692  0F70  085A               	movf	(vd_Lit_Config@l_uc_Compteur),w
  7693  0F71  00D6               	movwf	(??_vd_Lit_Config+0)+0
  7694  0F72  3001               	movlw	(02h)-1
  7695  0F73                     u4755:
  7696  0F73  1003               	clrc
  7697  0F74  0DD6               	rlf	(??_vd_Lit_Config+0)+0,f
  7698  0F75  3EFF               	addlw	-1
  7699  0F76  1D03               	skipz
  7700  0F77  2F73               	goto	u4755
  7701  0F78  1003               	clrc
  7702  0F79  0D56               	rlf	(??_vd_Lit_Config+0)+0,w
  7703  0F7A  3EA2               	addlw	_st_EntreesVariateur+02h&0ffh
  7704  0F7B  0084               	movwf	fsr0
  7705  0F7C  1383               	bcf	status, 7	;select IRP bank1
  7706  0F7D  0800               	movf	indf,w
  7707  0F7E  39F8               	andlw	not (((1<<3)-1)<<0)
  7708  0F7F  3801               	iorlw	(01h & ((1<<3)-1))<<0
  7709  0F80  0080               	movwf	indf
  7710                           	line	128
  7711                           	
  7712  0F81                     l4418:	
  7713  0F81  0ADA               	incf	(vd_Lit_Config@l_uc_Compteur),f
  7714                           	
  7715  0F82                     l4420:	
  7716  0F82  0847               	movf	(_uc_VARIATEUR_NB),w
  7717  0F83  025A               	subwf	(vd_Lit_Config@l_uc_Compteur),w
  7718  0F84  1C03               	skipc
  7719  0F85  2F87               	goto	u4761
  7720  0F86  2F88               	goto	u4760
  7721  0F87                     u4761:
  7722  0F87  2F3E               	goto	l4402
  7723  0F88                     u4760:
  7724                           	line	139
  7725                           	
  7726  0F88                     l4422:	
  7727                           ;main.c: 136: }
  7728                           ;main.c: 139: address = 0x002A;
  7729  0F88  302A               	movlw	02Ah
  7730  0F89  00DB               	movwf	(vd_Lit_Config@address)
  7731  0F8A  01DC               	clrf	(vd_Lit_Config@address+1)
  7732                           	line	140
  7733                           	
  7734  0F8B                     l4424:	
  7735                           ;main.c: 140: for (l_uc_Compteur = 0; l_uc_Compteur < RB_NB/2; l_uc_Compteur++)
  7736  0F8B  01DA               	clrf	(vd_Lit_Config@l_uc_Compteur)
  7737                           	line	151
  7738                           	
  7739  0F8C                     l4430:	
  7740                           ;main.c: 141: {
  7741                           ;main.c: 150: {
  7742                           ;main.c: 151: uc_TempsCdeVolet[l_uc_Compteur] = 2*60;
  7743  0F8C  085A               	movf	(vd_Lit_Config@l_uc_Compteur),w
  7744  0F8D  3E20               	addlw	_uc_TempsCdeVolet&0ffh
  7745  0F8E  0084               	movwf	fsr0
  7746  0F8F  3078               	movlw	(078h)
  7747  0F90  1383               	bcf	status, 7	;select IRP bank0
  7748  0F91  0080               	movwf	indf
  7749                           	line	153
  7750                           	
  7751  0F92                     l4432:	
  7752                           ;main.c: 152: }
  7753                           ;main.c: 153: eeprom_write(address++, uc_TempsCdeVolet[l_uc_Compteur]);
  7754  0F92  085A               	movf	(vd_Lit_Config@l_uc_Compteur),w
  7755  0F93  3E20               	addlw	_uc_TempsCdeVolet&0ffh
  7756  0F94  0084               	movwf	fsr0
  7757  0F95  0800               	movf	indf,w
  7758  0F96  00D4               	movwf	(eeprom_write@value)
  7759  0F97  085B               	movf	(vd_Lit_Config@address),w
  7760  0F98  160A  118A  2092   	fcall	_eeprom_write
              120A  158A         
  7761                           	
  7762  0F9D                     l4434:	
  7763  0F9D  1283               	bcf	status, 5	;RP0=0, select bank0
  7764  0F9E  1303               	bcf	status, 6	;RP1=0, select bank0
  7765  0F9F  0ADB               	incf	(vd_Lit_Config@address),f
  7766  0FA0  1903               	skipnz
  7767  0FA1  0ADC               	incf	(vd_Lit_Config@address+1),f
  7768                           	line	140
  7769                           	
  7770  0FA2                     l4436:	
  7771  0FA2  0ADA               	incf	(vd_Lit_Config@l_uc_Compteur),f
  7772                           	
  7773  0FA3                     l4438:	
  7774  0FA3  3006               	movlw	(06h)
  7775  0FA4  025A               	subwf	(vd_Lit_Config@l_uc_Compteur),w
  7776  0FA5  1C03               	skipc
  7777  0FA6  2FA8               	goto	u4771
  7778  0FA7  2FA9               	goto	u4770
  7779  0FA8                     u4771:
  7780  0FA8  2F8C               	goto	l4430
  7781  0FA9                     u4770:
  7782                           	line	157
  7783                           	
  7784  0FA9                     l4440:	
  7785                           ;main.c: 154: }
  7786                           ;main.c: 157: address = 0x0032;
  7787  0FA9  3032               	movlw	032h
  7788  0FAA  00DB               	movwf	(vd_Lit_Config@address)
  7789  0FAB  01DC               	clrf	(vd_Lit_Config@address+1)
  7790                           	line	158
  7791                           	
  7792  0FAC                     l4442:	
  7793                           ;main.c: 158: for (l_uc_Compteur = 0; l_uc_Compteur < RM_NB; l_uc_Compteur++)
  7794  0FAC  01DA               	clrf	(vd_Lit_Config@l_uc_Compteur)
  7795                           	line	160
  7796                           	
  7797  0FAD                     l4448:	
  7798                           ;main.c: 159: {
  7799                           ;main.c: 160: eeprom_write(address++, 0);
  7800  0FAD  01D4               	clrf	(eeprom_write@value)
  7801  0FAE  085B               	movf	(vd_Lit_Config@address),w
  7802  0FAF  160A  118A  2092   	fcall	_eeprom_write
              120A  158A         
  7803                           	
  7804  0FB4                     l4450:	
  7805  0FB4  1283               	bcf	status, 5	;RP0=0, select bank0
  7806  0FB5  1303               	bcf	status, 6	;RP1=0, select bank0
  7807  0FB6  0ADB               	incf	(vd_Lit_Config@address),f
  7808  0FB7  1903               	skipnz
  7809  0FB8  0ADC               	incf	(vd_Lit_Config@address+1),f
  7810                           	line	161
  7811                           	
  7812  0FB9                     l4452:	
  7813                           ;main.c: 161: uc_TempsCdeLampe[l_uc_Compteur] = 0;
  7814  0FB9  085A               	movf	(vd_Lit_Config@l_uc_Compteur),w
  7815  0FBA  3EB0               	addlw	_uc_TempsCdeLampe&0ffh
  7816  0FBB  0084               	movwf	fsr0
  7817  0FBC  1383               	bcf	status, 7	;select IRP bank1
  7818  0FBD  0180               	clrf	indf
  7819                           	line	158
  7820                           	
  7821  0FBE                     l4454:	
  7822  0FBE  0ADA               	incf	(vd_Lit_Config@l_uc_Compteur),f
  7823                           	
  7824  0FBF                     l4456:	
  7825  0FBF  300D               	movlw	(0Dh)
  7826  0FC0  025A               	subwf	(vd_Lit_Config@l_uc_Compteur),w
  7827  0FC1  1C03               	skipc
  7828  0FC2  2FC4               	goto	u4781
  7829  0FC3  2FC5               	goto	u4780
  7830  0FC4                     u4781:
  7831  0FC4  2FAD               	goto	l4448
  7832  0FC5                     u4780:
  7833                           	line	165
  7834                           	
  7835  0FC5                     l4458:	
  7836                           ;main.c: 162: }
  7837                           ;main.c: 165: address = 0x0042;
  7838  0FC5  3042               	movlw	042h
  7839  0FC6  00DB               	movwf	(vd_Lit_Config@address)
  7840  0FC7  01DC               	clrf	(vd_Lit_Config@address+1)
  7841                           	line	166
  7842                           	
  7843  0FC8                     l4460:	
  7844                           ;main.c: 166: uc_compteur_lecture_eeprom = 0;
  7845  0FC8  01CA               	clrf	(_uc_compteur_lecture_eeprom)
  7846                           	line	167
  7847                           	
  7848  0FC9                     l4462:	
  7849                           ;main.c: 167: eeprom_write(address++, uc_compteur_lecture_eeprom);
  7850  0FC9  01D4               	clrf	(eeprom_write@value)
  7851  0FCA  3042               	movlw	(042h)
  7852  0FCB  160A  118A  2092   	fcall	_eeprom_write
              120A  158A         
  7853                           	
  7854  0FD0                     l4464:	
  7855  0FD0  1283               	bcf	status, 5	;RP0=0, select bank0
  7856  0FD1  1303               	bcf	status, 6	;RP1=0, select bank0
  7857  0FD2  0ADB               	incf	(vd_Lit_Config@address),f
  7858  0FD3  1903               	skipnz
  7859  0FD4  0ADC               	incf	(vd_Lit_Config@address+1),f
  7860                           	line	169
  7861                           	
  7862  0FD5                     l4466:	
  7863                           ;main.c: 169: address = 0x000D;
  7864  0FD5  300D               	movlw	0Dh
  7865  0FD6  00DB               	movwf	(vd_Lit_Config@address)
  7866  0FD7  01DC               	clrf	(vd_Lit_Config@address+1)
  7867                           	line	170
  7868                           	
  7869  0FD8                     l4468:	
  7870                           ;main.c: 170: eeprom_write(address++, 1);
  7871  0FD8  01D4               	clrf	(eeprom_write@value)
  7872  0FD9  0AD4               	incf	(eeprom_write@value),f
  7873  0FDA  300D               	movlw	(0Dh)
  7874  0FDB  160A  118A  2092   	fcall	_eeprom_write
              120A  158A         
  7875                           	
  7876  0FE0                     l4470:	
  7877  0FE0  1283               	bcf	status, 5	;RP0=0, select bank0
  7878  0FE1  1303               	bcf	status, 6	;RP1=0, select bank0
  7879  0FE2  0ADB               	incf	(vd_Lit_Config@address),f
  7880  0FE3  1903               	skipnz
  7881  0FE4  0ADC               	incf	(vd_Lit_Config@address+1),f
  7882                           	line	171
  7883                           	
  7884  0FE5                     l4472:	
  7885                           ;main.c: 171: eeprom_write(address++, 0x55);
  7886  0FE5  3055               	movlw	(055h)
  7887  0FE6  00D4               	movwf	(eeprom_write@value)
  7888  0FE7  085B               	movf	(vd_Lit_Config@address),w
  7889  0FE8  160A  118A  2092   	fcall	_eeprom_write
              120A  158A         
  7890                           	
  7891  0FED                     l4474:	
  7892  0FED  1283               	bcf	status, 5	;RP0=0, select bank0
  7893  0FEE  1303               	bcf	status, 6	;RP1=0, select bank0
  7894  0FEF  0ADB               	incf	(vd_Lit_Config@address),f
  7895  0FF0  1903               	skipnz
  7896  0FF1  0ADC               	incf	(vd_Lit_Config@address+1),f
  7897                           	line	172
  7898                           	
  7899  0FF2                     l4476:	
  7900                           ;main.c: 172: eeprom_write(address++, 0xAA);
  7901  0FF2  30AA               	movlw	(0AAh)
  7902  0FF3  00D4               	movwf	(eeprom_write@value)
  7903  0FF4  085B               	movf	(vd_Lit_Config@address),w
  7904  0FF5  160A  118A  2092   	fcall	_eeprom_write
              120A  158A         
  7905                           	
  7906  0FFA                     l4478:	
  7907  0FFA  1283               	bcf	status, 5	;RP0=0, select bank0
  7908  0FFB  1303               	bcf	status, 6	;RP1=0, select bank0
  7909  0FFC  0ADB               	incf	(vd_Lit_Config@address),f
  7910  0FFD  1903               	skipnz
  7911  0FFE  0ADC               	incf	(vd_Lit_Config@address+1),f
  7912                           	line	175
  7913                           	
  7914  0FFF                     l641:	
  7915  0FFF  0008               	return
  7916                           	opt stack 0
  7917                           GLOBAL	__end_of_vd_Lit_Config
  7918  1000                     	__end_of_vd_Lit_Config:
  7919                           	signat	_vd_Lit_Config,88
  7920                           	global	_eeprom_write
  7921                           
  7922 ;; *************** function _eeprom_write *****************
  7923 ;; Defined at:
  7924 ;;		line 6 in file "C:\Program Files (x86)\Microchip\xc8\v1.30\sources\pic\eewrite.c"
  7925 ;; Parameters:    Size  Location     Type
  7926 ;;  addr            1    wreg     unsigned char 
  7927 ;;  value           1    4[BANK0 ] unsigned char 
  7928 ;; Auto vars:     Size  Location     Type
  7929 ;;  addr            1    5[BANK0 ] unsigned char 
  7930 ;; Return value:  Size  Location     Type
  7931 ;;		None               void
  7932 ;; Registers used:
  7933 ;;		wreg, status,2, status,0
  7934 ;; Tracked objects:
  7935 ;;		On entry : 60/0
  7936 ;;		On exit  : 60/60
  7937 ;;		Unchanged: 0/0
  7938 ;; Data sizes:     COMMON   BANK0   BANK3   BANK1   BANK2
  7939 ;;      Params:         0       1       0       0       0
  7940 ;;      Locals:         0       1       0       0       0
  7941 ;;      Temps:          0       0       0       0       0
  7942 ;;      Totals:         0       2       0       0       0
  7943 ;;Total ram usage:        2 bytes
  7944 ;; Hardware stack levels used:    1
  7945 ;; Hardware stack levels required when called:    4
  7946 ;; This function calls:
  7947 ;;		Nothing
  7948 ;; This function is called by:
  7949 ;;		_vd_Verif_Version
  7950 ;;		_vd_Lit_Config
  7951 ;;		_vd_Sauve_Etat
  7952 ;;		_vd_Traitement_I2C
  7953 ;; This function uses a non-reentrant model
  7954 ;;
  7955                           psect	text16,local,class=CODE,delta=2,merge=1
  7956                           	file	"C:\Program Files (x86)\Microchip\xc8\v1.30\sources\pic\eewrite.c"
  7957                           	line	6
  7958                           global __ptext16
  7959  1092                     __ptext16:	;psect for function _eeprom_write
  7960                           psect	text16
  7961                           	file	"C:\Program Files (x86)\Microchip\xc8\v1.30\sources\pic\eewrite.c"
  7962                           	line	6
  7963                           	global	__size_of_eeprom_write
  7964  0027                     	__size_of_eeprom_write	equ	__end_of_eeprom_write-_eeprom_write
  7965                           	
  7966  1092                     _eeprom_write:	
  7967                           ;incstack = 0
  7968                           	opt	stack 2
  7969                           ; Regs used in _eeprom_write: [wreg+status,2+status,0]
  7970                           ;eeprom_write@addr stored from wreg
  7971  1092  00D5               	movwf	(eeprom_write@addr)
  7972                           	line	8
  7973                           	
  7974  1093                     l1084:	
  7975                           	
  7976  1093                     l1085:	
  7977  1093  1683               	bsf	status, 5	;RP0=1, select bank3
  7978  1094  1703               	bsf	status, 6	;RP1=1, select bank3
  7979  1095  188C               	btfsc	(3169/8)^0180h,(3169)&7	;volsfr
  7980  1096  2898               	goto	u4671
  7981  1097  2899               	goto	u4670
  7982  1098                     u4671:
  7983  1098  2893               	goto	l1085
  7984  1099                     u4670:
  7985                           	
  7986  1099                     l4298:	
  7987  1099  1283               	bcf	status, 5	;RP0=0, select bank0
  7988  109A  1303               	bcf	status, 6	;RP1=0, select bank0
  7989  109B  0855               	movf	(eeprom_write@addr),w
  7990  109C  1703               	bsf	status, 6	;RP1=1, select bank2
  7991  109D  008D               	movwf	(269)^0100h	;volatile
  7992  109E  1303               	bcf	status, 6	;RP1=0, select bank0
  7993  109F  0854               	movf	(eeprom_write@value),w
  7994  10A0  1703               	bsf	status, 6	;RP1=1, select bank2
  7995  10A1  008C               	movwf	(268)^0100h	;volatile
  7996                           	
  7997  10A2                     l4300:	
  7998  10A2  303F               	movlw	(03Fh)
  7999  10A3  1683               	bsf	status, 5	;RP0=1, select bank3
  8000  10A4  058C               	andwf	(396)^0180h,f	;volsfr
  8001                           	
  8002  10A5                     l4302:	
  8003  10A5  1003               	bcf	(24/8),(24)&7	;volatile
  8004                           	
  8005  10A6                     l4304:	
  8006  10A6  1F8B               	btfss	(95/8),(95)&7	;volatile
  8007  10A7  28A9               	goto	u4681
  8008  10A8  28AA               	goto	u4680
  8009  10A9                     u4681:
  8010  10A9  28AB               	goto	l1088
  8011  10AA                     u4680:
  8012                           	
  8013  10AA                     l4306:	
  8014  10AA  1403               	bsf	(24/8),(24)&7	;volatile
  8015                           	
  8016  10AB                     l1088:	
  8017  10AB  138B               	bcf	(95/8),(95)&7	;volatile
  8018  10AC  150C               	bsf	(3170/8)^0180h,(3170)&7	;volsfr
  8019                           	
  8020  10AD                     l4308:	
  8021  10AD  3055               	movlw	(055h)
  8022  10AE  008D               	movwf	(397)^0180h	;volsfr
  8023  10AF  30AA               	movlw	(0AAh)
  8024  10B0  008D               	movwf	(397)^0180h	;volsfr
  8025                           	
  8026  10B1                     l4310:	
  8027  10B1  148C               	bsf	(3169/8)^0180h,(3169)&7	;volsfr
  8028                           	
  8029  10B2                     l4312:	
  8030  10B2  110C               	bcf	(3170/8)^0180h,(3170)&7	;volsfr
  8031                           	
  8032  10B3                     l4314:	
  8033  10B3  1C03               	btfss	(24/8),(24)&7	;volatile
  8034  10B4  28B6               	goto	u4691
  8035  10B5  28B7               	goto	u4690
  8036  10B6                     u4691:
  8037  10B6  28B8               	goto	l1091
  8038  10B7                     u4690:
  8039                           	
  8040  10B7                     l4316:	
  8041  10B7  178B               	bsf	(95/8),(95)&7	;volatile
  8042                           	line	9
  8043                           	
  8044  10B8                     l1091:	
  8045  10B8  0008               	return
  8046                           	opt stack 0
  8047                           GLOBAL	__end_of_eeprom_write
  8048  10B9                     	__end_of_eeprom_write:
  8049                           	signat	_eeprom_write,8312
  8050                           	global	_eeprom_read
  8051                           
  8052 ;; *************** function _eeprom_read *****************
  8053 ;; Defined at:
  8054 ;;		line 6 in file "C:\Program Files (x86)\Microchip\xc8\v1.30\sources\pic\eeread.c"
  8055 ;; Parameters:    Size  Location     Type
  8056 ;;  addr            1    wreg     unsigned char 
  8057 ;; Auto vars:     Size  Location     Type
  8058 ;;  addr            1    4[BANK0 ] unsigned char 
  8059 ;; Return value:  Size  Location     Type
  8060 ;;                  1    wreg      unsigned char 
  8061 ;; Registers used:
  8062 ;;		wreg, status,2, status,0
  8063 ;; Tracked objects:
  8064 ;;		On entry : 60/0
  8065 ;;		On exit  : 60/40
  8066 ;;		Unchanged: 0/0
  8067 ;; Data sizes:     COMMON   BANK0   BANK3   BANK1   BANK2
  8068 ;;      Params:         0       0       0       0       0
  8069 ;;      Locals:         0       1       0       0       0
  8070 ;;      Temps:          0       0       0       0       0
  8071 ;;      Totals:         0       1       0       0       0
  8072 ;;Total ram usage:        1 bytes
  8073 ;; Hardware stack levels used:    1
  8074 ;; Hardware stack levels required when called:    4
  8075 ;; This function calls:
  8076 ;;		Nothing
  8077 ;; This function is called by:
  8078 ;;		_vd_Verif_Version
  8079 ;;		_vd_Lit_Config
  8080 ;;		_vd_Sauve_Etat
  8081 ;; This function uses a non-reentrant model
  8082 ;;
  8083                           psect	text17,local,class=CODE,delta=2,merge=1
  8084                           	file	"C:\Program Files (x86)\Microchip\xc8\v1.30\sources\pic\eeread.c"
  8085                           	line	6
  8086                           global __ptext17
  8087  103A                     __ptext17:	;psect for function _eeprom_read
  8088                           psect	text17
  8089                           	file	"C:\Program Files (x86)\Microchip\xc8\v1.30\sources\pic\eeread.c"
  8090                           	line	6
  8091                           	global	__size_of_eeprom_read
  8092  001C                     	__size_of_eeprom_read	equ	__end_of_eeprom_read-_eeprom_read
  8093                           	
  8094  103A                     _eeprom_read:	
  8095                           ;incstack = 0
  8096                           	opt	stack 2
  8097                           ; Regs used in _eeprom_read: [wreg+status,2+status,0]
  8098                           ;eeprom_read@addr stored from wreg
  8099  103A  00D4               	movwf	(eeprom_read@addr)
  8100                           	line	8
  8101                           	
  8102  103B                     l1063:	
  8103                           	line	9
  8104                           # 9 "C:\Program Files (x86)\Microchip\xc8\v1.30\sources\pic\eeread.c"
  8105  103B  0064               clrwdt ;# 
  8106                           psect	text17
  8107                           	line	10
  8108  103C  1683               	bsf	status, 5	;RP0=1, select bank3
  8109  103D  1703               	bsf	status, 6	;RP1=1, select bank3
  8110  103E  188C               	btfsc	(3169/8)^0180h,(3169)&7	;volsfr
  8111  103F  2841               	goto	u4661
  8112  1040  2844               	goto	u4660
  8113  1041                     u4661:
  8114  1041  1283               	bcf	status, 5	;RP0=0, select bank0
  8115  1042  1303               	bcf	status, 6	;RP1=0, select bank0
  8116  1043  283B               	goto	l1063
  8117  1044                     u4660:
  8118                           	line	11
  8119                           	
  8120  1044                     l4294:	
  8121  1044  1283               	bcf	status, 5	;RP0=0, select bank0
  8122  1045  1303               	bcf	status, 6	;RP1=0, select bank0
  8123  1046  0854               	movf	(eeprom_read@addr),w
  8124  1047  1703               	bsf	status, 6	;RP1=1, select bank2
  8125  1048  008D               	movwf	(269)^0100h	;volatile
  8126  1049  303F               	movlw	(03Fh)
  8127  104A  1683               	bsf	status, 5	;RP0=1, select bank3
  8128  104B  058C               	andwf	(396)^0180h,f	;volsfr
  8129  104C  140C               	bsf	(3168/8)^0180h,(3168)&7	;volsfr
  8130  104D  1003               	clrc
  8131  104E  180C               	btfsc	(3168/8)^0180h,(3168)&7	;volsfr
  8132  104F  1403               	setc
  8133  1050  3000               	movlw	0
  8134  1051  1803               	skipnc
  8135  1052  3001               	movlw	1
  8136                           
  8137  1053  1283               	bcf	status, 5	;RP0=0, select bank2
  8138  1054  080C               	movf	(268)^0100h,w	;volatile
  8139                           	line	12
  8140                           	
  8141  1055                     l1065:	
  8142  1055  0008               	return
  8143                           	opt stack 0
  8144                           GLOBAL	__end_of_eeprom_read
  8145  1056                     	__end_of_eeprom_read:
  8146                           	signat	_eeprom_read,4217
  8147                           	global	_vd_InitVariables2
  8148                           
  8149 ;; *************** function _vd_InitVariables2 *****************
  8150 ;; Defined at:
  8151 ;;		line 96 in file "../source/traitement.c"
  8152 ;; Parameters:    Size  Location     Type
  8153 ;;		None
  8154 ;; Auto vars:     Size  Location     Type
  8155 ;;  l_uc_Compteu    1   11[BANK0 ] unsigned char 
  8156 ;; Return value:  Size  Location     Type
  8157 ;;		None               void
  8158 ;; Registers used:
  8159 ;;		wreg, fsr0l, fsr0h, status,2, status,0, pclath, cstack
  8160 ;; Tracked objects:
  8161 ;;		On entry : 60/0
  8162 ;;		On exit  : 160/0
  8163 ;;		Unchanged: 0/0
  8164 ;; Data sizes:     COMMON   BANK0   BANK3   BANK1   BANK2
  8165 ;;      Params:         0       0       0       0       0
  8166 ;;      Locals:         0       1       0       0       0
  8167 ;;      Temps:          0       1       0       0       0
  8168 ;;      Totals:         0       2       0       0       0
  8169 ;;Total ram usage:        2 bytes
  8170 ;; Hardware stack levels used:    1
  8171 ;; Hardware stack levels required when called:    5
  8172 ;; This function calls:
  8173 ;;		_us_CodeVariateur
  8174 ;; This function is called by:
  8175 ;;		_main
  8176 ;; This function uses a non-reentrant model
  8177 ;;
  8178                           psect	text18,local,class=CODE,delta=2,merge=1
  8179                           	file	"../source/traitement.c"
  8180                           	line	96
  8181                           global __ptext18
  8182  131D                     __ptext18:	;psect for function _vd_InitVariables2
  8183                           psect	text18
  8184                           	file	"../source/traitement.c"
  8185                           	line	96
  8186                           	global	__size_of_vd_InitVariables2
  8187  0045                     	__size_of_vd_InitVariables2	equ	__end_of_vd_InitVariables2-_vd_InitVariables2
  8188                           	
  8189  131D                     _vd_InitVariables2:	
  8190                           ;incstack = 0
  8191                           	opt	stack 2
  8192                           ; Regs used in _vd_InitVariables2: [wreg-fsr0h+status,2+status,0+pclath+cstack]
  8193                           	line	101
  8194                           	
  8195  131D                     l5398:	
  8196                           ;traitement.c: 98: unsigned char l_uc_Compteur;
  8197                           ;traitement.c: 101: for(l_uc_Compteur=0;l_uc_Compteur<VARIATEUR_NB;l_uc_Compteur++)
  8198  131D  01DB               	clrf	(vd_InitVariables2@l_uc_Compteur)
  8199  131E  2B41               	goto	l5410
  8200                           	line	107
  8201                           	
  8202  131F                     l5404:	
  8203                           ;traitement.c: 107: us_CdeVariateurs[l_uc_Compteur] = us_CodeVariateur (107);
  8204  131F  306B               	movlw	(06Bh)
  8205  1320  160A  118A  2004   	fcall	_us_CodeVariateur
              160A  118A         
  8206  1325  1003               	clrc
  8207  1326  0D5B               	rlf	(vd_InitVariables2@l_uc_Compteur),w
  8208  1327  3EE1               	addlw	_us_CdeVariateurs&0ffh
  8209  1328  0084               	movwf	fsr0
  8210  1329  0854               	movf	(0+(?_us_CodeVariateur)),w
  8211  132A  1383               	bcf	status, 7	;select IRP bank1
  8212  132B  0080               	movwf	indf
  8213  132C  0A84               	incf	fsr0,f
  8214  132D  0855               	movf	(1+(?_us_CodeVariateur)),w
  8215  132E  0080               	movwf	indf
  8216                           	line	108
  8217                           ;traitement.c: 108: break;
  8218  132F  2B5A               	goto	l5412
  8219                           	line	113
  8220                           	
  8221  1330                     l5406:	
  8222                           ;traitement.c: 111: case uc_MODE_VARIATEUR :
  8223                           ;traitement.c: 113: us_CdeVariateurs[l_uc_Compteur] = us_CodeVariateur (110);
  8224  1330  306E               	movlw	(06Eh)
  8225  1331  160A  118A  2004   	fcall	_us_CodeVariateur
              160A  118A         
  8226  1336  1003               	clrc
  8227  1337  0D5B               	rlf	(vd_InitVariables2@l_uc_Compteur),w
  8228  1338  3EE1               	addlw	_us_CdeVariateurs&0ffh
  8229  1339  0084               	movwf	fsr0
  8230  133A  0854               	movf	(0+(?_us_CodeVariateur)),w
  8231  133B  1383               	bcf	status, 7	;select IRP bank1
  8232  133C  0080               	movwf	indf
  8233  133D  0A84               	incf	fsr0,f
  8234  133E  0855               	movf	(1+(?_us_CodeVariateur)),w
  8235  133F  0080               	movwf	indf
  8236                           	line	114
  8237                           ;traitement.c: 114: break;
  8238  1340  2B5A               	goto	l5412
  8239                           	line	105
  8240                           	
  8241  1341                     l5410:	
  8242  1341  085B               	movf	(vd_InitVariables2@l_uc_Compteur),w
  8243  1342  00DA               	movwf	(??_vd_InitVariables2+0)+0
  8244  1343  3001               	movlw	(02h)-1
  8245  1344                     u6385:
  8246  1344  1003               	clrc
  8247  1345  0DDA               	rlf	(??_vd_InitVariables2+0)+0,f
  8248  1346  3EFF               	addlw	-1
  8249  1347  1D03               	skipz
  8250  1348  2B44               	goto	u6385
  8251  1349  1003               	clrc
  8252  134A  0D5A               	rlf	(??_vd_InitVariables2+0)+0,w
  8253  134B  3EA2               	addlw	_st_EntreesVariateur+02h&0ffh
  8254  134C  0084               	movwf	fsr0
  8255  134D  1383               	bcf	status, 7	;select IRP bank1
  8256  134E  0800               	movf	indf,w
  8257  134F  3907               	andlw	(1<<3)-1
  8258                           	; Switch size 1, requested type "space"
  8259                           ; Number of cases is 3, Range of values is 0 to 2
  8260                           ; switch strategies available:
  8261                           ; Name         Instructions Cycles
  8262                           ; simple_byte           10     6 (average)
  8263                           ; direct_byte           17     8 (fixed)
  8264                           ; jumptable            260     6 (fixed)
  8265                           ;	Chosen strategy is simple_byte
  8266                           
  8267                           	opt asmopt_off
  8268  1350  3A00               	xorlw	0^0	; case 0
  8269  1351  1903               	skipnz
  8270  1352  2B30               	goto	l5406
  8271  1353  3A01               	xorlw	1^0	; case 1
  8272  1354  1903               	skipnz
  8273  1355  2B30               	goto	l5406
  8274  1356  3A03               	xorlw	2^1	; case 2
  8275  1357  1903               	skipnz
  8276  1358  2B1F               	goto	l5404
  8277  1359  2B5A               	goto	l5412
  8278                           	opt asmopt_on
  8279                           
  8280                           	line	101
  8281                           	
  8282  135A                     l5412:	
  8283  135A  0ADB               	incf	(vd_InitVariables2@l_uc_Compteur),f
  8284                           	
  8285  135B                     l5414:	
  8286  135B  3004               	movlw	(04h)
  8287  135C  025B               	subwf	(vd_InitVariables2@l_uc_Compteur),w
  8288  135D  1C03               	skipc
  8289  135E  2B60               	goto	u6391
  8290  135F  2B61               	goto	u6390
  8291  1360                     u6391:
  8292  1360  2B41               	goto	l5410
  8293  1361                     u6390:
  8294                           	line	117
  8295                           	
  8296  1361                     l738:	
  8297  1361  0008               	return
  8298                           	opt stack 0
  8299                           GLOBAL	__end_of_vd_InitVariables2
  8300  1362                     	__end_of_vd_InitVariables2:
  8301                           	signat	_vd_InitVariables2,88
  8302                           	global	_us_CodeVariateur
  8303                           
  8304 ;; *************** function _us_CodeVariateur *****************
  8305 ;; Defined at:
  8306 ;;		line 13 in file "../source/variateur.c"
  8307 ;; Parameters:    Size  Location     Type
  8308 ;;  c_valeur        1    wreg     unsigned char 
  8309 ;; Auto vars:     Size  Location     Type
  8310 ;;  c_valeur        1    7[BANK0 ] unsigned char 
  8311 ;;  l_us_valeur     2    8[BANK0 ] unsigned short 
  8312 ;; Return value:  Size  Location     Type
  8313 ;;                  2    4[BANK0 ] unsigned short 
  8314 ;; Registers used:
  8315 ;;		wreg, status,2, status,0
  8316 ;; Tracked objects:
  8317 ;;		On entry : 0/60
  8318 ;;		On exit  : 60/0
  8319 ;;		Unchanged: 0/0
  8320 ;; Data sizes:     COMMON   BANK0   BANK3   BANK1   BANK2
  8321 ;;      Params:         0       3       0       0       0
  8322 ;;      Locals:         0       3       0       0       0
  8323 ;;      Temps:          0       0       0       0       0
  8324 ;;      Totals:         0       6       0       0       0
  8325 ;;Total ram usage:        6 bytes
  8326 ;; Hardware stack levels used:    1
  8327 ;; Hardware stack levels required when called:    4
  8328 ;; This function calls:
  8329 ;;		Nothing
  8330 ;; This function is called by:
  8331 ;;		_vd_InitVariables2
  8332 ;;		_vd_TraitementApplicatif
  8333 ;; This function uses a non-reentrant model
  8334 ;;
  8335                           psect	text19,local,class=CODE,delta=2,merge=1
  8336                           	file	"../source/variateur.c"
  8337                           	line	13
  8338                           global __ptext19
  8339  1004                     __ptext19:	;psect for function _us_CodeVariateur
  8340                           psect	text19
  8341                           	file	"../source/variateur.c"
  8342                           	line	13
  8343                           	global	__size_of_us_CodeVariateur
  8344  001A                     	__size_of_us_CodeVariateur	equ	__end_of_us_CodeVariateur-_us_CodeVariateur
  8345                           	
  8346  1004                     _us_CodeVariateur:	
  8347                           ;incstack = 0
  8348                           	opt	stack 2
  8349                           ; Regs used in _us_CodeVariateur: [wreg+status,2+status,0]
  8350                           ;us_CodeVariateur@c_valeur stored from wreg
  8351  1004  1283               	bcf	status, 5	;RP0=0, select bank0
  8352  1005  1303               	bcf	status, 6	;RP1=0, select bank0
  8353  1006  00D7               	movwf	(us_CodeVariateur@c_valeur)
  8354                           	line	18
  8355                           	
  8356  1007                     l5616:	
  8357                           ;variateur.c: 15: unsigned short l_us_valeur;
  8358                           ;variateur.c: 18: l_us_valeur = (c_valeur + 10) <<1;
  8359  1007  0857               	movf	(us_CodeVariateur@c_valeur),w
  8360  1008  00D8               	movwf	(us_CodeVariateur@l_us_valeur)
  8361  1009  01D9               	clrf	(us_CodeVariateur@l_us_valeur+1)
  8362                           	
  8363  100A                     l5618:	
  8364  100A  1003               	clrc
  8365  100B  0DD8               	rlf	(us_CodeVariateur@l_us_valeur),f
  8366  100C  0DD9               	rlf	(us_CodeVariateur@l_us_valeur+1),f
  8367                           	
  8368  100D                     l5620:	
  8369  100D  3014               	movlw	014h
  8370  100E  07D8               	addwf	(us_CodeVariateur@l_us_valeur),f
  8371  100F  1803               	skipnc
  8372  1010  0AD9               	incf	(us_CodeVariateur@l_us_valeur+1),f
  8373                           	line	19
  8374                           	
  8375  1011                     l5622:	
  8376                           ;variateur.c: 19: l_us_valeur &= 0x01FE;
  8377  1011  30FE               	movlw	low(01FEh)
  8378  1012  05D8               	andwf	(us_CodeVariateur@l_us_valeur),f
  8379  1013  3001               	movlw	high(01FEh)
  8380  1014  05D9               	andwf	(us_CodeVariateur@l_us_valeur+1),f
  8381                           	line	23
  8382                           	
  8383  1015                     l5624:	
  8384                           ;variateur.c: 23: l_us_valeur |= 0x0600;
  8385  1015  3000               	movlw	low(0600h)
  8386  1016  04D8               	iorwf	(us_CodeVariateur@l_us_valeur),f
  8387  1017  3006               	movlw	high(0600h)
  8388  1018  04D9               	iorwf	(us_CodeVariateur@l_us_valeur+1),f
  8389                           	line	25
  8390                           	
  8391  1019                     l5626:	
  8392                           ;variateur.c: 25: return(l_us_valeur);
  8393  1019  0859               	movf	(us_CodeVariateur@l_us_valeur+1),w
  8394  101A  00D5               	movwf	(?_us_CodeVariateur+1)
  8395  101B  0858               	movf	(us_CodeVariateur@l_us_valeur),w
  8396  101C  00D4               	movwf	(?_us_CodeVariateur)
  8397                           	line	26
  8398                           	
  8399  101D                     l880:	
  8400  101D  0008               	return
  8401                           	opt stack 0
  8402                           GLOBAL	__end_of_us_CodeVariateur
  8403  101E                     	__end_of_us_CodeVariateur:
  8404                           	signat	_us_CodeVariateur,4218
  8405                           	global	_vd_InitVariables
  8406                           
  8407 ;; *************** function _vd_InitVariables *****************
  8408 ;; Defined at:
  8409 ;;		line 16 in file "../source/traitement.c"
  8410 ;; Parameters:    Size  Location     Type
  8411 ;;		None
  8412 ;; Auto vars:     Size  Location     Type
  8413 ;;  l_uc_Compteu    1    5[BANK0 ] unsigned char 
  8414 ;; Return value:  Size  Location     Type
  8415 ;;		None               void
  8416 ;; Registers used:
  8417 ;;		wreg, fsr0l, fsr0h, status,2, status,0
  8418 ;; Tracked objects:
  8419 ;;		On entry : 17F/0
  8420 ;;		On exit  : 17F/0
  8421 ;;		Unchanged: 1F/0
  8422 ;; Data sizes:     COMMON   BANK0   BANK3   BANK1   BANK2
  8423 ;;      Params:         0       0       0       0       0
  8424 ;;      Locals:         0       1       0       0       0
  8425 ;;      Temps:          0       1       0       0       0
  8426 ;;      Totals:         0       2       0       0       0
  8427 ;;Total ram usage:        2 bytes
  8428 ;; Hardware stack levels used:    1
  8429 ;; Hardware stack levels required when called:    4
  8430 ;; This function calls:
  8431 ;;		Nothing
  8432 ;; This function is called by:
  8433 ;;		_main
  8434 ;; This function uses a non-reentrant model
  8435 ;;
  8436                           psect	text20,local,class=CODE,delta=2,merge=1
  8437                           	file	"../source/traitement.c"
  8438                           	line	16
  8439                           global __ptext20
  8440  1750                     __ptext20:	;psect for function _vd_InitVariables
  8441                           psect	text20
  8442                           	file	"../source/traitement.c"
  8443                           	line	16
  8444                           	global	__size_of_vd_InitVariables
  8445  00B0                     	__size_of_vd_InitVariables	equ	__end_of_vd_InitVariables-_vd_InitVariables
  8446                           	
  8447  1750                     _vd_InitVariables:	
  8448                           ;incstack = 0
  8449                           	opt	stack 3
  8450                           ; Regs used in _vd_InitVariables: [wreg-fsr0h+status,2+status,0]
  8451                           	line	34
  8452                           	
  8453  1750                     l4570:	
  8454                           ;traitement.c: 18: unsigned char l_uc_Compteur;
  8455                           ;traitement.c: 34: for(l_uc_Compteur=0;l_uc_Compteur<ENTREE_VARIATEUR_NB;l_uc_Compteur++
                                 )
  8456  1750  01D5               	clrf	(vd_InitVariables@l_uc_Compteur)
  8457                           	line	36
  8458                           	
  8459  1751                     l4576:	
  8460                           ;traitement.c: 35: {
  8461                           ;traitement.c: 36: st_EntreesVariateur[l_uc_Compteur].ub3_EntreeMode = uc_MODE_VARIATEUR
                                 ;
  8462  1751  0855               	movf	(vd_InitVariables@l_uc_Compteur),w
  8463  1752  00D4               	movwf	(??_vd_InitVariables+0)+0
  8464  1753  3001               	movlw	(02h)-1
  8465  1754                     u4885:
  8466  1754  1003               	clrc
  8467  1755  0DD4               	rlf	(??_vd_InitVariables+0)+0,f
  8468  1756  3EFF               	addlw	-1
  8469  1757  1D03               	skipz
  8470  1758  2F54               	goto	u4885
  8471  1759  1003               	clrc
  8472  175A  0D54               	rlf	(??_vd_InitVariables+0)+0,w
  8473  175B  3EA2               	addlw	_st_EntreesVariateur+02h&0ffh
  8474  175C  0084               	movwf	fsr0
  8475  175D  0800               	movf	indf,w
  8476  175E  39F8               	andlw	not (((1<<3)-1)<<0)
  8477  175F  3801               	iorlw	(01h & ((1<<3)-1))<<0
  8478  1760  0080               	movwf	indf
  8479                           	line	37
  8480                           ;traitement.c: 37: st_EntreesVariateur[l_uc_Compteur].uc_CompteurMaintenu = 0;
  8481  1761  0855               	movf	(vd_InitVariables@l_uc_Compteur),w
  8482  1762  00D4               	movwf	(??_vd_InitVariables+0)+0
  8483  1763  3001               	movlw	(02h)-1
  8484  1764                     u4895:
  8485  1764  1003               	clrc
  8486  1765  0DD4               	rlf	(??_vd_InitVariables+0)+0,f
  8487  1766  3EFF               	addlw	-1
  8488  1767  1D03               	skipz
  8489  1768  2F64               	goto	u4895
  8490  1769  1003               	clrc
  8491  176A  0D54               	rlf	(??_vd_InitVariables+0)+0,w
  8492  176B  3EA0               	addlw	_st_EntreesVariateur&0ffh
  8493  176C  0084               	movwf	fsr0
  8494  176D  0180               	clrf	indf
  8495                           	line	38
  8496                           ;traitement.c: 38: st_EntreesVariateur[l_uc_Compteur].uc_CompteurDoubleClic = 0;
  8497  176E  0855               	movf	(vd_InitVariables@l_uc_Compteur),w
  8498  176F  00D4               	movwf	(??_vd_InitVariables+0)+0
  8499  1770  3001               	movlw	(02h)-1
  8500  1771                     u4905:
  8501  1771  1003               	clrc
  8502  1772  0DD4               	rlf	(??_vd_InitVariables+0)+0,f
  8503  1773  3EFF               	addlw	-1
  8504  1774  1D03               	skipz
  8505  1775  2F71               	goto	u4905
  8506  1776  1003               	clrc
  8507  1777  0D54               	rlf	(??_vd_InitVariables+0)+0,w
  8508  1778  3EA1               	addlw	_st_EntreesVariateur+01h&0ffh
  8509  1779  0084               	movwf	fsr0
  8510  177A  0180               	clrf	indf
  8511                           	line	39
  8512                           ;traitement.c: 39: st_EntreesVariateur[l_uc_Compteur].ub1_Etat1VueApresEtatStop = 0;
  8513  177B  0855               	movf	(vd_InitVariables@l_uc_Compteur),w
  8514  177C  00D4               	movwf	(??_vd_InitVariables+0)+0
  8515  177D  3001               	movlw	(02h)-1
  8516  177E                     u4915:
  8517  177E  1003               	clrc
  8518  177F  0DD4               	rlf	(??_vd_InitVariables+0)+0,f
  8519  1780  3EFF               	addlw	-1
  8520  1781  1D03               	skipz
  8521  1782  2F7E               	goto	u4915
  8522  1783  1003               	clrc
  8523  1784  0D54               	rlf	(??_vd_InitVariables+0)+0,w
  8524  1785  3EA2               	addlw	_st_EntreesVariateur+02h&0ffh
  8525  1786  0084               	movwf	fsr0
  8526  1787  1180               	bcf	indf,3
  8527                           	line	40
  8528                           ;traitement.c: 40: st_EntreesVariateur[l_uc_Compteur].ub1_SecondAppuiDetecte = 0;
  8529  1788  0855               	movf	(vd_InitVariables@l_uc_Compteur),w
  8530  1789  00D4               	movwf	(??_vd_InitVariables+0)+0
  8531  178A  3001               	movlw	(02h)-1
  8532  178B                     u4925:
  8533  178B  1003               	clrc
  8534  178C  0DD4               	rlf	(??_vd_InitVariables+0)+0,f
  8535  178D  3EFF               	addlw	-1
  8536  178E  1D03               	skipz
  8537  178F  2F8B               	goto	u4925
  8538  1790  1003               	clrc
  8539  1791  0D54               	rlf	(??_vd_InitVariables+0)+0,w
  8540  1792  3EA2               	addlw	_st_EntreesVariateur+02h&0ffh
  8541  1793  0084               	movwf	fsr0
  8542  1794  1200               	bcf	indf,4
  8543                           	line	41
  8544                           ;traitement.c: 41: st_EntreesVariateur[l_uc_Compteur].ub3_EtatCommande = 0;
  8545  1795  0855               	movf	(vd_InitVariables@l_uc_Compteur),w
  8546  1796  00D4               	movwf	(??_vd_InitVariables+0)+0
  8547  1797  3001               	movlw	(02h)-1
  8548  1798                     u4935:
  8549  1798  1003               	clrc
  8550  1799  0DD4               	rlf	(??_vd_InitVariables+0)+0,f
  8551  179A  3EFF               	addlw	-1
  8552  179B  1D03               	skipz
  8553  179C  2F98               	goto	u4935
  8554  179D  1003               	clrc
  8555  179E  0D54               	rlf	(??_vd_InitVariables+0)+0,w
  8556  179F  3EA2               	addlw	_st_EntreesVariateur+02h&0ffh
  8557  17A0  0084               	movwf	fsr0
  8558  17A1  301F               	movlw	((0 & ((1<<3)-1))<<5)|not (((1<<3)-1)<<5)
  8559  17A2  0580               	andwf	indf,f
  8560                           	line	42
  8561                           ;traitement.c: 42: st_EntreesVariateur[l_uc_Compteur].ub1_SensCommande = 0;
  8562  17A3  0855               	movf	(vd_InitVariables@l_uc_Compteur),w
  8563  17A4  00D4               	movwf	(??_vd_InitVariables+0)+0
  8564  17A5  3001               	movlw	(02h)-1
  8565  17A6                     u4945:
  8566  17A6  1003               	clrc
  8567  17A7  0DD4               	rlf	(??_vd_InitVariables+0)+0,f
  8568  17A8  3EFF               	addlw	-1
  8569  17A9  1D03               	skipz
  8570  17AA  2FA6               	goto	u4945
  8571  17AB  1003               	clrc
  8572  17AC  0D54               	rlf	(??_vd_InitVariables+0)+0,w
  8573  17AD  3EA3               	addlw	_st_EntreesVariateur+03h&0ffh
  8574  17AE  0084               	movwf	fsr0
  8575  17AF  1000               	bcf	indf,0
  8576                           	line	34
  8577                           	
  8578  17B0                     l4578:	
  8579  17B0  0AD5               	incf	(vd_InitVariables@l_uc_Compteur),f
  8580                           	
  8581  17B1                     l4580:	
  8582  17B1  3004               	movlw	(04h)
  8583  17B2  0255               	subwf	(vd_InitVariables@l_uc_Compteur),w
  8584  17B3  1C03               	skipc
  8585  17B4  2FB6               	goto	u4951
  8586  17B5  2FB7               	goto	u4950
  8587  17B6                     u4951:
  8588  17B6  2F51               	goto	l4576
  8589  17B7                     u4950:
  8590                           	line	44
  8591                           	
  8592  17B7                     l4582:	
  8593                           ;traitement.c: 43: }
  8594                           ;traitement.c: 44: for(l_uc_Compteur=0;l_uc_Compteur<ENTREE_VOLET_NB;l_uc_Compteur++)
  8595  17B7  01D5               	clrf	(vd_InitVariables@l_uc_Compteur)
  8596                           	line	46
  8597                           	
  8598  17B8                     l4588:	
  8599                           ;traitement.c: 45: {
  8600                           ;traitement.c: 46: st_EntreesVoletRoulant[l_uc_Compteur].ub4_CompteurMaintenu = 0;
  8601  17B8  0855               	movf	(vd_InitVariables@l_uc_Compteur),w
  8602  17B9  3EBD               	addlw	_st_EntreesVoletRoulant&0ffh
  8603  17BA  0084               	movwf	fsr0
  8604  17BB  30F0               	movlw	((0 & ((1<<4)-1))<<0)|not (((1<<4)-1)<<0)
  8605  17BC  0580               	andwf	indf,f
  8606                           	line	47
  8607                           ;traitement.c: 47: st_EntreesVoletRoulant[l_uc_Compteur].ub1_Etat1VueApresEtatStop = 0;
  8608  17BD  0855               	movf	(vd_InitVariables@l_uc_Compteur),w
  8609  17BE  3EBD               	addlw	_st_EntreesVoletRoulant&0ffh
  8610  17BF  0084               	movwf	fsr0
  8611  17C0  1200               	bcf	indf,4
  8612                           	line	48
  8613                           ;traitement.c: 48: st_EntreesVoletRoulant[l_uc_Compteur].ub3_EtatCommande = 0;
  8614  17C1  0855               	movf	(vd_InitVariables@l_uc_Compteur),w
  8615  17C2  3EBD               	addlw	_st_EntreesVoletRoulant&0ffh
  8616  17C3  0084               	movwf	fsr0
  8617  17C4  301F               	movlw	((0 & ((1<<3)-1))<<5)|not (((1<<3)-1)<<5)
  8618  17C5  0580               	andwf	indf,f
  8619                           	line	44
  8620                           	
  8621  17C6                     l4590:	
  8622  17C6  0AD5               	incf	(vd_InitVariables@l_uc_Compteur),f
  8623                           	
  8624  17C7                     l4592:	
  8625  17C7  300C               	movlw	(0Ch)
  8626  17C8  0255               	subwf	(vd_InitVariables@l_uc_Compteur),w
  8627  17C9  1C03               	skipc
  8628  17CA  2FCC               	goto	u4961
  8629  17CB  2FCD               	goto	u4960
  8630  17CC                     u4961:
  8631  17CC  2FB8               	goto	l4588
  8632  17CD                     u4960:
  8633                           	line	51
  8634                           	
  8635  17CD                     l4594:	
  8636                           ;traitement.c: 49: }
  8637                           ;traitement.c: 51: for(l_uc_Compteur=0;l_uc_Compteur<RB_NB;l_uc_Compteur++)
  8638  17CD  01D5               	clrf	(vd_InitVariables@l_uc_Compteur)
  8639                           	line	53
  8640                           	
  8641  17CE                     l4600:	
  8642                           ;traitement.c: 52: {
  8643                           ;traitement.c: 53: st_SortiesRelaisBistables[l_uc_Compteur].ub1_EtatRelaisBistable = 1;
  8644  17CE  0855               	movf	(vd_InitVariables@l_uc_Compteur),w
  8645  17CF  3EC9               	addlw	_st_SortiesRelaisBistables&0ffh
  8646  17D0  0084               	movwf	fsr0
  8647  17D1  1383               	bcf	status, 7	;select IRP bank1
  8648  17D2  1400               	bsf	indf,0
  8649                           	line	54
  8650                           ;traitement.c: 54: st_SortiesRelaisBistables[l_uc_Compteur].ub1_EtatRelaisBistableSouhai
                                 te = 0;
  8651  17D3  0855               	movf	(vd_InitVariables@l_uc_Compteur),w
  8652  17D4  3EC9               	addlw	_st_SortiesRelaisBistables&0ffh
  8653  17D5  0084               	movwf	fsr0
  8654  17D6  1080               	bcf	indf,1
  8655                           	line	56
  8656                           ;traitement.c: 56: uc_CdeRelaisBistables[l_uc_Compteur] = 0;
  8657  17D7  0855               	movf	(vd_InitVariables@l_uc_Compteur),w
  8658  17D8  3E20               	addlw	_uc_CdeRelaisBistables&0ffh
  8659  17D9  0084               	movwf	fsr0
  8660  17DA  1783               	bsf	status, 7	;select IRP bank2
  8661  17DB  0180               	clrf	indf
  8662                           	line	51
  8663                           	
  8664  17DC                     l4602:	
  8665  17DC  0AD5               	incf	(vd_InitVariables@l_uc_Compteur),f
  8666                           	
  8667  17DD                     l4604:	
  8668  17DD  300C               	movlw	(0Ch)
  8669  17DE  0255               	subwf	(vd_InitVariables@l_uc_Compteur),w
  8670  17DF  1C03               	skipc
  8671  17E0  2FE2               	goto	u4971
  8672  17E1  2FE3               	goto	u4970
  8673  17E2                     u4971:
  8674  17E2  2FCE               	goto	l4600
  8675  17E3                     u4970:
  8676                           	line	58
  8677                           	
  8678  17E3                     l4606:	
  8679                           ;traitement.c: 57: }
  8680                           ;traitement.c: 58: for(l_uc_Compteur=0;l_uc_Compteur<VARIATEUR_NB;l_uc_Compteur++)
  8681  17E3  01D5               	clrf	(vd_InitVariables@l_uc_Compteur)
  8682                           	line	60
  8683                           	
  8684  17E4                     l4612:	
  8685                           ;traitement.c: 59: {
  8686                           ;traitement.c: 60: st_Variateurs[l_uc_Compteur].c_Eclairage = 0;
  8687  17E4  0855               	movf	(vd_InitVariables@l_uc_Compteur),w
  8688  17E5  0755               	addwf	(vd_InitVariables@l_uc_Compteur),w
  8689  17E6  0755               	addwf	(vd_InitVariables@l_uc_Compteur),w
  8690  17E7  3ED5               	addlw	_st_Variateurs&0ffh
  8691  17E8  0084               	movwf	fsr0
  8692  17E9  1383               	bcf	status, 7	;select IRP bank1
  8693  17EA  0180               	clrf	indf
  8694                           	line	61
  8695                           ;traitement.c: 61: st_Variateurs[l_uc_Compteur].c_Consigne = 0;
  8696  17EB  0855               	movf	(vd_InitVariables@l_uc_Compteur),w
  8697  17EC  0755               	addwf	(vd_InitVariables@l_uc_Compteur),w
  8698  17ED  0755               	addwf	(vd_InitVariables@l_uc_Compteur),w
  8699  17EE  3ED7               	addlw	_st_Variateurs+02h&0ffh
  8700  17EF  0084               	movwf	fsr0
  8701  17F0  0180               	clrf	indf
  8702                           	line	58
  8703                           	
  8704  17F1                     l4614:	
  8705  17F1  0AD5               	incf	(vd_InitVariables@l_uc_Compteur),f
  8706                           	
  8707  17F2                     l4616:	
  8708  17F2  3004               	movlw	(04h)
  8709  17F3  0255               	subwf	(vd_InitVariables@l_uc_Compteur),w
  8710  17F4  1C03               	skipc
  8711  17F5  2FF7               	goto	u4981
  8712  17F6  2FF8               	goto	u4980
  8713  17F7                     u4981:
  8714  17F7  2FE4               	goto	l4612
  8715  17F8                     u4980:
  8716                           	line	68
  8717                           	
  8718  17F8                     l4618:	
  8719                           ;traitement.c: 66: }
  8720                           ;traitement.c: 68: st_Commandes.o = 0;
  8721  17F8  01BA               	clrf	(_st_Commandes)
  8722                           	line	71
  8723                           ;traitement.c: 71: s_uc_PortA = 0;
  8724  17F9  01B4               	clrf	(_s_uc_PortA)
  8725                           	line	72
  8726                           ;traitement.c: 72: s_uc_PortB = 0;
  8727  17FA  01B5               	clrf	(_s_uc_PortB)
  8728                           	line	73
  8729                           ;traitement.c: 73: s_uc_PortC = 0;
  8730  17FB  01B6               	clrf	(_s_uc_PortC)
  8731                           	line	74
  8732                           ;traitement.c: 74: s_uc_PortD = 0;
  8733  17FC  01B7               	clrf	(_s_uc_PortD)
  8734                           	line	75
  8735                           ;traitement.c: 75: s_uc_PortE = 0;
  8736  17FD  01B8               	clrf	(_s_uc_PortE)
  8737                           	line	76
  8738                           ;traitement.c: 76: s_uc_PortF = 0;
  8739  17FE  01B9               	clrf	(_s_uc_PortF)
  8740                           	line	94
  8741                           	
  8742  17FF                     l728:	
  8743  17FF  0008               	return
  8744                           	opt stack 0
  8745                           GLOBAL	__end_of_vd_InitVariables
  8746  1800                     	__end_of_vd_InitVariables:
  8747                           	signat	_vd_InitVariables,88
  8748                           	global	_vd_InitMicro
  8749                           
  8750 ;; *************** function _vd_InitMicro *****************
  8751 ;; Defined at:
  8752 ;;		line 14 in file "../source/hard.c"
  8753 ;; Parameters:    Size  Location     Type
  8754 ;;		None
  8755 ;; Auto vars:     Size  Location     Type
  8756 ;;		None
  8757 ;; Return value:  Size  Location     Type
  8758 ;;		None               void
  8759 ;; Registers used:
  8760 ;;		wreg, status,2, status,0
  8761 ;; Tracked objects:
  8762 ;;		On entry : 17F/0
  8763 ;;		On exit  : 0/0
  8764 ;;		Unchanged: 0/0
  8765 ;; Data sizes:     COMMON   BANK0   BANK3   BANK1   BANK2
  8766 ;;      Params:         0       0       0       0       0
  8767 ;;      Locals:         0       0       0       0       0
  8768 ;;      Temps:          0       0       0       0       0
  8769 ;;      Totals:         0       0       0       0       0
  8770 ;;Total ram usage:        0 bytes
  8771 ;; Hardware stack levels used:    1
  8772 ;; Hardware stack levels required when called:    4
  8773 ;; This function calls:
  8774 ;;		Nothing
  8775 ;; This function is called by:
  8776 ;;		_main
  8777 ;; This function uses a non-reentrant model
  8778 ;;
  8779                           psect	text21,local,class=CODE,delta=2,merge=1
  8780                           	file	"../source/hard.c"
  8781                           	line	14
  8782                           global __ptext21
  8783  1517                     __ptext21:	;psect for function _vd_InitMicro
  8784                           psect	text21
  8785                           	file	"../source/hard.c"
  8786                           	line	14
  8787                           	global	__size_of_vd_InitMicro
  8788  007C                     	__size_of_vd_InitMicro	equ	__end_of_vd_InitMicro-_vd_InitMicro
  8789                           	
  8790  1517                     _vd_InitMicro:	
  8791                           ;incstack = 0
  8792                           	opt	stack 3
  8793                           ; Regs used in _vd_InitMicro: [wreg+status,2+status,0]
  8794                           	line	17
  8795                           	
  8796  1517                     l4108:	
  8797                           ;hard.c: 17: ANSEL = 0;
  8798  1517  1683               	bsf	status, 5	;RP0=1, select bank1
  8799  1518  0191               	clrf	(145)^080h	;volatile
  8800                           	line	18
  8801                           	
  8802  1519                     l4110:	
  8803                           ;hard.c: 18: LCDCON = 0x03;
  8804  1519  3003               	movlw	(03h)
  8805  151A  1283               	bcf	status, 5	;RP0=0, select bank2
  8806  151B  1703               	bsf	status, 6	;RP1=1, select bank2
  8807  151C  0087               	movwf	(263)^0100h	;volatile
  8808                           	line	20
  8809                           	
  8810  151D                     l4112:	
  8811                           ;hard.c: 20: OSCCON = 0b00000000;
  8812  151D  1683               	bsf	status, 5	;RP0=1, select bank1
  8813  151E  1303               	bcf	status, 6	;RP1=0, select bank1
  8814  151F  018F               	clrf	(143)^080h	;volatile
  8815                           	line	22
  8816                           ;hard.c: 22: CCP2CON = 0x0C;
  8817  1520  300C               	movlw	(0Ch)
  8818  1521  1283               	bcf	status, 5	;RP0=0, select bank0
  8819  1522  009D               	movwf	(29)	;volatile
  8820                           	line	23
  8821                           ;hard.c: 23: CCPR2L = 0x5C;;
  8822  1523  305C               	movlw	(05Ch)
  8823  1524  009B               	movwf	(27)	;volatile
  8824                           	line	24
  8825                           	
  8826  1525                     l4114:	
  8827                           ;hard.c: 24: CCP2CON |= 0x30;;
  8828  1525  3030               	movlw	(030h)
  8829  1526  049D               	iorwf	(29),f	;volatile
  8830                           	line	28
  8831                           	
  8832  1527                     l4116:	
  8833                           ;hard.c: 28: PR2 = 249;;
  8834  1527  30F9               	movlw	(0F9h)
  8835  1528  1683               	bsf	status, 5	;RP0=1, select bank1
  8836  1529  0092               	movwf	(146)^080h	;volatile
  8837                           	line	29
  8838                           	
  8839  152A                     l4118:	
  8840                           ;hard.c: 29: TMR2IF = 0;
  8841  152A  1283               	bcf	status, 5	;RP0=0, select bank0
  8842  152B  108C               	bcf	(97/8),(97)&7	;volatile
  8843                           	line	30
  8844                           	
  8845  152C                     l4120:	
  8846                           ;hard.c: 30: TMR2IE = 0;
  8847  152C  1683               	bsf	status, 5	;RP0=1, select bank1
  8848  152D  108C               	bcf	(1121/8)^080h,(1121)&7	;volatile
  8849                           	line	31
  8850                           	
  8851  152E                     l4122:	
  8852                           ;hard.c: 31: T2CON = 0x04;
  8853  152E  3004               	movlw	(04h)
  8854  152F  1283               	bcf	status, 5	;RP0=0, select bank0
  8855  1530  0092               	movwf	(18)	;volatile
  8856                           	line	35
  8857                           	
  8858  1531                     l4124:	
  8859                           ;hard.c: 35: OPTION_REG=0b10000011;
  8860  1531  3083               	movlw	(083h)
  8861  1532  1683               	bsf	status, 5	;RP0=1, select bank1
  8862  1533  0081               	movwf	(129)^080h	;volatile
  8863                           	line	45
  8864                           	
  8865  1534                     l4126:	
  8866                           ;hard.c: 45: TMR0=130;
  8867  1534  3082               	movlw	(082h)
  8868  1535  1283               	bcf	status, 5	;RP0=0, select bank0
  8869  1536  0081               	movwf	(1)	;volatile
  8870                           	line	46
  8871                           	
  8872  1537                     l4128:	
  8873                           ;hard.c: 46: T0IF = 0;
  8874  1537  110B               	bcf	(90/8),(90)&7	;volatile
  8875                           	line	47
  8876                           	
  8877  1538                     l4130:	
  8878                           ;hard.c: 47: T0IE = 1;
  8879  1538  168B               	bsf	(93/8),(93)&7	;volatile
  8880                           	line	50
  8881                           	
  8882  1539                     l4132:	
  8883                           ;hard.c: 50: LVDCON = 0x16;
  8884  1539  3016               	movlw	(016h)
  8885  153A  1703               	bsf	status, 6	;RP1=1, select bank2
  8886  153B  0089               	movwf	(265)^0100h	;volatile
  8887                           	line	54
  8888                           ;hard.c: 54: TRISC |= 0x0C0;
  8889  153C  30C0               	movlw	(0C0h)
  8890  153D  1683               	bsf	status, 5	;RP0=1, select bank1
  8891  153E  1303               	bcf	status, 6	;RP1=0, select bank1
  8892  153F  0487               	iorwf	(135)^080h,f	;volatile
  8893                           	line	56
  8894                           	
  8895  1540                     l4134:	
  8896                           ;hard.c: 56: SSPADD = 0x12<<1;
  8897  1540  3024               	movlw	(024h)
  8898  1541  0093               	movwf	(147)^080h	;volatile
  8899                           	line	57
  8900                           	
  8901  1542                     l4136:	
  8902                           ;hard.c: 57: SSPSTAT = 0;
  8903  1542  0194               	clrf	(148)^080h	;volatile
  8904                           	line	58
  8905                           	
  8906  1543                     l4138:	
  8907                           ;hard.c: 58: SSPCON = 0;
  8908  1543  1283               	bcf	status, 5	;RP0=0, select bank0
  8909  1544  0194               	clrf	(20)	;volatile
  8910                           	line	59
  8911                           	
  8912  1545                     l4140:	
  8913                           ;hard.c: 59: SSPCON = 0x36;
  8914  1545  3036               	movlw	(036h)
  8915  1546  0094               	movwf	(20)	;volatile
  8916                           	line	61
  8917                           	
  8918  1547                     l4142:	
  8919                           ;hard.c: 61: SSPIF = 0;
  8920  1547  118C               	bcf	(99/8),(99)&7	;volatile
  8921                           	line	62
  8922                           	
  8923  1548                     l4144:	
  8924                           ;hard.c: 62: SSPIE = 1;
  8925  1548  1683               	bsf	status, 5	;RP0=1, select bank1
  8926  1549  158C               	bsf	(1123/8)^080h,(1123)&7	;volatile
  8927                           	line	65
  8928                           	
  8929  154A                     l4146:	
  8930                           ;hard.c: 65: TRISB |= 0x01;; TRISF |= 0x08;; TRISF |= 0x04;; TRISF |= 0x02;;
  8931  154A  1406               	bsf	(134)^080h+(0/8),(0)&7	;volatile
  8932                           	
  8933  154B                     l4148:	
  8934  154B  1703               	bsf	status, 6	;RP1=1, select bank3
  8935  154C  1585               	bsf	(389)^0180h+(3/8),(3)&7	;volatile
  8936                           	
  8937  154D                     l4150:	
  8938  154D  1505               	bsf	(389)^0180h+(2/8),(2)&7	;volatile
  8939                           	
  8940  154E                     l4152:	
  8941  154E  1485               	bsf	(389)^0180h+(1/8),(1)&7	;volatile
  8942                           	line	66
  8943                           	
  8944  154F                     l4154:	
  8945                           ;hard.c: 66: TRISF |= 0x01;; TRISG |= 0x20;; TRISG |= 0x10;; TRISG |= 0x08;;
  8946  154F  1405               	bsf	(389)^0180h+(0/8),(0)&7	;volatile
  8947                           	
  8948  1550                     l4156:	
  8949  1550  1687               	bsf	(391)^0180h+(5/8),(5)&7	;volatile
  8950                           	
  8951  1551                     l4158:	
  8952  1551  1607               	bsf	(391)^0180h+(4/8),(4)&7	;volatile
  8953                           	
  8954  1552                     l4160:	
  8955  1552  1587               	bsf	(391)^0180h+(3/8),(3)&7	;volatile
  8956                           	line	67
  8957                           	
  8958  1553                     l4162:	
  8959                           ;hard.c: 67: TRISG |= 0x04;; TRISG |= 0x02;; TRISG |= 0x01;; TRISD |= 0x80;;
  8960  1553  1507               	bsf	(391)^0180h+(2/8),(2)&7	;volatile
  8961                           	
  8962  1554                     l4164:	
  8963  1554  1487               	bsf	(391)^0180h+(1/8),(1)&7	;volatile
  8964                           	
  8965  1555                     l4166:	
  8966  1555  1407               	bsf	(391)^0180h+(0/8),(0)&7	;volatile
  8967                           	
  8968  1556                     l4168:	
  8969  1556  1303               	bcf	status, 6	;RP1=0, select bank1
  8970  1557  1788               	bsf	(136)^080h+(7/8),(7)&7	;volatile
  8971                           	line	68
  8972                           	
  8973  1558                     l4170:	
  8974                           ;hard.c: 68: TRISD |= 0x40;; TRISD |= 0x20;; TRISD |= 0x10;; TRISC |= 0x20;;
  8975  1558  1708               	bsf	(136)^080h+(6/8),(6)&7	;volatile
  8976                           	
  8977  1559                     l4172:	
  8978  1559  1688               	bsf	(136)^080h+(5/8),(5)&7	;volatile
  8979                           	
  8980  155A                     l4174:	
  8981  155A  1608               	bsf	(136)^080h+(4/8),(4)&7	;volatile
  8982                           	
  8983  155B                     l4176:	
  8984  155B  1687               	bsf	(135)^080h+(5/8),(5)&7	;volatile
  8985                           	line	69
  8986                           	
  8987  155C                     l4178:	
  8988                           ;hard.c: 69: TRISC |= 0x10;; TRISD |= 0x01;; TRISC |= 0x08;; TRISC |= 0x04;;
  8989  155C  1607               	bsf	(135)^080h+(4/8),(4)&7	;volatile
  8990                           	
  8991  155D                     l4180:	
  8992  155D  1408               	bsf	(136)^080h+(0/8),(0)&7	;volatile
  8993                           	
  8994  155E                     l4182:	
  8995  155E  1587               	bsf	(135)^080h+(3/8),(3)&7	;volatile
  8996                           	
  8997  155F                     l4184:	
  8998  155F  1507               	bsf	(135)^080h+(2/8),(2)&7	;volatile
  8999                           	line	70
  9000                           	
  9001  1560                     l4186:	
  9002                           ;hard.c: 70: TRISC |= 0x02;; TRISA |= 0x02;;
  9003  1560  1487               	bsf	(135)^080h+(1/8),(1)&7	;volatile
  9004                           	
  9005  1561                     l4188:	
  9006  1561  1485               	bsf	(133)^080h+(1/8),(1)&7	;volatile
  9007                           	line	72
  9008                           	
  9009  1562                     l4190:	
  9010                           ;hard.c: 72: TRISD &= ~0x08;;
  9011  1562  1188               	bcf	(136)^080h+(3/8),(3)&7	;volatile
  9012                           	line	73
  9013                           	
  9014  1563                     l4192:	
  9015                           ;hard.c: 73: TRISB &= ~0x08;; TRISB &= ~0x10;; TRISB &= ~0x20;; TRISA &= ~0x01;; TRISE &
                                 = ~0x01;;
  9016  1563  1186               	bcf	(134)^080h+(3/8),(3)&7	;volatile
  9017                           	
  9018  1564                     l4194:	
  9019  1564  1206               	bcf	(134)^080h+(4/8),(4)&7	;volatile
  9020                           	
  9021  1565                     l4196:	
  9022  1565  1286               	bcf	(134)^080h+(5/8),(5)&7	;volatile
  9023                           	
  9024  1566                     l4198:	
  9025  1566  1005               	bcf	(133)^080h+(0/8),(0)&7	;volatile
  9026                           	
  9027  1567                     l4200:	
  9028  1567  1009               	bcf	(137)^080h+(0/8),(0)&7	;volatile
  9029                           	line	74
  9030                           	
  9031  1568                     l4202:	
  9032                           ;hard.c: 74: TRISE &= ~0x20;; TRISE &= ~0x40;; ;; ;; ;;
  9033  1568  1289               	bcf	(137)^080h+(5/8),(5)&7	;volatile
  9034                           	
  9035  1569                     l4204:	
  9036  1569  1309               	bcf	(137)^080h+(6/8),(6)&7	;volatile
  9037                           	line	76
  9038                           	
  9039  156A                     l4206:	
  9040                           ;hard.c: 75: ;; ;; ;;
  9041                           ;hard.c: 76: TRISD |= 0x04;; TRISD &= ~0x02;;
  9042  156A  1508               	bsf	(136)^080h+(2/8),(2)&7	;volatile
  9043                           	
  9044  156B                     l4208:	
  9045  156B  1088               	bcf	(136)^080h+(1/8),(1)&7	;volatile
  9046                           	line	77
  9047                           	
  9048  156C                     l4210:	
  9049                           ;hard.c: 77: TRISA &= ~0x04;; TRISA &= ~0x08;; TRISA &= ~0x10;; TRISA &= ~0x20;;
  9050  156C  1105               	bcf	(133)^080h+(2/8),(2)&7	;volatile
  9051                           	
  9052  156D                     l4212:	
  9053  156D  1185               	bcf	(133)^080h+(3/8),(3)&7	;volatile
  9054                           	
  9055  156E                     l4214:	
  9056  156E  1205               	bcf	(133)^080h+(4/8),(4)&7	;volatile
  9057                           	
  9058  156F                     l4216:	
  9059  156F  1285               	bcf	(133)^080h+(5/8),(5)&7	;volatile
  9060                           	line	78
  9061                           	
  9062  1570                     l4218:	
  9063                           ;hard.c: 78: TRISE &= ~0x02;; TRISE &= ~0x10;; TRISE &= ~0x80;; TRISF &= ~0x10;;
  9064  1570  1089               	bcf	(137)^080h+(1/8),(1)&7	;volatile
  9065                           	
  9066  1571                     l4220:	
  9067  1571  1209               	bcf	(137)^080h+(4/8),(4)&7	;volatile
  9068                           	
  9069  1572                     l4222:	
  9070  1572  1389               	bcf	(137)^080h+(7/8),(7)&7	;volatile
  9071                           	
  9072  1573                     l4224:	
  9073  1573  1703               	bsf	status, 6	;RP1=1, select bank3
  9074  1574  1205               	bcf	(389)^0180h+(4/8),(4)&7	;volatile
  9075                           	line	79
  9076                           	
  9077  1575                     l4226:	
  9078                           ;hard.c: 79: TRISF &= ~0x20;; TRISF &= ~0x40;; ;; ;;
  9079  1575  1285               	bcf	(389)^0180h+(5/8),(5)&7	;volatile
  9080                           	
  9081  1576                     l4228:	
  9082  1576  1305               	bcf	(389)^0180h+(6/8),(6)&7	;volatile
  9083                           	line	80
  9084                           	
  9085  1577                     l4230:	
  9086                           ;hard.c: 80: TRISB &= ~0x02;; TRISB &= ~0x04;; TRISF &= ~0x80;; TRISC &= ~0x01;;
  9087  1577  1303               	bcf	status, 6	;RP1=0, select bank1
  9088  1578  1086               	bcf	(134)^080h+(1/8),(1)&7	;volatile
  9089                           	
  9090  1579                     l4232:	
  9091  1579  1106               	bcf	(134)^080h+(2/8),(2)&7	;volatile
  9092                           	
  9093  157A                     l4234:	
  9094  157A  1703               	bsf	status, 6	;RP1=1, select bank3
  9095  157B  1385               	bcf	(389)^0180h+(7/8),(7)&7	;volatile
  9096                           	
  9097  157C                     l4236:	
  9098  157C  1303               	bcf	status, 6	;RP1=0, select bank1
  9099  157D  1007               	bcf	(135)^080h+(0/8),(0)&7	;volatile
  9100                           	line	81
  9101                           	
  9102  157E                     l4238:	
  9103                           ;hard.c: 81: s_uc_PortB |= 0x02; s_uc_PortB |= 0x04; s_uc_PortF |= 0x80; s_uc_PortC |= 0
                                 x01;
  9104  157E  1283               	bcf	status, 5	;RP0=0, select bank0
  9105  157F  14B5               	bsf	(_s_uc_PortB)+(1/8),(1)&7
  9106                           	
  9107  1580                     l4240:	
  9108  1580  1535               	bsf	(_s_uc_PortB)+(2/8),(2)&7
  9109                           	
  9110  1581                     l4242:	
  9111  1581  17B9               	bsf	(_s_uc_PortF)+(7/8),(7)&7
  9112                           	
  9113  1582                     l4244:	
  9114  1582  1436               	bsf	(_s_uc_PortC)+(0/8),(0)&7
  9115                           	line	83
  9116                           	
  9117  1583                     l4246:	
  9118                           ;hard.c: 83: PORTA = s_uc_PortA;
  9119  1583  0834               	movf	(_s_uc_PortA),w
  9120  1584  0085               	movwf	(5)	;volatile
  9121                           	line	84
  9122                           	
  9123  1585                     l4248:	
  9124                           ;hard.c: 84: PORTB = s_uc_PortB;
  9125  1585  0835               	movf	(_s_uc_PortB),w
  9126  1586  0086               	movwf	(6)	;volatile
  9127                           	line	85
  9128                           	
  9129  1587                     l4250:	
  9130                           ;hard.c: 85: PORTC = s_uc_PortC;
  9131  1587  0836               	movf	(_s_uc_PortC),w
  9132  1588  0087               	movwf	(7)	;volatile
  9133                           	line	86
  9134                           	
  9135  1589                     l4252:	
  9136                           ;hard.c: 86: PORTD = s_uc_PortD;
  9137  1589  0837               	movf	(_s_uc_PortD),w
  9138  158A  0088               	movwf	(8)	;volatile
  9139                           	line	87
  9140                           	
  9141  158B                     l4254:	
  9142                           ;hard.c: 87: PORTE = s_uc_PortE;
  9143  158B  0838               	movf	(_s_uc_PortE),w
  9144  158C  0089               	movwf	(9)	;volatile
  9145                           	line	88
  9146                           	
  9147  158D                     l4256:	
  9148                           ;hard.c: 88: PORTF = s_uc_PortF;
  9149  158D  0839               	movf	(_s_uc_PortF),w
  9150  158E  1683               	bsf	status, 5	;RP0=1, select bank3
  9151  158F  1703               	bsf	status, 6	;RP1=1, select bank3
  9152  1590  0088               	movwf	(392)^0180h	;volatile
  9153                           	line	93
  9154                           # 93 "../source/hard.c"
  9155  1591  0064               clrwdt ;# 
  9156                           psect	text21
  9157                           	line	94
  9158                           	
  9159  1592                     l354:	
  9160  1592  0008               	return
  9161                           	opt stack 0
  9162                           GLOBAL	__end_of_vd_InitMicro
  9163  1593                     	__end_of_vd_InitMicro:
  9164                           	signat	_vd_InitMicro,88
  9165                           	global	_vd_I2C_Setup
  9166                           
  9167 ;; *************** function _vd_I2C_Setup *****************
  9168 ;; Defined at:
  9169 ;;		line 414 in file "../source/slavenode.c"
  9170 ;; Parameters:    Size  Location     Type
  9171 ;;		None
  9172 ;; Auto vars:     Size  Location     Type
  9173 ;;		None
  9174 ;; Return value:  Size  Location     Type
  9175 ;;		None               void
  9176 ;; Registers used:
  9177 ;;		status,2
  9178 ;; Tracked objects:
  9179 ;;		On entry : 0/0
  9180 ;;		On exit  : 60/60
  9181 ;;		Unchanged: 0/0
  9182 ;; Data sizes:     COMMON   BANK0   BANK3   BANK1   BANK2
  9183 ;;      Params:         0       0       0       0       0
  9184 ;;      Locals:         0       0       0       0       0
  9185 ;;      Temps:          0       0       0       0       0
  9186 ;;      Totals:         0       0       0       0       0
  9187 ;;Total ram usage:        0 bytes
  9188 ;; Hardware stack levels used:    1
  9189 ;; Hardware stack levels required when called:    4
  9190 ;; This function calls:
  9191 ;;		Nothing
  9192 ;; This function is called by:
  9193 ;;		_main
  9194 ;; This function uses a non-reentrant model
  9195 ;;
  9196                           psect	text22,local,class=CODE,delta=2,merge=1
  9197                           	file	"../source/slavenode.c"
  9198                           	line	414
  9199                           global __ptext22
  9200  1FC8                     __ptext22:	;psect for function _vd_I2C_Setup
  9201                           psect	text22
  9202                           	file	"../source/slavenode.c"
  9203                           	line	414
  9204                           	global	__size_of_vd_I2C_Setup
  9205  0008                     	__size_of_vd_I2C_Setup	equ	__end_of_vd_I2C_Setup-_vd_I2C_Setup
  9206                           	
  9207  1FC8                     _vd_I2C_Setup:	
  9208                           ;incstack = 0
  9209                           	opt	stack 3
  9210                           ; Regs used in _vd_I2C_Setup: [status,2]
  9211                           	line	416
  9212                           	
  9213  1FC8                     l4620:	
  9214                           ;slavenode.c: 416: RXBufferIndex = 0;
  9215  1FC8  01FD               	clrf	(_RXBufferIndex)
  9216                           	line	417
  9217                           ;slavenode.c: 418: CmdBufIndex = 0;
  9218  1FC9  1283               	bcf	status, 5	;RP0=0, select bank0
  9219  1FCA  1303               	bcf	status, 6	;RP1=0, select bank0
  9220  1FCB  01B0               	clrf	(_SensBufIndex)
  9221                           	line	421
  9222                           ;slavenode.c: 421: CmdBuf[0] = 0;
  9223  1FCC  1683               	bsf	status, 5	;RP0=1, select bank3
  9224  1FCD  1703               	bsf	status, 6	;RP1=1, select bank3
  9225  1FCE  01BA               	clrf	(_CmdBuf)^0180h
  9226                           	line	422
  9227                           	
  9228  1FCF                     l993:	
  9229  1FCF  0008               	return
  9230                           	opt stack 0
  9231                           GLOBAL	__end_of_vd_I2C_Setup
  9232  1FD0                     	__end_of_vd_I2C_Setup:
  9233                           	signat	_vd_I2C_Setup,88
  9234                           	global	_vd_ConfigBornier
  9235                           
  9236 ;; *************** function _vd_ConfigBornier *****************
  9237 ;; Defined at:
  9238 ;;		line 97 in file "../source/hard.c"
  9239 ;; Parameters:    Size  Location     Type
  9240 ;;		None
  9241 ;; Auto vars:     Size  Location     Type
  9242 ;;		None
  9243 ;; Return value:  Size  Location     Type
  9244 ;;		None               void
  9245 ;; Registers used:
  9246 ;;		wreg, status,2, status,0
  9247 ;; Tracked objects:
  9248 ;;		On entry : 0/60
  9249 ;;		On exit  : 60/0
  9250 ;;		Unchanged: 0/0
  9251 ;; Data sizes:     COMMON   BANK0   BANK3   BANK1   BANK2
  9252 ;;      Params:         0       0       0       0       0
  9253 ;;      Locals:         0       0       0       0       0
  9254 ;;      Temps:          0       0       0       0       0
  9255 ;;      Totals:         0       0       0       0       0
  9256 ;;Total ram usage:        0 bytes
  9257 ;; Hardware stack levels used:    1
  9258 ;; Hardware stack levels required when called:    4
  9259 ;; This function calls:
  9260 ;;		Nothing
  9261 ;; This function is called by:
  9262 ;;		_main
  9263 ;; This function uses a non-reentrant model
  9264 ;;
  9265                           psect	text23,local,class=CODE,delta=2,merge=1
  9266                           	file	"../source/hard.c"
  9267                           	line	97
  9268                           global __ptext23
  9269  1456                     __ptext23:	;psect for function _vd_ConfigBornier
  9270                           psect	text23
  9271                           	file	"../source/hard.c"
  9272                           	line	97
  9273                           	global	__size_of_vd_ConfigBornier
  9274  0054                     	__size_of_vd_ConfigBornier	equ	__end_of_vd_ConfigBornier-_vd_ConfigBornier
  9275                           	
  9276  1456                     _vd_ConfigBornier:	
  9277                           ;incstack = 0
  9278                           	opt	stack 3
  9279                           ; Regs used in _vd_ConfigBornier: [wreg+status,2+status,0]
  9280                           	line	109
  9281                           	
  9282  1456                     l4258:	
  9283                           ;hard.c: 109: uc_NB_ES = 21;
  9284  1456  3015               	movlw	(015h)
  9285  1457  1283               	bcf	status, 5	;RP0=0, select bank0
  9286  1458  1303               	bcf	status, 6	;RP1=0, select bank0
  9287  1459  00C4               	movwf	(_uc_NB_ES)
  9288                           	line	110
  9289                           ;hard.c: 110: uc_ENTREE_TOR_NB = 7;
  9290  145A  3007               	movlw	(07h)
  9291  145B  00C0               	movwf	(_uc_ENTREE_TOR_NB)
  9292                           	line	111
  9293                           ;hard.c: 111: uc_RM_NB = 7;
  9294  145C  3007               	movlw	(07h)
  9295  145D  00C6               	movwf	(_uc_RM_NB)
  9296                           	line	112
  9297                           ;hard.c: 112: uc_ENTREE_VARIATEUR_NB = 4;
  9298  145E  3004               	movlw	(04h)
  9299  145F  00C1               	movwf	(_uc_ENTREE_VARIATEUR_NB)
  9300                           	line	113
  9301                           ;hard.c: 113: uc_VARIATEUR_NB = 4;
  9302  1460  3004               	movlw	(04h)
  9303  1461  00C7               	movwf	(_uc_VARIATEUR_NB)
  9304                           	line	114
  9305                           ;hard.c: 114: uc_ENTREE_VOLET_NB = 10;
  9306  1462  300A               	movlw	(0Ah)
  9307  1463  00C2               	movwf	(_uc_ENTREE_VOLET_NB)
  9308                           	line	115
  9309                           ;hard.c: 115: uc_RB_NB = 10;
  9310  1464  300A               	movlw	(0Ah)
  9311  1465  00C5               	movwf	(_uc_RB_NB)
  9312                           	line	116
  9313                           	
  9314  1466                     l4260:	
  9315                           ;hard.c: 116: uc_VOLET_NB = uc_RB_NB >> 1;
  9316  1466  1003               	clrc
  9317  1467  0C45               	rrf	(_uc_RB_NB),w
  9318  1468  00C8               	movwf	(_uc_VOLET_NB)
  9319                           	line	148
  9320                           	
  9321  1469                     l4262:	
  9322                           ;hard.c: 148: if (uc_NB_ES > NB_ES)
  9323  1469  3017               	movlw	(017h)
  9324  146A  0244               	subwf	(_uc_NB_ES),w
  9325  146B  1C03               	skipc
  9326  146C  2C6E               	goto	u4571
  9327  146D  2C6F               	goto	u4570
  9328  146E                     u4571:
  9329  146E  2C71               	goto	l357
  9330  146F                     u4570:
  9331                           	line	149
  9332                           	
  9333  146F                     l4264:	
  9334                           ;hard.c: 149: uc_NB_ES = NB_ES;
  9335  146F  3016               	movlw	(016h)
  9336  1470  00C4               	movwf	(_uc_NB_ES)
  9337                           	
  9338  1471                     l357:	
  9339                           	line	150
  9340                           ;hard.c: 150: if (uc_ENTREE_TOR_NB > ENTREE_TOR_NB)
  9341  1471  300E               	movlw	(0Eh)
  9342  1472  0240               	subwf	(_uc_ENTREE_TOR_NB),w
  9343  1473  1C03               	skipc
  9344  1474  2C76               	goto	u4581
  9345  1475  2C77               	goto	u4580
  9346  1476                     u4581:
  9347  1476  2C79               	goto	l358
  9348  1477                     u4580:
  9349                           	line	151
  9350                           	
  9351  1477                     l4266:	
  9352                           ;hard.c: 151: uc_ENTREE_TOR_NB = ENTREE_TOR_NB;
  9353  1477  300D               	movlw	(0Dh)
  9354  1478  00C0               	movwf	(_uc_ENTREE_TOR_NB)
  9355                           	
  9356  1479                     l358:	
  9357                           	line	152
  9358                           ;hard.c: 152: if (uc_RM_NB > RM_NB)
  9359  1479  300E               	movlw	(0Eh)
  9360  147A  0246               	subwf	(_uc_RM_NB),w
  9361  147B  1C03               	skipc
  9362  147C  2C7E               	goto	u4591
  9363  147D  2C7F               	goto	u4590
  9364  147E                     u4591:
  9365  147E  2C81               	goto	l359
  9366  147F                     u4590:
  9367                           	line	153
  9368                           	
  9369  147F                     l4268:	
  9370                           ;hard.c: 153: uc_RM_NB = RM_NB;
  9371  147F  300D               	movlw	(0Dh)
  9372  1480  00C6               	movwf	(_uc_RM_NB)
  9373                           	
  9374  1481                     l359:	
  9375                           	line	154
  9376                           ;hard.c: 154: if (uc_ENTREE_VARIATEUR_NB > ENTREE_VARIATEUR_NB)
  9377  1481  3005               	movlw	(05h)
  9378  1482  0241               	subwf	(_uc_ENTREE_VARIATEUR_NB),w
  9379  1483  1C03               	skipc
  9380  1484  2C86               	goto	u4601
  9381  1485  2C87               	goto	u4600
  9382  1486                     u4601:
  9383  1486  2C89               	goto	l360
  9384  1487                     u4600:
  9385                           	line	155
  9386                           	
  9387  1487                     l4270:	
  9388                           ;hard.c: 155: uc_ENTREE_VARIATEUR_NB = ENTREE_VARIATEUR_NB;
  9389  1487  3004               	movlw	(04h)
  9390  1488  00C1               	movwf	(_uc_ENTREE_VARIATEUR_NB)
  9391                           	
  9392  1489                     l360:	
  9393                           	line	156
  9394                           ;hard.c: 156: if (uc_VARIATEUR_NB > VARIATEUR_NB)
  9395  1489  3005               	movlw	(05h)
  9396  148A  0247               	subwf	(_uc_VARIATEUR_NB),w
  9397  148B  1C03               	skipc
  9398  148C  2C8E               	goto	u4611
  9399  148D  2C8F               	goto	u4610
  9400  148E                     u4611:
  9401  148E  2C91               	goto	l361
  9402  148F                     u4610:
  9403                           	line	157
  9404                           	
  9405  148F                     l4272:	
  9406                           ;hard.c: 157: uc_VARIATEUR_NB = VARIATEUR_NB;
  9407  148F  3004               	movlw	(04h)
  9408  1490  00C7               	movwf	(_uc_VARIATEUR_NB)
  9409                           	
  9410  1491                     l361:	
  9411                           	line	158
  9412                           ;hard.c: 158: if (uc_ENTREE_VOLET_NB > ENTREE_VOLET_NB)
  9413  1491  300D               	movlw	(0Dh)
  9414  1492  0242               	subwf	(_uc_ENTREE_VOLET_NB),w
  9415  1493  1C03               	skipc
  9416  1494  2C96               	goto	u4621
  9417  1495  2C97               	goto	u4620
  9418  1496                     u4621:
  9419  1496  2C99               	goto	l362
  9420  1497                     u4620:
  9421                           	line	159
  9422                           	
  9423  1497                     l4274:	
  9424                           ;hard.c: 159: uc_ENTREE_VOLET_NB = ENTREE_VOLET_NB;
  9425  1497  300C               	movlw	(0Ch)
  9426  1498  00C2               	movwf	(_uc_ENTREE_VOLET_NB)
  9427                           	
  9428  1499                     l362:	
  9429                           	line	160
  9430                           ;hard.c: 160: if (uc_RB_NB > RB_NB)
  9431  1499  300D               	movlw	(0Dh)
  9432  149A  0245               	subwf	(_uc_RB_NB),w
  9433  149B  1C03               	skipc
  9434  149C  2C9E               	goto	u4631
  9435  149D  2C9F               	goto	u4630
  9436  149E                     u4631:
  9437  149E  2CA1               	goto	l363
  9438  149F                     u4630:
  9439                           	line	161
  9440                           	
  9441  149F                     l4276:	
  9442                           ;hard.c: 161: uc_RB_NB = RB_NB;
  9443  149F  300C               	movlw	(0Ch)
  9444  14A0  00C5               	movwf	(_uc_RB_NB)
  9445                           	
  9446  14A1                     l363:	
  9447                           	line	162
  9448                           ;hard.c: 162: if (uc_VOLET_NB > RB_NB/2)
  9449  14A1  3007               	movlw	(07h)
  9450  14A2  0248               	subwf	(_uc_VOLET_NB),w
  9451  14A3  1C03               	skipc
  9452  14A4  2CA6               	goto	u4641
  9453  14A5  2CA7               	goto	u4640
  9454  14A6                     u4641:
  9455  14A6  2CA9               	goto	l365
  9456  14A7                     u4640:
  9457                           	line	163
  9458                           	
  9459  14A7                     l4278:	
  9460                           ;hard.c: 163: uc_VOLET_NB = RB_NB/2;
  9461  14A7  3006               	movlw	(06h)
  9462  14A8  00C8               	movwf	(_uc_VOLET_NB)
  9463                           	line	164
  9464                           	
  9465  14A9                     l365:	
  9466  14A9  0008               	return
  9467                           	opt stack 0
  9468                           GLOBAL	__end_of_vd_ConfigBornier
  9469  14AA                     	__end_of_vd_ConfigBornier:
  9470                           	signat	_vd_ConfigBornier,88
  9471                           	global	_vd_ArretPilotageRelaisBist
  9472                           
  9473 ;; *************** function _vd_ArretPilotageRelaisBist *****************
  9474 ;; Defined at:
  9475 ;;		line 175 in file "../source/gestionsorties.c"
  9476 ;; Parameters:    Size  Location     Type
  9477 ;;		None
  9478 ;; Auto vars:     Size  Location     Type
  9479 ;;  l_uc_Compteu    1    7[BANK0 ] unsigned char 
  9480 ;; Return value:  Size  Location     Type
  9481 ;;		None               void
  9482 ;; Registers used:
  9483 ;;		wreg, fsr0l, fsr0h, status,2, status,0, pclath, cstack
  9484 ;; Tracked objects:
  9485 ;;		On entry : 60/0
  9486 ;;		On exit  : 60/0
  9487 ;;		Unchanged: 0/0
  9488 ;; Data sizes:     COMMON   BANK0   BANK3   BANK1   BANK2
  9489 ;;      Params:         0       0       0       0       0
  9490 ;;      Locals:         0       1       0       0       0
  9491 ;;      Temps:          0       0       0       0       0
  9492 ;;      Totals:         0       1       0       0       0
  9493 ;;Total ram usage:        1 bytes
  9494 ;; Hardware stack levels used:    1
  9495 ;; Hardware stack levels required when called:    5
  9496 ;; This function calls:
  9497 ;;		_vd_PiloterSortie
  9498 ;; This function is called by:
  9499 ;;		_main
  9500 ;; This function uses a non-reentrant model
  9501 ;;
  9502                           psect	text24,local,class=CODE,delta=2,merge=1
  9503                           	file	"../source/gestionsorties.c"
  9504                           	line	175
  9505                           global __ptext24
  9506  1FE8                     __ptext24:	;psect for function _vd_ArretPilotageRelaisBist
  9507                           psect	text24
  9508                           	file	"../source/gestionsorties.c"
  9509                           	line	175
  9510                           	global	__size_of_vd_ArretPilotageRelaisBist
  9511  0018                     	__size_of_vd_ArretPilotageRelaisBist	equ	__end_of_vd_ArretPilotageRelaisBist-_vd_ArretP
                                 ilotageRelaisBist
  9512                           	
  9513  1FE8                     _vd_ArretPilotageRelaisBist:	
  9514                           ;incstack = 0
  9515                           	opt	stack 2
  9516                           ; Regs used in _vd_ArretPilotageRelaisBist: [wreg-fsr0h+status,2+status,0+pclath+cstack]
  9517                           	line	179
  9518                           	
  9519  1FE8                     l4078:	
  9520                           ;gestionsorties.c: 177: unsigned char l_uc_Compteur;
  9521                           ;gestionsorties.c: 179: for(l_uc_Compteur=0;l_uc_Compteur<uc_RB_NB;l_uc_Compteur++)
  9522  1FE8  01D7               	clrf	(vd_ArretPilotageRelaisBist@l_uc_Compteur)
  9523  1FE9  2FF6               	goto	l4084
  9524                           	line	181
  9525                           	
  9526  1FEA                     l4080:	
  9527                           ;gestionsorties.c: 180: {
  9528                           ;gestionsorties.c: 181: vd_PiloterSortie(uc_SORTIE_RELAIS_BISTABLE,l_uc_Compteur,0);
  9529  1FEA  0857               	movf	(vd_ArretPilotageRelaisBist@l_uc_Compteur),w
  9530  1FEB  00D4               	movwf	(vd_PiloterSortie@uc_NumeroSortie)
  9531  1FEC  01D5               	clrf	(vd_PiloterSortie@uc_Etat)
  9532  1FED  3002               	movlw	(02h)
  9533  1FEE  120A  158A  2216   	fcall	_vd_PiloterSortie
              160A  158A         
  9534                           	line	179
  9535                           	
  9536  1FF3                     l4082:	
  9537  1FF3  1283               	bcf	status, 5	;RP0=0, select bank0
  9538  1FF4  1303               	bcf	status, 6	;RP1=0, select bank0
  9539  1FF5  0AD7               	incf	(vd_ArretPilotageRelaisBist@l_uc_Compteur),f
  9540                           	
  9541  1FF6                     l4084:	
  9542  1FF6  0845               	movf	(_uc_RB_NB),w
  9543  1FF7  0257               	subwf	(vd_ArretPilotageRelaisBist@l_uc_Compteur),w
  9544  1FF8  1C03               	skipc
  9545  1FF9  2FFB               	goto	u4521
  9546  1FFA  2FFC               	goto	u4520
  9547  1FFB                     u4521:
  9548  1FFB  2FEA               	goto	l4080
  9549  1FFC                     u4520:
  9550                           	line	184
  9551                           	
  9552  1FFC                     l4086:	
  9553                           ;gestionsorties.c: 182: }
  9554                           ;gestionsorties.c: 184: CCPR2L = 0;
  9555  1FFC  019B               	clrf	(27)	;volatile
  9556                           	line	185
  9557                           	
  9558  1FFD                     l4088:	
  9559                           ;gestionsorties.c: 185: CCP2CON &= ~0x30;
  9560  1FFD  30CF               	movlw	(0CFh)
  9561  1FFE  059D               	andwf	(29),f	;volatile
  9562                           	line	186
  9563                           	
  9564  1FFF                     l202:	
  9565  1FFF  0008               	return
  9566                           	opt stack 0
  9567                           GLOBAL	__end_of_vd_ArretPilotageRelaisBist
  9568  2000                     	__end_of_vd_ArretPilotageRelaisBist:
  9569                           	signat	_vd_ArretPilotageRelaisBist,88
  9570                           	global	_vd_PiloterSortie
  9571                           
  9572 ;; *************** function _vd_PiloterSortie *****************
  9573 ;; Defined at:
  9574 ;;		line 249 in file "../source/hard.c"
  9575 ;; Parameters:    Size  Location     Type
  9576 ;;  uc_TypeSorti    1    wreg     unsigned char 
  9577 ;;  uc_NumeroSor    1    4[BANK0 ] unsigned char 
  9578 ;;  uc_Etat         1    5[BANK0 ] unsigned char 
  9579 ;; Auto vars:     Size  Location     Type
  9580 ;;  uc_TypeSorti    1    6[BANK0 ] unsigned char 
  9581 ;; Return value:  Size  Location     Type
  9582 ;;		None               void
  9583 ;; Registers used:
  9584 ;;		wreg, fsr0l, fsr0h, status,2, status,0
  9585 ;; Tracked objects:
  9586 ;;		On entry : 60/0
  9587 ;;		On exit  : 60/60
  9588 ;;		Unchanged: 0/0
  9589 ;; Data sizes:     COMMON   BANK0   BANK3   BANK1   BANK2
  9590 ;;      Params:         0       2       0       0       0
  9591 ;;      Locals:         0       1       0       0       0
  9592 ;;      Temps:          0       0       0       0       0
  9593 ;;      Totals:         0       3       0       0       0
  9594 ;;Total ram usage:        3 bytes
  9595 ;; Hardware stack levels used:    1
  9596 ;; Hardware stack levels required when called:    4
  9597 ;; This function calls:
  9598 ;;		Nothing
  9599 ;; This function is called by:
  9600 ;;		_vd_PiloterLed
  9601 ;;		_vd_PiloterRelais
  9602 ;;		_vd_PiloterRelaisBistable
  9603 ;;		_vd_ArretPilotageRelaisBist
  9604 ;; This function uses a non-reentrant model
  9605 ;;
  9606                           psect	text25,local,class=CODE,delta=2,merge=1
  9607                           	file	"../source/hard.c"
  9608                           	line	249
  9609                           global __ptext25
  9610  0A16                     __ptext25:	;psect for function _vd_PiloterSortie
  9611                           psect	text25
  9612                           	file	"../source/hard.c"
  9613                           	line	249
  9614                           	global	__size_of_vd_PiloterSortie
  9615  013C                     	__size_of_vd_PiloterSortie	equ	__end_of_vd_PiloterSortie-_vd_PiloterSortie
  9616                           	
  9617  0A16                     _vd_PiloterSortie:	
  9618                           ;incstack = 0
  9619                           	opt	stack 0
  9620                           ; Regs used in _vd_PiloterSortie: [wreg-fsr0h+status,2+status,0]
  9621                           ;vd_PiloterSortie@uc_TypeSortie stored from wreg
  9622  0A16  00D6               	movwf	(vd_PiloterSortie@uc_TypeSortie)
  9623                           	line	258
  9624                           	
  9625  0A17                     l3866:	
  9626                           ;hard.c: 258: switch(uc_TypeSortie)
  9627  0A17  2B32               	goto	l3980
  9628                           	line	263
  9629                           ;hard.c: 262: {
  9630                           ;hard.c: 263: case uc_RM0:
  9631                           	
  9632  0A18                     l422:	
  9633                           	line	264
  9634                           ;hard.c: 264: if(uc_Etat != 0) s_uc_PortB |= 0x08;
  9635  0A18  0855               	movf	(vd_PiloterSortie@uc_Etat),w
  9636  0A19  1D03               	skipz
  9637  0A1A  2A1C               	goto	u4040
  9638  0A1B  2A1E               	goto	l423
  9639  0A1C                     u4040:
  9640                           	
  9641  0A1C                     l3868:	
  9642  0A1C  15B5               	bsf	(_s_uc_PortB)+(3/8),(3)&7
  9643  0A1D  2B43               	goto	l3982
  9644                           	line	265
  9645                           	
  9646  0A1E                     l423:	
  9647                           ;hard.c: 265: else s_uc_PortB &= ~0x08;
  9648  0A1E  11B5               	bcf	(_s_uc_PortB)+(3/8),(3)&7
  9649  0A1F  2B43               	goto	l3982
  9650                           	line	267
  9651                           ;hard.c: 267: case uc_RM1:
  9652                           	
  9653  0A20                     l426:	
  9654                           	line	268
  9655                           ;hard.c: 268: if(uc_Etat != 0) s_uc_PortB |= 0x10;
  9656  0A20  0855               	movf	(vd_PiloterSortie@uc_Etat),w
  9657  0A21  1D03               	skipz
  9658  0A22  2A24               	goto	u4050
  9659  0A23  2A26               	goto	l427
  9660  0A24                     u4050:
  9661                           	
  9662  0A24                     l3870:	
  9663  0A24  1635               	bsf	(_s_uc_PortB)+(4/8),(4)&7
  9664  0A25  2B43               	goto	l3982
  9665                           	line	269
  9666                           	
  9667  0A26                     l427:	
  9668                           ;hard.c: 269: else s_uc_PortB &= ~0x10;
  9669  0A26  1235               	bcf	(_s_uc_PortB)+(4/8),(4)&7
  9670  0A27  2B43               	goto	l3982
  9671                           	line	271
  9672                           ;hard.c: 271: case uc_RM2:
  9673                           	
  9674  0A28                     l429:	
  9675                           	line	272
  9676                           ;hard.c: 272: if(uc_Etat != 0) s_uc_PortB |= 0x20;
  9677  0A28  0855               	movf	(vd_PiloterSortie@uc_Etat),w
  9678  0A29  1D03               	skipz
  9679  0A2A  2A2C               	goto	u4060
  9680  0A2B  2A2E               	goto	l430
  9681  0A2C                     u4060:
  9682                           	
  9683  0A2C                     l3872:	
  9684  0A2C  16B5               	bsf	(_s_uc_PortB)+(5/8),(5)&7
  9685  0A2D  2B43               	goto	l3982
  9686                           	line	273
  9687                           	
  9688  0A2E                     l430:	
  9689                           ;hard.c: 273: else s_uc_PortB &= ~0x20;
  9690  0A2E  12B5               	bcf	(_s_uc_PortB)+(5/8),(5)&7
  9691  0A2F  2B43               	goto	l3982
  9692                           	line	275
  9693                           ;hard.c: 275: case uc_RM3:
  9694                           	
  9695  0A30                     l432:	
  9696                           	line	276
  9697                           ;hard.c: 276: if(uc_Etat != 0) s_uc_PortA |= 0x01;
  9698  0A30  0855               	movf	(vd_PiloterSortie@uc_Etat),w
  9699  0A31  1D03               	skipz
  9700  0A32  2A34               	goto	u4070
  9701  0A33  2A36               	goto	l433
  9702  0A34                     u4070:
  9703                           	
  9704  0A34                     l3874:	
  9705  0A34  1434               	bsf	(_s_uc_PortA)+(0/8),(0)&7
  9706  0A35  2B43               	goto	l3982
  9707                           	line	277
  9708                           	
  9709  0A36                     l433:	
  9710                           ;hard.c: 277: else s_uc_PortA &= ~0x01;
  9711  0A36  1034               	bcf	(_s_uc_PortA)+(0/8),(0)&7
  9712  0A37  2B43               	goto	l3982
  9713                           	line	279
  9714                           ;hard.c: 279: case uc_RM4:
  9715                           	
  9716  0A38                     l435:	
  9717                           	line	280
  9718                           ;hard.c: 280: if(uc_Etat != 0) s_uc_PortE |= 0x01;
  9719  0A38  0855               	movf	(vd_PiloterSortie@uc_Etat),w
  9720  0A39  1D03               	skipz
  9721  0A3A  2A3C               	goto	u4080
  9722  0A3B  2A3E               	goto	l436
  9723  0A3C                     u4080:
  9724                           	
  9725  0A3C                     l3876:	
  9726  0A3C  1438               	bsf	(_s_uc_PortE)+(0/8),(0)&7
  9727  0A3D  2B43               	goto	l3982
  9728                           	line	281
  9729                           	
  9730  0A3E                     l436:	
  9731                           ;hard.c: 281: else s_uc_PortE &= ~0x01;
  9732  0A3E  1038               	bcf	(_s_uc_PortE)+(0/8),(0)&7
  9733  0A3F  2B43               	goto	l3982
  9734                           	line	283
  9735                           ;hard.c: 283: case uc_RM5:
  9736                           	
  9737  0A40                     l438:	
  9738                           	line	284
  9739                           ;hard.c: 284: if(uc_Etat != 0) s_uc_PortE |= 0x20;
  9740  0A40  0855               	movf	(vd_PiloterSortie@uc_Etat),w
  9741  0A41  1D03               	skipz
  9742  0A42  2A44               	goto	u4090
  9743  0A43  2A46               	goto	l439
  9744  0A44                     u4090:
  9745                           	
  9746  0A44                     l3878:	
  9747  0A44  16B8               	bsf	(_s_uc_PortE)+(5/8),(5)&7
  9748  0A45  2B43               	goto	l3982
  9749                           	line	285
  9750                           	
  9751  0A46                     l439:	
  9752                           ;hard.c: 285: else s_uc_PortE &= ~0x20;
  9753  0A46  12B8               	bcf	(_s_uc_PortE)+(5/8),(5)&7
  9754  0A47  2B43               	goto	l3982
  9755                           	line	287
  9756                           ;hard.c: 287: case uc_RM6:
  9757                           	
  9758  0A48                     l441:	
  9759                           	line	288
  9760                           ;hard.c: 288: if(uc_Etat != 0) s_uc_PortE |= 0x40;
  9761  0A48  0855               	movf	(vd_PiloterSortie@uc_Etat),w
  9762  0A49  1D03               	skipz
  9763  0A4A  2A4C               	goto	u4100
  9764  0A4B  2A4E               	goto	l442
  9765  0A4C                     u4100:
  9766                           	
  9767  0A4C                     l3880:	
  9768  0A4C  1738               	bsf	(_s_uc_PortE)+(6/8),(6)&7
  9769  0A4D  2B43               	goto	l3982
  9770                           	line	289
  9771                           	
  9772  0A4E                     l442:	
  9773                           ;hard.c: 289: else s_uc_PortE &= ~0x40;
  9774  0A4E  1338               	bcf	(_s_uc_PortE)+(6/8),(6)&7
  9775  0A4F  2B43               	goto	l3982
  9776                           	line	261
  9777                           	
  9778  0A50                     l3896:	
  9779  0A50  0854               	movf	(vd_PiloterSortie@uc_NumeroSortie),w
  9780                           	; Switch size 1, requested type "space"
  9781                           ; Number of cases is 13, Range of values is 0 to 12
  9782                           ; switch strategies available:
  9783                           ; Name         Instructions Cycles
  9784                           ; simple_byte           40    21 (average)
  9785                           ; direct_byte           47     8 (fixed)
  9786                           ; jumptable            260     6 (fixed)
  9787                           ;	Chosen strategy is simple_byte
  9788                           
  9789                           	opt asmopt_off
  9790  0A51  3A00               	xorlw	0^0	; case 0
  9791  0A52  1903               	skipnz
  9792  0A53  2A18               	goto	l422
  9793  0A54  3A01               	xorlw	1^0	; case 1
  9794  0A55  1903               	skipnz
  9795  0A56  2A20               	goto	l426
  9796  0A57  3A03               	xorlw	2^1	; case 2
  9797  0A58  1903               	skipnz
  9798  0A59  2A28               	goto	l429
  9799  0A5A  3A01               	xorlw	3^2	; case 3
  9800  0A5B  1903               	skipnz
  9801  0A5C  2A30               	goto	l432
  9802  0A5D  3A07               	xorlw	4^3	; case 4
  9803  0A5E  1903               	skipnz
  9804  0A5F  2A38               	goto	l435
  9805  0A60  3A01               	xorlw	5^4	; case 5
  9806  0A61  1903               	skipnz
  9807  0A62  2A40               	goto	l438
  9808  0A63  3A03               	xorlw	6^5	; case 6
  9809  0A64  1903               	skipnz
  9810  0A65  2A48               	goto	l441
  9811  0A66  3A01               	xorlw	7^6	; case 7
  9812  0A67  1903               	skipnz
  9813  0A68  2B43               	goto	l3982
  9814  0A69  3A0F               	xorlw	8^7	; case 8
  9815  0A6A  1903               	skipnz
  9816  0A6B  2B43               	goto	l3982
  9817  0A6C  3A01               	xorlw	9^8	; case 9
  9818  0A6D  1903               	skipnz
  9819  0A6E  2B43               	goto	l3982
  9820  0A6F  3A03               	xorlw	10^9	; case 10
  9821  0A70  1903               	skipnz
  9822  0A71  2B43               	goto	l3982
  9823  0A72  3A01               	xorlw	11^10	; case 11
  9824  0A73  1903               	skipnz
  9825  0A74  2B43               	goto	l3982
  9826  0A75  3A07               	xorlw	12^11	; case 12
  9827  0A76  1903               	skipnz
  9828  0A77  2B43               	goto	l3982
  9829  0A78  2B43               	goto	l3982
  9830                           	opt asmopt_on
  9831                           
  9832                           	line	320
  9833                           ;hard.c: 319: {
  9834                           ;hard.c: 320: case uc_RBSENS1:
  9835                           	
  9836  0A79                     l465:	
  9837                           	line	322
  9838                           ;hard.c: 321: ;
  9839                           ;hard.c: 322: s_uc_PortD &= ~0x02;
  9840  0A79  10B7               	bcf	(_s_uc_PortD)+(1/8),(1)&7
  9841                           	line	323
  9842                           ;hard.c: 323: break;
  9843  0A7A  2B43               	goto	l3982
  9844                           	line	324
  9845                           ;hard.c: 324: case uc_RBSENS2:
  9846                           	
  9847  0A7B                     l467:	
  9848                           	line	326
  9849                           ;hard.c: 325: ;
  9850                           ;hard.c: 326: s_uc_PortD|= 0x02;
  9851  0A7B  14B7               	bsf	(_s_uc_PortD)+(1/8),(1)&7
  9852                           	line	327
  9853                           ;hard.c: 327: break;
  9854  0A7C  2B43               	goto	l3982
  9855                           	line	318
  9856                           	
  9857  0A7D                     l3900:	
  9858  0A7D  0854               	movf	(vd_PiloterSortie@uc_NumeroSortie),w
  9859                           	; Switch size 1, requested type "space"
  9860                           ; Number of cases is 2, Range of values is 0 to 1
  9861                           ; switch strategies available:
  9862                           ; Name         Instructions Cycles
  9863                           ; simple_byte            7     4 (average)
  9864                           ; direct_byte           14     8 (fixed)
  9865                           ; jumptable            260     6 (fixed)
  9866                           ;	Chosen strategy is simple_byte
  9867                           
  9868                           	opt asmopt_off
  9869  0A7E  3A00               	xorlw	0^0	; case 0
  9870  0A7F  1903               	skipnz
  9871  0A80  2A79               	goto	l465
  9872  0A81  3A01               	xorlw	1^0	; case 1
  9873  0A82  1903               	skipnz
  9874  0A83  2A7B               	goto	l467
  9875  0A84  2B43               	goto	l3982
  9876                           	opt asmopt_on
  9877                           
  9878                           	line	334
  9879                           	
  9880  0A85                     l3902:	
  9881                           ;hard.c: 334: if(uc_Etat != 0) s_uc_PortA |= 0x04;
  9882  0A85  0855               	movf	(vd_PiloterSortie@uc_Etat),w
  9883  0A86  1D03               	skipz
  9884  0A87  2A89               	goto	u4110
  9885  0A88  2A8B               	goto	l471
  9886  0A89                     u4110:
  9887                           	
  9888  0A89                     l3904:	
  9889  0A89  1534               	bsf	(_s_uc_PortA)+(2/8),(2)&7
  9890  0A8A  2B43               	goto	l3982
  9891                           	line	335
  9892                           	
  9893  0A8B                     l471:	
  9894                           ;hard.c: 335: else s_uc_PortA &= ~0x04;
  9895  0A8B  1134               	bcf	(_s_uc_PortA)+(2/8),(2)&7
  9896  0A8C  2B43               	goto	l3982
  9897                           	line	338
  9898                           	
  9899  0A8D                     l3906:	
  9900                           ;hard.c: 338: if(uc_Etat != 0) s_uc_PortA |= 0x08;
  9901  0A8D  0855               	movf	(vd_PiloterSortie@uc_Etat),w
  9902  0A8E  1D03               	skipz
  9903  0A8F  2A91               	goto	u4120
  9904  0A90  2A93               	goto	l475
  9905  0A91                     u4120:
  9906                           	
  9907  0A91                     l3908:	
  9908  0A91  15B4               	bsf	(_s_uc_PortA)+(3/8),(3)&7
  9909  0A92  2B43               	goto	l3982
  9910                           	line	339
  9911                           	
  9912  0A93                     l475:	
  9913                           ;hard.c: 339: else s_uc_PortA &= ~0x08;
  9914  0A93  11B4               	bcf	(_s_uc_PortA)+(3/8),(3)&7
  9915  0A94  2B43               	goto	l3982
  9916                           	line	342
  9917                           	
  9918  0A95                     l3910:	
  9919                           ;hard.c: 342: if(uc_Etat != 0) s_uc_PortA |= 0x10;
  9920  0A95  0855               	movf	(vd_PiloterSortie@uc_Etat),w
  9921  0A96  1D03               	skipz
  9922  0A97  2A99               	goto	u4130
  9923  0A98  2A9B               	goto	l478
  9924  0A99                     u4130:
  9925                           	
  9926  0A99                     l3912:	
  9927  0A99  1634               	bsf	(_s_uc_PortA)+(4/8),(4)&7
  9928  0A9A  2B43               	goto	l3982
  9929                           	line	343
  9930                           	
  9931  0A9B                     l478:	
  9932                           ;hard.c: 343: else s_uc_PortA &= ~0x10;
  9933  0A9B  1234               	bcf	(_s_uc_PortA)+(4/8),(4)&7
  9934  0A9C  2B43               	goto	l3982
  9935                           	line	346
  9936                           	
  9937  0A9D                     l3914:	
  9938                           ;hard.c: 346: if(uc_Etat != 0) s_uc_PortA |= 0x20;
  9939  0A9D  0855               	movf	(vd_PiloterSortie@uc_Etat),w
  9940  0A9E  1D03               	skipz
  9941  0A9F  2AA1               	goto	u4140
  9942  0AA0  2AA3               	goto	l481
  9943  0AA1                     u4140:
  9944                           	
  9945  0AA1                     l3916:	
  9946  0AA1  16B4               	bsf	(_s_uc_PortA)+(5/8),(5)&7
  9947  0AA2  2B43               	goto	l3982
  9948                           	line	347
  9949                           	
  9950  0AA3                     l481:	
  9951                           ;hard.c: 347: else s_uc_PortA &= ~0x20;
  9952  0AA3  12B4               	bcf	(_s_uc_PortA)+(5/8),(5)&7
  9953  0AA4  2B43               	goto	l3982
  9954                           	line	350
  9955                           	
  9956  0AA5                     l3918:	
  9957                           ;hard.c: 350: if(uc_Etat != 0) s_uc_PortE |= 0x02;
  9958  0AA5  0855               	movf	(vd_PiloterSortie@uc_Etat),w
  9959  0AA6  1D03               	skipz
  9960  0AA7  2AA9               	goto	u4150
  9961  0AA8  2AAB               	goto	l484
  9962  0AA9                     u4150:
  9963                           	
  9964  0AA9                     l3920:	
  9965  0AA9  14B8               	bsf	(_s_uc_PortE)+(1/8),(1)&7
  9966  0AAA  2B43               	goto	l3982
  9967                           	line	351
  9968                           	
  9969  0AAB                     l484:	
  9970                           ;hard.c: 351: else s_uc_PortE &= ~0x02;
  9971  0AAB  10B8               	bcf	(_s_uc_PortE)+(1/8),(1)&7
  9972  0AAC  2B43               	goto	l3982
  9973                           	line	354
  9974                           	
  9975  0AAD                     l3922:	
  9976                           ;hard.c: 354: if(uc_Etat != 0) s_uc_PortE |= 0x10;
  9977  0AAD  0855               	movf	(vd_PiloterSortie@uc_Etat),w
  9978  0AAE  1D03               	skipz
  9979  0AAF  2AB1               	goto	u4160
  9980  0AB0  2AB3               	goto	l487
  9981  0AB1                     u4160:
  9982                           	
  9983  0AB1                     l3924:	
  9984  0AB1  1638               	bsf	(_s_uc_PortE)+(4/8),(4)&7
  9985  0AB2  2B43               	goto	l3982
  9986                           	line	355
  9987                           	
  9988  0AB3                     l487:	
  9989                           ;hard.c: 355: else s_uc_PortE &= ~0x10;
  9990  0AB3  1238               	bcf	(_s_uc_PortE)+(4/8),(4)&7
  9991  0AB4  2B43               	goto	l3982
  9992                           	line	358
  9993                           	
  9994  0AB5                     l3926:	
  9995                           ;hard.c: 358: if(uc_Etat != 0) s_uc_PortE |= 0x80;
  9996  0AB5  0855               	movf	(vd_PiloterSortie@uc_Etat),w
  9997  0AB6  1D03               	skipz
  9998  0AB7  2AB9               	goto	u4170
  9999  0AB8  2ABB               	goto	l490
 10000  0AB9                     u4170:
 10001                           	
 10002  0AB9                     l3928:	
 10003  0AB9  17B8               	bsf	(_s_uc_PortE)+(7/8),(7)&7
 10004  0ABA  2B43               	goto	l3982
 10005                           	line	359
 10006                           	
 10007  0ABB                     l490:	
 10008                           ;hard.c: 359: else s_uc_PortE &= ~0x80;
 10009  0ABB  13B8               	bcf	(_s_uc_PortE)+(7/8),(7)&7
 10010  0ABC  2B43               	goto	l3982
 10011                           	line	362
 10012                           	
 10013  0ABD                     l3930:	
 10014                           ;hard.c: 362: if(uc_Etat != 0) s_uc_PortF |= 0x10;
 10015  0ABD  0855               	movf	(vd_PiloterSortie@uc_Etat),w
 10016  0ABE  1D03               	skipz
 10017  0ABF  2AC1               	goto	u4180
 10018  0AC0  2AC3               	goto	l493
 10019  0AC1                     u4180:
 10020                           	
 10021  0AC1                     l3932:	
 10022  0AC1  1639               	bsf	(_s_uc_PortF)+(4/8),(4)&7
 10023  0AC2  2B43               	goto	l3982
 10024                           	line	363
 10025                           	
 10026  0AC3                     l493:	
 10027                           ;hard.c: 363: else s_uc_PortF &= ~0x10;
 10028  0AC3  1239               	bcf	(_s_uc_PortF)+(4/8),(4)&7
 10029  0AC4  2B43               	goto	l3982
 10030                           	line	366
 10031                           	
 10032  0AC5                     l3934:	
 10033                           ;hard.c: 366: if(uc_Etat != 0) s_uc_PortF |= 0x20;
 10034  0AC5  0855               	movf	(vd_PiloterSortie@uc_Etat),w
 10035  0AC6  1D03               	skipz
 10036  0AC7  2AC9               	goto	u4190
 10037  0AC8  2ACB               	goto	l496
 10038  0AC9                     u4190:
 10039                           	
 10040  0AC9                     l3936:	
 10041  0AC9  16B9               	bsf	(_s_uc_PortF)+(5/8),(5)&7
 10042  0ACA  2B43               	goto	l3982
 10043                           	line	367
 10044                           	
 10045  0ACB                     l496:	
 10046                           ;hard.c: 367: else s_uc_PortF &= ~0x20;
 10047  0ACB  12B9               	bcf	(_s_uc_PortF)+(5/8),(5)&7
 10048  0ACC  2B43               	goto	l3982
 10049                           	line	370
 10050                           	
 10051  0ACD                     l3938:	
 10052                           ;hard.c: 370: if(uc_Etat != 0) s_uc_PortF |= 0x40;
 10053  0ACD  0855               	movf	(vd_PiloterSortie@uc_Etat),w
 10054  0ACE  1D03               	skipz
 10055  0ACF  2AD1               	goto	u4200
 10056  0AD0  2AD3               	goto	l499
 10057  0AD1                     u4200:
 10058                           	
 10059  0AD1                     l3940:	
 10060  0AD1  1739               	bsf	(_s_uc_PortF)+(6/8),(6)&7
 10061  0AD2  2B43               	goto	l3982
 10062                           	line	371
 10063                           	
 10064  0AD3                     l499:	
 10065                           ;hard.c: 371: else s_uc_PortF &= ~0x40;
 10066  0AD3  1339               	bcf	(_s_uc_PortF)+(6/8),(6)&7
 10067  0AD4  2B43               	goto	l3982
 10068                           	line	374
 10069                           	
 10070  0AD5                     l3942:	
 10071  0AD5  2B43               	goto	l3982
 10072                           	line	331
 10073                           	
 10074  0AD6                     l3952:	
 10075  0AD6  0854               	movf	(vd_PiloterSortie@uc_NumeroSortie),w
 10076                           	; Switch size 1, requested type "space"
 10077                           ; Number of cases is 12, Range of values is 0 to 11
 10078                           ; switch strategies available:
 10079                           ; Name         Instructions Cycles
 10080                           ; simple_byte           37    19 (average)
 10081                           ; direct_byte           44     8 (fixed)
 10082                           ; jumptable            260     6 (fixed)
 10083                           ;	Chosen strategy is simple_byte
 10084                           
 10085                           	opt asmopt_off
 10086  0AD7  3A00               	xorlw	0^0	; case 0
 10087  0AD8  1903               	skipnz
 10088  0AD9  2A85               	goto	l3902
 10089  0ADA  3A01               	xorlw	1^0	; case 1
 10090  0ADB  1903               	skipnz
 10091  0ADC  2A8D               	goto	l3906
 10092  0ADD  3A03               	xorlw	2^1	; case 2
 10093  0ADE  1903               	skipnz
 10094  0ADF  2A95               	goto	l3910
 10095  0AE0  3A01               	xorlw	3^2	; case 3
 10096  0AE1  1903               	skipnz
 10097  0AE2  2A9D               	goto	l3914
 10098  0AE3  3A07               	xorlw	4^3	; case 4
 10099  0AE4  1903               	skipnz
 10100  0AE5  2AA5               	goto	l3918
 10101  0AE6  3A01               	xorlw	5^4	; case 5
 10102  0AE7  1903               	skipnz
 10103  0AE8  2AAD               	goto	l3922
 10104  0AE9  3A03               	xorlw	6^5	; case 6
 10105  0AEA  1903               	skipnz
 10106  0AEB  2AB5               	goto	l3926
 10107  0AEC  3A01               	xorlw	7^6	; case 7
 10108  0AED  1903               	skipnz
 10109  0AEE  2ABD               	goto	l3930
 10110  0AEF  3A0F               	xorlw	8^7	; case 8
 10111  0AF0  1903               	skipnz
 10112  0AF1  2AC5               	goto	l3934
 10113  0AF2  3A01               	xorlw	9^8	; case 9
 10114  0AF3  1903               	skipnz
 10115  0AF4  2ACD               	goto	l3938
 10116  0AF5  3A03               	xorlw	10^9	; case 10
 10117  0AF6  1903               	skipnz
 10118  0AF7  2AD5               	goto	l3942
 10119  0AF8  3A01               	xorlw	11^10	; case 11
 10120  0AF9  1903               	skipnz
 10121  0AFA  2AD5               	goto	l3942
 10122  0AFB  2B43               	goto	l3982
 10123                           	opt asmopt_on
 10124                           
 10125                           	line	387
 10126                           	
 10127  0AFC                     l3954:	
 10128                           ;hard.c: 387: if(uc_Etat != 0)
 10129  0AFC  0855               	movf	(vd_PiloterSortie@uc_Etat),w
 10130  0AFD  1D03               	skipz
 10131  0AFE  2B00               	goto	u4210
 10132  0AFF  2B02               	goto	l510
 10133  0B00                     u4210:
 10134                           	line	388
 10135                           	
 10136  0B00                     l3956:	
 10137                           ;hard.c: 388: s_uc_PortB |= 0x02;
 10138  0B00  14B5               	bsf	(_s_uc_PortB)+(1/8),(1)&7
 10139  0B01  2B43               	goto	l3982
 10140                           	line	389
 10141                           	
 10142  0B02                     l510:	
 10143                           	line	390
 10144                           ;hard.c: 389: else
 10145                           ;hard.c: 390: s_uc_PortB &= ~0x02;
 10146  0B02  10B5               	bcf	(_s_uc_PortB)+(1/8),(1)&7
 10147  0B03  2B43               	goto	l3982
 10148                           	line	393
 10149                           	
 10150  0B04                     l3958:	
 10151                           ;hard.c: 393: if(uc_Etat != 0)
 10152  0B04  0855               	movf	(vd_PiloterSortie@uc_Etat),w
 10153  0B05  1D03               	skipz
 10154  0B06  2B08               	goto	u4220
 10155  0B07  2B0A               	goto	l514
 10156  0B08                     u4220:
 10157                           	line	394
 10158                           	
 10159  0B08                     l3960:	
 10160                           ;hard.c: 394: s_uc_PortB |= 0x04;
 10161  0B08  1535               	bsf	(_s_uc_PortB)+(2/8),(2)&7
 10162  0B09  2B43               	goto	l3982
 10163                           	line	395
 10164                           	
 10165  0B0A                     l514:	
 10166                           	line	396
 10167                           ;hard.c: 395: else
 10168                           ;hard.c: 396: s_uc_PortB &= ~0x04;
 10169  0B0A  1135               	bcf	(_s_uc_PortB)+(2/8),(2)&7
 10170  0B0B  2B43               	goto	l3982
 10171                           	line	399
 10172                           	
 10173  0B0C                     l3962:	
 10174                           ;hard.c: 399: if(uc_Etat != 0)
 10175  0B0C  0855               	movf	(vd_PiloterSortie@uc_Etat),w
 10176  0B0D  1D03               	skipz
 10177  0B0E  2B10               	goto	u4230
 10178  0B0F  2B12               	goto	l517
 10179  0B10                     u4230:
 10180                           	line	400
 10181                           	
 10182  0B10                     l3964:	
 10183                           ;hard.c: 400: s_uc_PortF |= 0x80;
 10184  0B10  17B9               	bsf	(_s_uc_PortF)+(7/8),(7)&7
 10185  0B11  2B43               	goto	l3982
 10186                           	line	401
 10187                           	
 10188  0B12                     l517:	
 10189                           	line	402
 10190                           ;hard.c: 401: else
 10191                           ;hard.c: 402: s_uc_PortF &= ~0x80;
 10192  0B12  13B9               	bcf	(_s_uc_PortF)+(7/8),(7)&7
 10193  0B13  2B43               	goto	l3982
 10194                           	line	405
 10195                           	
 10196  0B14                     l3966:	
 10197                           ;hard.c: 405: if(uc_Etat != 0)
 10198  0B14  0855               	movf	(vd_PiloterSortie@uc_Etat),w
 10199  0B15  1D03               	skipz
 10200  0B16  2B18               	goto	u4240
 10201  0B17  2B1A               	goto	l520
 10202  0B18                     u4240:
 10203                           	line	406
 10204                           	
 10205  0B18                     l3968:	
 10206                           ;hard.c: 406: s_uc_PortC |= 0x01;
 10207  0B18  1436               	bsf	(_s_uc_PortC)+(0/8),(0)&7
 10208  0B19  2B43               	goto	l3982
 10209                           	line	407
 10210                           	
 10211  0B1A                     l520:	
 10212                           	line	408
 10213                           ;hard.c: 407: else
 10214                           ;hard.c: 408: s_uc_PortC &= ~0x01;
 10215  0B1A  1036               	bcf	(_s_uc_PortC)+(0/8),(0)&7
 10216  0B1B  2B43               	goto	l3982
 10217                           	line	384
 10218                           	
 10219  0B1C                     l3972:	
 10220  0B1C  0854               	movf	(vd_PiloterSortie@uc_NumeroSortie),w
 10221                           	; Switch size 1, requested type "space"
 10222                           ; Number of cases is 4, Range of values is 0 to 3
 10223                           ; switch strategies available:
 10224                           ; Name         Instructions Cycles
 10225                           ; simple_byte           13     7 (average)
 10226                           ; direct_byte           20     8 (fixed)
 10227                           ; jumptable            260     6 (fixed)
 10228                           ;	Chosen strategy is simple_byte
 10229                           
 10230                           	opt asmopt_off
 10231  0B1D  3A00               	xorlw	0^0	; case 0
 10232  0B1E  1903               	skipnz
 10233  0B1F  2AFC               	goto	l3954
 10234  0B20  3A01               	xorlw	1^0	; case 1
 10235  0B21  1903               	skipnz
 10236  0B22  2B04               	goto	l3958
 10237  0B23  3A03               	xorlw	2^1	; case 2
 10238  0B24  1903               	skipnz
 10239  0B25  2B0C               	goto	l3962
 10240  0B26  3A01               	xorlw	3^2	; case 3
 10241  0B27  1903               	skipnz
 10242  0B28  2B14               	goto	l3966
 10243  0B29  2B43               	goto	l3982
 10244                           	opt asmopt_on
 10245                           
 10246                           	line	413
 10247                           	
 10248  0B2A                     l3974:	
 10249                           ;hard.c: 413: if(uc_Etat != 0)
 10250  0B2A  0855               	movf	(vd_PiloterSortie@uc_Etat),w
 10251  0B2B  1D03               	skipz
 10252  0B2C  2B2E               	goto	u4250
 10253  0B2D  2B30               	goto	l523
 10254  0B2E                     u4250:
 10255                           	line	415
 10256                           	
 10257  0B2E                     l3976:	
 10258                           ;hard.c: 414: {
 10259                           ;hard.c: 415: s_uc_PortD |= 0x08;
 10260  0B2E  15B7               	bsf	(_s_uc_PortD)+(3/8),(3)&7
 10261                           	line	416
 10262                           ;hard.c: 416: }
 10263  0B2F  2B43               	goto	l3982
 10264                           	line	417
 10265                           	
 10266  0B30                     l523:	
 10267                           	line	419
 10268                           ;hard.c: 417: else
 10269                           ;hard.c: 418: {
 10270                           ;hard.c: 419: s_uc_PortD &= ~0x08;
 10271  0B30  11B7               	bcf	(_s_uc_PortD)+(3/8),(3)&7
 10272  0B31  2B43               	goto	l3982
 10273                           	line	258
 10274                           	
 10275  0B32                     l3980:	
 10276  0B32  0856               	movf	(vd_PiloterSortie@uc_TypeSortie),w
 10277                           	; Switch size 1, requested type "space"
 10278                           ; Number of cases is 5, Range of values is 0 to 4
 10279                           ; switch strategies available:
 10280                           ; Name         Instructions Cycles
 10281                           ; simple_byte           16     9 (average)
 10282                           ; direct_byte           23     8 (fixed)
 10283                           ; jumptable            260     6 (fixed)
 10284                           ;	Chosen strategy is simple_byte
 10285                           
 10286                           	opt asmopt_off
 10287  0B33  3A00               	xorlw	0^0	; case 0
 10288  0B34  1903               	skipnz
 10289  0B35  2A50               	goto	l3896
 10290  0B36  3A01               	xorlw	1^0	; case 1
 10291  0B37  1903               	skipnz
 10292  0B38  2A7D               	goto	l3900
 10293  0B39  3A03               	xorlw	2^1	; case 2
 10294  0B3A  1903               	skipnz
 10295  0B3B  2AD6               	goto	l3952
 10296  0B3C  3A01               	xorlw	3^2	; case 3
 10297  0B3D  1903               	skipnz
 10298  0B3E  2B1C               	goto	l3972
 10299  0B3F  3A07               	xorlw	4^3	; case 4
 10300  0B40  1903               	skipnz
 10301  0B41  2B2A               	goto	l3974
 10302  0B42  2B43               	goto	l3982
 10303                           	opt asmopt_on
 10304                           
 10305                           	line	423
 10306                           	
 10307  0B43                     l3982:	
 10308                           ;hard.c: 423: PORTA = s_uc_PortA;
 10309  0B43  0834               	movf	(_s_uc_PortA),w
 10310  0B44  0085               	movwf	(5)	;volatile
 10311                           	line	424
 10312                           ;hard.c: 424: PORTB = s_uc_PortB;
 10313  0B45  0835               	movf	(_s_uc_PortB),w
 10314  0B46  0086               	movwf	(6)	;volatile
 10315                           	line	425
 10316                           ;hard.c: 425: PORTC = s_uc_PortC;
 10317  0B47  0836               	movf	(_s_uc_PortC),w
 10318  0B48  0087               	movwf	(7)	;volatile
 10319                           	line	426
 10320                           ;hard.c: 426: PORTD = s_uc_PortD;
 10321  0B49  0837               	movf	(_s_uc_PortD),w
 10322  0B4A  0088               	movwf	(8)	;volatile
 10323                           	line	427
 10324                           ;hard.c: 427: PORTE = s_uc_PortE;
 10325  0B4B  0838               	movf	(_s_uc_PortE),w
 10326  0B4C  0089               	movwf	(9)	;volatile
 10327                           	line	428
 10328                           ;hard.c: 428: PORTF = s_uc_PortF;
 10329  0B4D  0839               	movf	(_s_uc_PortF),w
 10330  0B4E  1683               	bsf	status, 5	;RP0=1, select bank3
 10331  0B4F  1703               	bsf	status, 6	;RP1=1, select bank3
 10332  0B50  0088               	movwf	(392)^0180h	;volatile
 10333                           	line	429
 10334                           	
 10335  0B51                     l525:	
 10336  0B51  0008               	return
 10337                           	opt stack 0
 10338                           GLOBAL	__end_of_vd_PiloterSortie
 10339  0B52                     	__end_of_vd_PiloterSortie:
 10340                           	signat	_vd_PiloterSortie,12408
 10341                           	global	_vd_AnalyserEntrees
 10342                           
 10343 ;; *************** function _vd_AnalyserEntrees *****************
 10344 ;; Defined at:
 10345 ;;		line 562 in file "../source/gestionentrees.c"
 10346 ;; Parameters:    Size  Location     Type
 10347 ;;		None
 10348 ;; Auto vars:     Size  Location     Type
 10349 ;;		None
 10350 ;; Return value:  Size  Location     Type
 10351 ;;		None               void
 10352 ;; Registers used:
 10353 ;;		wreg, fsr0l, fsr0h, status,2, status,0, pclath, cstack
 10354 ;; Tracked objects:
 10355 ;;		On entry : 60/0
 10356 ;;		On exit  : 60/0
 10357 ;;		Unchanged: 0/0
 10358 ;; Data sizes:     COMMON   BANK0   BANK3   BANK1   BANK2
 10359 ;;      Params:         0       0       0       0       0
 10360 ;;      Locals:         0       0       0       0       0
 10361 ;;      Temps:          0       0       0       0       0
 10362 ;;      Totals:         0       0       0       0       0
 10363 ;;Total ram usage:        0 bytes
 10364 ;; Hardware stack levels used:    1
 10365 ;; Hardware stack levels required when called:    6
 10366 ;; This function calls:
 10367 ;;		_vd_AnalyserEntreesTOR
 10368 ;;		_vd_AnalyserEntreesVariateurs
 10369 ;;		_vd_AnalyserEntreesVolets
 10370 ;; This function is called by:
 10371 ;;		_main
 10372 ;; This function uses a non-reentrant model
 10373 ;;
 10374                           psect	text26,local,class=CODE,delta=2,merge=1
 10375                           	file	"../source/gestionentrees.c"
 10376                           	line	562
 10377                           global __ptext26
 10378  1FD8                     __ptext26:	;psect for function _vd_AnalyserEntrees
 10379                           psect	text26
 10380                           	file	"../source/gestionentrees.c"
 10381                           	line	562
 10382                           	global	__size_of_vd_AnalyserEntrees
 10383  0010                     	__size_of_vd_AnalyserEntrees	equ	__end_of_vd_AnalyserEntrees-_vd_AnalyserEntrees
 10384                           	
 10385  1FD8                     _vd_AnalyserEntrees:	
 10386                           ;incstack = 0
 10387                           	opt	stack 1
 10388                           ; Regs used in _vd_AnalyserEntrees: [wreg-fsr0h+status,2+status,0+pclath+cstack]
 10389                           	line	564
 10390                           	
 10391  1FD8                     l3848:	
 10392                           ;gestionentrees.c: 564: vd_AnalyserEntreesTOR();
 10393  1FD8  160A  118A  2362   	fcall	_vd_AnalyserEntreesTOR
              160A  158A         
 10394                           	line	565
 10395                           ;gestionentrees.c: 565: vd_AnalyserEntreesVariateurs();
 10396  1FDD  120A  118A  25AE   	fcall	_vd_AnalyserEntreesVariateurs
              160A  158A         
 10397                           	line	566
 10398                           ;gestionentrees.c: 566: vd_AnalyserEntreesVolets();
 10399  1FE2  160A  118A  2616   	fcall	_vd_AnalyserEntreesVolets
              160A  158A         
 10400                           	line	567
 10401                           	
 10402  1FE7                     l126:	
 10403  1FE7  0008               	return
 10404                           	opt stack 0
 10405                           GLOBAL	__end_of_vd_AnalyserEntrees
 10406  1FE8                     	__end_of_vd_AnalyserEntrees:
 10407                           	signat	_vd_AnalyserEntrees,88
 10408                           	global	_vd_AnalyserEntreesVolets
 10409                           
 10410 ;; *************** function _vd_AnalyserEntreesVolets *****************
 10411 ;; Defined at:
 10412 ;;		line 505 in file "../source/gestionentrees.c"
 10413 ;; Parameters:    Size  Location     Type
 10414 ;;		None
 10415 ;; Auto vars:     Size  Location     Type
 10416 ;;  l_uc_Compteu    1   10[BANK0 ] unsigned char 
 10417 ;;  l_uc_EntreeV    1    9[BANK0 ] unsigned char 
 10418 ;; Return value:  Size  Location     Type
 10419 ;;		None               void
 10420 ;; Registers used:
 10421 ;;		wreg, fsr0l, fsr0h, status,2, status,0, pclath, cstack
 10422 ;; Tracked objects:
 10423 ;;		On entry : 60/0
 10424 ;;		On exit  : 60/0
 10425 ;;		Unchanged: 0/0
 10426 ;; Data sizes:     COMMON   BANK0   BANK3   BANK1   BANK2
 10427 ;;      Params:         0       0       0       0       0
 10428 ;;      Locals:         0       2       0       0       0
 10429 ;;      Temps:          0       3       0       0       0
 10430 ;;      Totals:         0       5       0       0       0
 10431 ;;Total ram usage:        5 bytes
 10432 ;; Hardware stack levels used:    1
 10433 ;; Hardware stack levels required when called:    5
 10434 ;; This function calls:
 10435 ;;		_uc_EntreeVoletEntreeCarte
 10436 ;; This function is called by:
 10437 ;;		_vd_AnalyserEntrees
 10438 ;; This function uses a non-reentrant model
 10439 ;;
 10440                           psect	text27,local,class=CODE,delta=2,merge=1
 10441                           	line	505
 10442                           global __ptext27
 10443  1616                     __ptext27:	;psect for function _vd_AnalyserEntreesVolets
 10444                           psect	text27
 10445                           	file	"../source/gestionentrees.c"
 10446                           	line	505
 10447                           	global	__size_of_vd_AnalyserEntreesVolets
 10448  0095                     	__size_of_vd_AnalyserEntreesVolets	equ	__end_of_vd_AnalyserEntreesVolets-_vd_AnalyserEn
                                 treesVolets
 10449                           	
 10450  1616                     _vd_AnalyserEntreesVolets:	
 10451                           ;incstack = 0
 10452                           	opt	stack 1
 10453                           ; Regs used in _vd_AnalyserEntreesVolets: [wreg-fsr0h+status,2+status,0+pclath+cstack]
 10454                           	line	510
 10455                           	
 10456  1616                     l3820:	
 10457                           ;gestionentrees.c: 507: unsigned char l_uc_Compteur;
 10458                           ;gestionentrees.c: 508: unsigned char l_uc_EntreeVoletRoulant;
 10459                           ;gestionentrees.c: 510: for(l_uc_Compteur=0;l_uc_Compteur<uc_ENTREE_VOLET_NB;l_uc_Compte
                                 ur++)
 10460  1616  01DA               	clrf	(vd_AnalyserEntreesVolets@l_uc_Compteur)
 10461  1617  2EA4               	goto	l3846
 10462                           	line	512
 10463                           	
 10464  1618                     l3822:	
 10465                           ;gestionentrees.c: 511: {
 10466                           ;gestionentrees.c: 512: l_uc_EntreeVoletRoulant = uc_EntreeVoletEntreeCarte(l_uc_Compteu
                                 r);
 10467  1618  085A               	movf	(vd_AnalyserEntreesVolets@l_uc_Compteur),w
 10468  1619  160A  118A  2295   	fcall	_uc_EntreeVoletEntreeCarte
              160A  118A         
 10469  161E  00D9               	movwf	(vd_AnalyserEntreesVolets@l_uc_EntreeVoletRoulant)
 10470                           	line	515
 10471                           	
 10472  161F                     l3824:	
 10473                           ;gestionentrees.c: 514: if(st_Entrees[l_uc_EntreeVoletRoulant].ub1_EtatFiltrePourApp !=
 10474                           ;gestionentrees.c: 515: st_Entrees[l_uc_EntreeVoletRoulant].ub1_EtatFiltrePourAppPrecede
                                 nt)
 10475  161F  0859               	movf	(vd_AnalyserEntreesVolets@l_uc_EntreeVoletRoulant),w
 10476  1620  3ED3               	addlw	_st_Entrees&0ffh
 10477  1621  0084               	movwf	fsr0
 10478  1622  1783               	bsf	status, 7	;select IRP bank3
 10479  1623  0E00               	swapf	indf,w
 10480  1624  00D6               	movwf	(??_vd_AnalyserEntreesVolets+0)+0
 10481  1625  0CD6               	rrf	(??_vd_AnalyserEntreesVolets+0)+0,f
 10482  1626  0C56               	rrf	(??_vd_AnalyserEntreesVolets+0)+0,w
 10483  1627  3901               	andlw	(1<<1)-1
 10484  1628  00D7               	movwf	(??_vd_AnalyserEntreesVolets+1)+0
 10485  1629  0859               	movf	(vd_AnalyserEntreesVolets@l_uc_EntreeVoletRoulant),w
 10486  162A  3ED3               	addlw	_st_Entrees&0ffh
 10487  162B  0084               	movwf	fsr0
 10488  162C  0E00               	swapf	indf,w
 10489  162D  00D8               	movwf	(??_vd_AnalyserEntreesVolets+2)+0
 10490  162E  0C58               	rrf	(??_vd_AnalyserEntreesVolets+2)+0,w
 10491  162F  3901               	andlw	(1<<1)-1
 10492  1630  0657               	xorwf	(??_vd_AnalyserEntreesVolets+1)+0,w
 10493  1631  1903               	skipnz
 10494  1632  2E34               	goto	u3951
 10495  1633  2E35               	goto	u3950
 10496  1634                     u3951:
 10497  1634  2E4B               	goto	l113
 10498  1635                     u3950:
 10499                           	line	517
 10500                           	
 10501  1635                     l3826:	
 10502                           ;gestionentrees.c: 516: {
 10503                           ;gestionentrees.c: 517: if(st_Entrees[l_uc_EntreeVoletRoulant].ub1_EtatFiltrePourApp == 
                                 0)
 10504  1635  0859               	movf	(vd_AnalyserEntreesVolets@l_uc_EntreeVoletRoulant),w
 10505  1636  3ED3               	addlw	_st_Entrees&0ffh
 10506  1637  0084               	movwf	fsr0
 10507  1638  1A80               	btfsc	indf,5
 10508  1639  2E3B               	goto	u3961
 10509  163A  2E3C               	goto	u3960
 10510  163B                     u3961:
 10511  163B  2E41               	goto	l3830
 10512  163C                     u3960:
 10513                           	line	519
 10514                           	
 10515  163C                     l3828:	
 10516                           ;gestionentrees.c: 518: {
 10517                           ;gestionentrees.c: 519: st_Entrees[l_uc_EntreeVoletRoulant].ub1_EtatFiltrePourAppPrecede
                                 nt = 0;
 10518  163C  0859               	movf	(vd_AnalyserEntreesVolets@l_uc_EntreeVoletRoulant),w
 10519  163D  3ED3               	addlw	_st_Entrees&0ffh
 10520  163E  0084               	movwf	fsr0
 10521  163F  1300               	bcf	indf,6
 10522                           	line	520
 10523                           ;gestionentrees.c: 520: }
 10524  1640  2E45               	goto	l115
 10525                           	line	523
 10526                           	
 10527  1641                     l3830:	
 10528                           ;gestionentrees.c: 521: else
 10529                           ;gestionentrees.c: 522: {
 10530                           ;gestionentrees.c: 523: st_Entrees[l_uc_EntreeVoletRoulant].ub1_EtatFiltrePourAppPrecede
                                 nt = 1;
 10531  1641  0859               	movf	(vd_AnalyserEntreesVolets@l_uc_EntreeVoletRoulant),w
 10532  1642  3ED3               	addlw	_st_Entrees&0ffh
 10533  1643  0084               	movwf	fsr0
 10534  1644  1700               	bsf	indf,6
 10535                           	line	524
 10536                           	
 10537  1645                     l115:	
 10538                           	line	525
 10539                           ;gestionentrees.c: 524: }
 10540                           ;gestionentrees.c: 525: st_EntreesVoletRoulant[l_uc_Compteur].ub4_CompteurMaintenu = 0;
 10541  1645  085A               	movf	(vd_AnalyserEntreesVolets@l_uc_Compteur),w
 10542  1646  3EBD               	addlw	_st_EntreesVoletRoulant&0ffh
 10543  1647  0084               	movwf	fsr0
 10544  1648  30F0               	movlw	((0 & ((1<<4)-1))<<0)|not (((1<<4)-1)<<0)
 10545  1649  1383               	bcf	status, 7	;select IRP bank1
 10546  164A  0580               	andwf	indf,f
 10547                           	line	526
 10548                           	
 10549  164B                     l113:	
 10550                           	line	528
 10551                           ;gestionentrees.c: 526: }
 10552                           ;gestionentrees.c: 528: if(st_Entrees[l_uc_EntreeVoletRoulant].ub1_EtatFiltrePourApp == 
                                 0)
 10553  164B  0859               	movf	(vd_AnalyserEntreesVolets@l_uc_EntreeVoletRoulant),w
 10554  164C  3ED3               	addlw	_st_Entrees&0ffh
 10555  164D  0084               	movwf	fsr0
 10556  164E  1783               	bsf	status, 7	;select IRP bank3
 10557  164F  1A80               	btfsc	indf,5
 10558  1650  2E52               	goto	u3971
 10559  1651  2E53               	goto	u3970
 10560  1652                     u3971:
 10561  1652  2E7A               	goto	l3838
 10562  1653                     u3970:
 10563                           	line	530
 10564                           	
 10565  1653                     l3832:	
 10566                           ;gestionentrees.c: 529: {
 10567                           ;gestionentrees.c: 530: if(st_EntreesVoletRoulant[l_uc_Compteur].ub1_Etat1VueApresEtatSt
                                 op != 0)
 10568  1653  085A               	movf	(vd_AnalyserEntreesVolets@l_uc_Compteur),w
 10569  1654  3EBD               	addlw	_st_EntreesVoletRoulant&0ffh
 10570  1655  0084               	movwf	fsr0
 10571  1656  1383               	bcf	status, 7	;select IRP bank1
 10572  1657  1E00               	btfss	indf,4
 10573  1658  2E5A               	goto	u3981
 10574  1659  2E5B               	goto	u3980
 10575  165A                     u3981:
 10576  165A  2E66               	goto	l117
 10577  165B                     u3980:
 10578                           	line	532
 10579                           	
 10580  165B                     l3834:	
 10581                           ;gestionentrees.c: 531: {
 10582                           ;gestionentrees.c: 532: st_EntreesVoletRoulant[l_uc_Compteur].ub3_EtatCommande = uc_VOLE
                                 T_APPUI_COURT;
 10583  165B  085A               	movf	(vd_AnalyserEntreesVolets@l_uc_Compteur),w
 10584  165C  3EBD               	addlw	_st_EntreesVoletRoulant&0ffh
 10585  165D  0084               	movwf	fsr0
 10586  165E  0800               	movf	indf,w
 10587  165F  391F               	andlw	not (((1<<3)-1)<<5)
 10588  1660  3840               	iorlw	(02h & ((1<<3)-1))<<5
 10589  1661  0080               	movwf	indf
 10590                           	line	533
 10591                           ;gestionentrees.c: 533: st_EntreesVoletRoulant[l_uc_Compteur].ub1_Etat1VueApresEtatStop 
                                 = 0;
 10592  1662  085A               	movf	(vd_AnalyserEntreesVolets@l_uc_Compteur),w
 10593  1663  3EBD               	addlw	_st_EntreesVoletRoulant&0ffh
 10594  1664  0084               	movwf	fsr0
 10595  1665  1200               	bcf	indf,4
 10596                           	line	534
 10597                           	
 10598  1666                     l117:	
 10599                           	line	535
 10600                           ;gestionentrees.c: 534: }
 10601                           ;gestionentrees.c: 535: if(st_EntreesVoletRoulant[l_uc_Compteur].ub3_EtatCommande == uc_
                                 VOLET_APPUI_LONG)
 10602  1666  085A               	movf	(vd_AnalyserEntreesVolets@l_uc_Compteur),w
 10603  1667  3EBD               	addlw	_st_EntreesVoletRoulant&0ffh
 10604  1668  0084               	movwf	fsr0
 10605  1669  0E00               	swapf	indf,w
 10606  166A  00D6               	movwf	(??_vd_AnalyserEntreesVolets+0)+0
 10607  166B  0C56               	rrf	(??_vd_AnalyserEntreesVolets+0)+0,w
 10608  166C  3907               	andlw	(1<<3)-1
 10609  166D  3A03               	xorlw	03h
 10610  166E  1D03               	skipz
 10611  166F  2E71               	goto	u3991
 10612  1670  2E72               	goto	u3990
 10613  1671                     u3991:
 10614  1671  2EA3               	goto	l3844
 10615  1672                     u3990:
 10616                           	line	537
 10617                           	
 10618  1672                     l3836:	
 10619                           ;gestionentrees.c: 536: {
 10620                           ;gestionentrees.c: 537: st_EntreesVoletRoulant[l_uc_Compteur].ub3_EtatCommande = uc_VOLE
                                 T_OFF;
 10621  1672  085A               	movf	(vd_AnalyserEntreesVolets@l_uc_Compteur),w
 10622  1673  3EBD               	addlw	_st_EntreesVoletRoulant&0ffh
 10623  1674  0084               	movwf	fsr0
 10624  1675  0800               	movf	indf,w
 10625  1676  391F               	andlw	not (((1<<3)-1)<<5)
 10626  1677  3820               	iorlw	(01h & ((1<<3)-1))<<5
 10627  1678  0080               	movwf	indf
 10628  1679  2EA3               	goto	l3844
 10629                           	line	544
 10630                           	
 10631  167A                     l3838:	
 10632                           ;gestionentrees.c: 542: else
 10633                           ;gestionentrees.c: 543: {
 10634                           ;gestionentrees.c: 544: if(st_EntreesVoletRoulant[l_uc_Compteur].ub4_CompteurMaintenu < 
                                 6)
 10635  167A  085A               	movf	(vd_AnalyserEntreesVolets@l_uc_Compteur),w
 10636  167B  3EBD               	addlw	_st_EntreesVoletRoulant&0ffh
 10637  167C  0084               	movwf	fsr0
 10638  167D  1383               	bcf	status, 7	;select IRP bank1
 10639  167E  0800               	movf	indf,w
 10640  167F  390F               	andlw	(1<<4)-1
 10641  1680  00D6               	movwf	(??_vd_AnalyserEntreesVolets+0)+0
 10642  1681  3006               	movlw	low(06h)
 10643  1682  0256               	subwf	(??_vd_AnalyserEntreesVolets+0)+0,w
 10644  1683  1803               	skipnc
 10645  1684  2E86               	goto	u4001
 10646  1685  2E87               	goto	u4000
 10647  1686                     u4001:
 10648  1686  2E98               	goto	l3842
 10649  1687                     u4000:
 10650                           	line	546
 10651                           	
 10652  1687                     l3840:	
 10653                           ;gestionentrees.c: 545: {
 10654                           ;gestionentrees.c: 546: st_EntreesVoletRoulant[l_uc_Compteur].ub4_CompteurMaintenu++;
 10655  1687  085A               	movf	(vd_AnalyserEntreesVolets@l_uc_Compteur),w
 10656  1688  3EBD               	addlw	_st_EntreesVoletRoulant&0ffh
 10657  1689  0084               	movwf	fsr0
 10658  168A  0800               	movf	indf,w
 10659  168B  390F               	andlw	(1<<4)-1
 10660  168C  00D6               	movwf	((??_vd_AnalyserEntreesVolets+0)+0)
 10661  168D  0AD6               	incf	(??_vd_AnalyserEntreesVolets+0)+0
 10662  168E  0800               	movf	indf,w
 10663  168F  0656               	xorwf	((??_vd_AnalyserEntreesVolets+0)+0),w
 10664  1690  39F0               	andlw	not ((1<<4)-1)
 10665  1691  0656               	xorwf	((??_vd_AnalyserEntreesVolets+0)+0),w
 10666  1692  0080               	movwf	indf
 10667                           	line	547
 10668                           ;gestionentrees.c: 547: st_EntreesVoletRoulant[l_uc_Compteur].ub1_Etat1VueApresEtatStop 
                                 = 1;
 10669  1693  085A               	movf	(vd_AnalyserEntreesVolets@l_uc_Compteur),w
 10670  1694  3EBD               	addlw	_st_EntreesVoletRoulant&0ffh
 10671  1695  0084               	movwf	fsr0
 10672  1696  1600               	bsf	indf,4
 10673                           	line	548
 10674                           ;gestionentrees.c: 548: }
 10675  1697  2EA3               	goto	l3844
 10676                           	line	551
 10677                           	
 10678  1698                     l3842:	
 10679                           ;gestionentrees.c: 549: else
 10680                           ;gestionentrees.c: 550: {
 10681                           ;gestionentrees.c: 551: st_EntreesVoletRoulant[l_uc_Compteur].ub3_EtatCommande = uc_VOLE
                                 T_APPUI_LONG;
 10682  1698  085A               	movf	(vd_AnalyserEntreesVolets@l_uc_Compteur),w
 10683  1699  3EBD               	addlw	_st_EntreesVoletRoulant&0ffh
 10684  169A  0084               	movwf	fsr0
 10685  169B  0800               	movf	indf,w
 10686  169C  391F               	andlw	not (((1<<3)-1)<<5)
 10687  169D  3860               	iorlw	(03h & ((1<<3)-1))<<5
 10688  169E  0080               	movwf	indf
 10689                           	line	552
 10690                           ;gestionentrees.c: 552: st_EntreesVoletRoulant[l_uc_Compteur].ub1_Etat1VueApresEtatStop 
                                 = 0;
 10691  169F  085A               	movf	(vd_AnalyserEntreesVolets@l_uc_Compteur),w
 10692  16A0  3EBD               	addlw	_st_EntreesVoletRoulant&0ffh
 10693  16A1  0084               	movwf	fsr0
 10694  16A2  1200               	bcf	indf,4
 10695                           	line	510
 10696                           	
 10697  16A3                     l3844:	
 10698  16A3  0ADA               	incf	(vd_AnalyserEntreesVolets@l_uc_Compteur),f
 10699                           	
 10700  16A4                     l3846:	
 10701  16A4  0842               	movf	(_uc_ENTREE_VOLET_NB),w
 10702  16A5  025A               	subwf	(vd_AnalyserEntreesVolets@l_uc_Compteur),w
 10703  16A6  1C03               	skipc
 10704  16A7  2EA9               	goto	u4011
 10705  16A8  2EAA               	goto	u4010
 10706  16A9                     u4011:
 10707  16A9  2E18               	goto	l3822
 10708  16AA                     u4010:
 10709                           	line	556
 10710                           	
 10711  16AA                     l123:	
 10712  16AA  0008               	return
 10713                           	opt stack 0
 10714                           GLOBAL	__end_of_vd_AnalyserEntreesVolets
 10715  16AB                     	__end_of_vd_AnalyserEntreesVolets:
 10716                           	signat	_vd_AnalyserEntreesVolets,88
 10717                           	global	_uc_EntreeVoletEntreeCarte
 10718                           
 10719 ;; *************** function _uc_EntreeVoletEntreeCarte *****************
 10720 ;; Defined at:
 10721 ;;		line 147 in file "../source/gestionentrees.c"
 10722 ;; Parameters:    Size  Location     Type
 10723 ;;  uc_NumeroEnt    1    wreg     unsigned char 
 10724 ;; Auto vars:     Size  Location     Type
 10725 ;;  uc_NumeroEnt    1    4[BANK0 ] unsigned char 
 10726 ;;  l_uc_Compteu    1    5[BANK0 ] unsigned char 
 10727 ;; Return value:  Size  Location     Type
 10728 ;;                  1    wreg      unsigned char 
 10729 ;; Registers used:
 10730 ;;		wreg, fsr0l, fsr0h, status,2, status,0
 10731 ;; Tracked objects:
 10732 ;;		On entry : 60/0
 10733 ;;		On exit  : 60/0
 10734 ;;		Unchanged: 0/0
 10735 ;; Data sizes:     COMMON   BANK0   BANK3   BANK1   BANK2
 10736 ;;      Params:         0       0       0       0       0
 10737 ;;      Locals:         0       2       0       0       0
 10738 ;;      Temps:          0       0       0       0       0
 10739 ;;      Totals:         0       2       0       0       0
 10740 ;;Total ram usage:        2 bytes
 10741 ;; Hardware stack levels used:    1
 10742 ;; Hardware stack levels required when called:    4
 10743 ;; This function calls:
 10744 ;;		Nothing
 10745 ;; This function is called by:
 10746 ;;		_vd_AnalyserEntreesVolets
 10747 ;; This function uses a non-reentrant model
 10748 ;;
 10749                           psect	text28,local,class=CODE,delta=2,merge=1
 10750                           	line	147
 10751                           global __ptext28
 10752  1295                     __ptext28:	;psect for function _uc_EntreeVoletEntreeCarte
 10753                           psect	text28
 10754                           	file	"../source/gestionentrees.c"
 10755                           	line	147
 10756                           	global	__size_of_uc_EntreeVoletEntreeCarte
 10757  0043                     	__size_of_uc_EntreeVoletEntreeCarte	equ	__end_of_uc_EntreeVoletEntreeCarte-_uc_EntreeVo
                                 letEntreeCarte
 10758                           	
 10759  1295                     _uc_EntreeVoletEntreeCarte:	
 10760                           ;incstack = 0
 10761                           	opt	stack 1
 10762                           ; Regs used in _uc_EntreeVoletEntreeCarte: [wreg-fsr0h+status,2+status,0]
 10763                           ;uc_EntreeVoletEntreeCarte@uc_NumeroEntreeVolet stored from wreg
 10764  1295  00D4               	movwf	(uc_EntreeVoletEntreeCarte@uc_NumeroEntreeVolet)
 10765                           	line	151
 10766                           	
 10767  1296                     l3694:	
 10768                           ;gestionentrees.c: 149: unsigned char l_uc_Compteur;
 10769                           ;gestionentrees.c: 151: l_uc_Compteur = 0;
 10770  1296  01D5               	clrf	(uc_EntreeVoletEntreeCarte@l_uc_Compteur)
 10771                           	line	155
 10772                           ;gestionentrees.c: 155: switch(uc_NumeroEntreeVolet)
 10773  1297  2AB6               	goto	l3718
 10774                           	line	158
 10775                           	
 10776  1298                     l3696:	
 10777                           ;gestionentrees.c: 158: l_uc_Compteur = uc_ENTREE4;
 10778  1298  3004               	movlw	(04h)
 10779  1299  00D5               	movwf	(uc_EntreeVoletEntreeCarte@l_uc_Compteur)
 10780                           	line	159
 10781                           ;gestionentrees.c: 159: break;
 10782  129A  2AD6               	goto	l3720
 10783                           	line	161
 10784                           	
 10785  129B                     l3698:	
 10786                           ;gestionentrees.c: 161: l_uc_Compteur = uc_ENTREE5;
 10787  129B  3005               	movlw	(05h)
 10788  129C  00D5               	movwf	(uc_EntreeVoletEntreeCarte@l_uc_Compteur)
 10789                           	line	162
 10790                           ;gestionentrees.c: 162: break;
 10791  129D  2AD6               	goto	l3720
 10792                           	line	164
 10793                           	
 10794  129E                     l3700:	
 10795                           ;gestionentrees.c: 164: l_uc_Compteur = uc_ENTREE6;
 10796  129E  3006               	movlw	(06h)
 10797  129F  00D5               	movwf	(uc_EntreeVoletEntreeCarte@l_uc_Compteur)
 10798                           	line	165
 10799                           ;gestionentrees.c: 165: break;
 10800  12A0  2AD6               	goto	l3720
 10801                           	line	167
 10802                           	
 10803  12A1                     l3702:	
 10804                           ;gestionentrees.c: 167: l_uc_Compteur = uc_ENTREE7;
 10805  12A1  3007               	movlw	(07h)
 10806  12A2  00D5               	movwf	(uc_EntreeVoletEntreeCarte@l_uc_Compteur)
 10807                           	line	168
 10808                           ;gestionentrees.c: 168: break;
 10809  12A3  2AD6               	goto	l3720
 10810                           	line	170
 10811                           	
 10812  12A4                     l3704:	
 10813                           ;gestionentrees.c: 170: l_uc_Compteur = uc_ENTREE11;
 10814  12A4  300B               	movlw	(0Bh)
 10815  12A5  00D5               	movwf	(uc_EntreeVoletEntreeCarte@l_uc_Compteur)
 10816                           	line	171
 10817                           ;gestionentrees.c: 171: break;
 10818  12A6  2AD6               	goto	l3720
 10819                           	line	173
 10820                           	
 10821  12A7                     l3706:	
 10822                           ;gestionentrees.c: 173: l_uc_Compteur = uc_ENTREE12;
 10823  12A7  300C               	movlw	(0Ch)
 10824  12A8  00D5               	movwf	(uc_EntreeVoletEntreeCarte@l_uc_Compteur)
 10825                           	line	174
 10826                           ;gestionentrees.c: 174: break;
 10827  12A9  2AD6               	goto	l3720
 10828                           	line	176
 10829                           	
 10830  12AA                     l3708:	
 10831                           ;gestionentrees.c: 176: l_uc_Compteur = uc_ENTREE15;
 10832  12AA  300F               	movlw	(0Fh)
 10833  12AB  00D5               	movwf	(uc_EntreeVoletEntreeCarte@l_uc_Compteur)
 10834                           	line	177
 10835                           ;gestionentrees.c: 177: break;
 10836  12AC  2AD6               	goto	l3720
 10837                           	line	179
 10838                           	
 10839  12AD                     l3710:	
 10840                           ;gestionentrees.c: 179: l_uc_Compteur = uc_ENTREE16;
 10841  12AD  3010               	movlw	(010h)
 10842  12AE  00D5               	movwf	(uc_EntreeVoletEntreeCarte@l_uc_Compteur)
 10843                           	line	180
 10844                           ;gestionentrees.c: 180: break;
 10845  12AF  2AD6               	goto	l3720
 10846                           	line	182
 10847                           	
 10848  12B0                     l3712:	
 10849                           ;gestionentrees.c: 182: l_uc_Compteur = uc_ENTREE19;
 10850  12B0  3013               	movlw	(013h)
 10851  12B1  00D5               	movwf	(uc_EntreeVoletEntreeCarte@l_uc_Compteur)
 10852                           	line	183
 10853                           ;gestionentrees.c: 183: break;
 10854  12B2  2AD6               	goto	l3720
 10855                           	line	185
 10856                           	
 10857  12B3                     l3714:	
 10858                           ;gestionentrees.c: 185: l_uc_Compteur = uc_ENTREE20;
 10859  12B3  3014               	movlw	(014h)
 10860  12B4  00D5               	movwf	(uc_EntreeVoletEntreeCarte@l_uc_Compteur)
 10861                           	line	186
 10862                           ;gestionentrees.c: 186: break;
 10863  12B5  2AD6               	goto	l3720
 10864                           	line	155
 10865                           	
 10866  12B6                     l3718:	
 10867  12B6  0854               	movf	(uc_EntreeVoletEntreeCarte@uc_NumeroEntreeVolet),w
 10868                           	; Switch size 1, requested type "space"
 10869                           ; Number of cases is 10, Range of values is 0 to 9
 10870                           ; switch strategies available:
 10871                           ; Name         Instructions Cycles
 10872                           ; simple_byte           31    16 (average)
 10873                           ; direct_byte           38     8 (fixed)
 10874                           ; jumptable            260     6 (fixed)
 10875                           ;	Chosen strategy is simple_byte
 10876                           
 10877                           	opt asmopt_off
 10878  12B7  3A00               	xorlw	0^0	; case 0
 10879  12B8  1903               	skipnz
 10880  12B9  2A98               	goto	l3696
 10881  12BA  3A01               	xorlw	1^0	; case 1
 10882  12BB  1903               	skipnz
 10883  12BC  2A9B               	goto	l3698
 10884  12BD  3A03               	xorlw	2^1	; case 2
 10885  12BE  1903               	skipnz
 10886  12BF  2A9E               	goto	l3700
 10887  12C0  3A01               	xorlw	3^2	; case 3
 10888  12C1  1903               	skipnz
 10889  12C2  2AA1               	goto	l3702
 10890  12C3  3A07               	xorlw	4^3	; case 4
 10891  12C4  1903               	skipnz
 10892  12C5  2AA4               	goto	l3704
 10893  12C6  3A01               	xorlw	5^4	; case 5
 10894  12C7  1903               	skipnz
 10895  12C8  2AA7               	goto	l3706
 10896  12C9  3A03               	xorlw	6^5	; case 6
 10897  12CA  1903               	skipnz
 10898  12CB  2AAA               	goto	l3708
 10899  12CC  3A01               	xorlw	7^6	; case 7
 10900  12CD  1903               	skipnz
 10901  12CE  2AAD               	goto	l3710
 10902  12CF  3A0F               	xorlw	8^7	; case 8
 10903  12D0  1903               	skipnz
 10904  12D1  2AB0               	goto	l3712
 10905  12D2  3A01               	xorlw	9^8	; case 9
 10906  12D3  1903               	skipnz
 10907  12D4  2AB3               	goto	l3714
 10908  12D5  2AD6               	goto	l3720
 10909                           	opt asmopt_on
 10910                           
 10911                           	line	264
 10912                           	
 10913  12D6                     l3720:	
 10914                           ;gestionentrees.c: 264: return l_uc_Compteur;
 10915  12D6  0855               	movf	(uc_EntreeVoletEntreeCarte@l_uc_Compteur),w
 10916                           	line	265
 10917                           	
 10918  12D7                     l59:	
 10919  12D7  0008               	return
 10920                           	opt stack 0
 10921                           GLOBAL	__end_of_uc_EntreeVoletEntreeCarte
 10922  12D8                     	__end_of_uc_EntreeVoletEntreeCarte:
 10923                           	signat	_uc_EntreeVoletEntreeCarte,4217
 10924                           	global	_vd_AnalyserEntreesVariateurs
 10925                           
 10926 ;; *************** function _vd_AnalyserEntreesVariateurs *****************
 10927 ;; Defined at:
 10928 ;;		line 399 in file "../source/gestionentrees.c"
 10929 ;; Parameters:    Size  Location     Type
 10930 ;;		None
 10931 ;; Auto vars:     Size  Location     Type
 10932 ;;  l_uc_Compteu    1   10[BANK0 ] unsigned char 
 10933 ;;  l_uc_EntreeV    1    9[BANK0 ] unsigned char 
 10934 ;; Return value:  Size  Location     Type
 10935 ;;		None               void
 10936 ;; Registers used:
 10937 ;;		wreg, fsr0l, fsr0h, status,2, status,0, pclath, cstack
 10938 ;; Tracked objects:
 10939 ;;		On entry : 60/0
 10940 ;;		On exit  : 60/0
 10941 ;;		Unchanged: 0/0
 10942 ;; Data sizes:     COMMON   BANK0   BANK3   BANK1   BANK2
 10943 ;;      Params:         0       0       0       0       0
 10944 ;;      Locals:         0       2       0       0       0
 10945 ;;      Temps:          0       3       0       0       0
 10946 ;;      Totals:         0       5       0       0       0
 10947 ;;Total ram usage:        5 bytes
 10948 ;; Hardware stack levels used:    1
 10949 ;; Hardware stack levels required when called:    5
 10950 ;; This function calls:
 10951 ;;		_uc_EntreeVariateurEntreeCarte
 10952 ;; This function is called by:
 10953 ;;		_vd_AnalyserEntrees
 10954 ;; This function uses a non-reentrant model
 10955 ;;
 10956                           psect	text29,local,class=CODE,delta=2,merge=1
 10957                           	line	399
 10958                           global __ptext29
 10959  05AE                     __ptext29:	;psect for function _vd_AnalyserEntreesVariateurs
 10960                           psect	text29
 10961                           	file	"../source/gestionentrees.c"
 10962                           	line	399
 10963                           	global	__size_of_vd_AnalyserEntreesVariateurs
 10964  0247                     	__size_of_vd_AnalyserEntreesVariateurs	equ	__end_of_vd_AnalyserEntreesVariateurs-_vd_An
                                 alyserEntreesVariateurs
 10965                           	
 10966  05AE                     _vd_AnalyserEntreesVariateurs:	
 10967                           ;incstack = 0
 10968                           	opt	stack 1
 10969                           ; Regs used in _vd_AnalyserEntreesVariateurs: [wreg-fsr0h+status,2+status,0+pclath+cstac
                                 k]
 10970                           	line	404
 10971                           	
 10972  05AE                     l3766:	
 10973                           ;gestionentrees.c: 401: unsigned char l_uc_Compteur;
 10974                           ;gestionentrees.c: 402: unsigned char l_uc_EntreeVariateur;
 10975                           ;gestionentrees.c: 404: for(l_uc_Compteur=0;l_uc_Compteur<uc_ENTREE_VARIATEUR_NB;l_uc_Co
                                 mpteur++)
 10976  05AE  01DA               	clrf	(vd_AnalyserEntreesVariateurs@l_uc_Compteur)
 10977  05AF  2FEE               	goto	l3818
 10978                           	line	406
 10979                           	
 10980  05B0                     l3768:	
 10981                           ;gestionentrees.c: 405: {
 10982                           ;gestionentrees.c: 406: l_uc_EntreeVariateur = uc_EntreeVariateurEntreeCarte(l_uc_Compte
                                 ur);
 10983  05B0  085A               	movf	(vd_AnalyserEntreesVariateurs@l_uc_Compteur),w
 10984  05B1  160A  118A  2073   	fcall	_uc_EntreeVariateurEntreeCarte
              120A  118A         
 10985  05B6  00D9               	movwf	(vd_AnalyserEntreesVariateurs@l_uc_EntreeVariateur)
 10986                           	line	407
 10987                           ;gestionentrees.c: 407: switch(st_EntreesVariateur[l_uc_Compteur].ub3_EntreeMode)
 10988  05B7  2FD2               	goto	l3814
 10989                           	line	412
 10990                           	
 10991  05B8                     l3770:	
 10992                           ;gestionentrees.c: 410: case uc_MODE_SOFT_START:
 10993                           ;gestionentrees.c: 411: if(st_Entrees[l_uc_EntreeVariateur].ub1_EtatFiltrePourApp !=
 10994                           ;gestionentrees.c: 412: st_Entrees[l_uc_EntreeVariateur].ub1_EtatFiltrePourAppPrecedent)
 10995  05B8  0859               	movf	(vd_AnalyserEntreesVariateurs@l_uc_EntreeVariateur),w
 10996  05B9  3ED3               	addlw	_st_Entrees&0ffh
 10997  05BA  0084               	movwf	fsr0
 10998  05BB  1783               	bsf	status, 7	;select IRP bank3
 10999  05BC  0E00               	swapf	indf,w
 11000  05BD  00D6               	movwf	(??_vd_AnalyserEntreesVariateurs+0)+0
 11001  05BE  0CD6               	rrf	(??_vd_AnalyserEntreesVariateurs+0)+0,f
 11002  05BF  0C56               	rrf	(??_vd_AnalyserEntreesVariateurs+0)+0,w
 11003  05C0  3901               	andlw	(1<<1)-1
 11004  05C1  00D7               	movwf	(??_vd_AnalyserEntreesVariateurs+1)+0
 11005  05C2  0859               	movf	(vd_AnalyserEntreesVariateurs@l_uc_EntreeVariateur),w
 11006  05C3  3ED3               	addlw	_st_Entrees&0ffh
 11007  05C4  0084               	movwf	fsr0
 11008  05C5  0E00               	swapf	indf,w
 11009  05C6  00D8               	movwf	(??_vd_AnalyserEntreesVariateurs+2)+0
 11010  05C7  0C58               	rrf	(??_vd_AnalyserEntreesVariateurs+2)+0,w
 11011  05C8  3901               	andlw	(1<<1)-1
 11012  05C9  0657               	xorwf	(??_vd_AnalyserEntreesVariateurs+1)+0,w
 11013  05CA  1903               	skipnz
 11014  05CB  2DCD               	goto	u3481
 11015  05CC  2DCE               	goto	u3480
 11016  05CD                     u3481:
 11017  05CD  2FEB               	goto	l3816
 11018  05CE                     u3480:
 11019                           	line	414
 11020                           	
 11021  05CE                     l3772:	
 11022                           ;gestionentrees.c: 413: {
 11023                           ;gestionentrees.c: 414: if(st_Entrees[l_uc_EntreeVariateur].ub1_EtatFiltrePourApp == 0)
 11024  05CE  0859               	movf	(vd_AnalyserEntreesVariateurs@l_uc_EntreeVariateur),w
 11025  05CF  3ED3               	addlw	_st_Entrees&0ffh
 11026  05D0  0084               	movwf	fsr0
 11027  05D1  1A80               	btfsc	indf,5
 11028  05D2  2DD4               	goto	u3491
 11029  05D3  2DD5               	goto	u3490
 11030  05D4                     u3491:
 11031  05D4  2DDA               	goto	l3776
 11032  05D5                     u3490:
 11033                           	line	416
 11034                           	
 11035  05D5                     l3774:	
 11036                           ;gestionentrees.c: 415: {
 11037                           ;gestionentrees.c: 416: st_Entrees[l_uc_EntreeVariateur].ub1_EtatFiltrePourAppPrecedent 
                                 = 0;
 11038  05D5  0859               	movf	(vd_AnalyserEntreesVariateurs@l_uc_EntreeVariateur),w
 11039  05D6  3ED3               	addlw	_st_Entrees&0ffh
 11040  05D7  0084               	movwf	fsr0
 11041  05D8  1300               	bcf	indf,6
 11042                           	line	417
 11043                           ;gestionentrees.c: 417: }
 11044  05D9  2FEB               	goto	l3816
 11045                           	line	420
 11046                           	
 11047  05DA                     l3776:	
 11048                           ;gestionentrees.c: 418: else
 11049                           ;gestionentrees.c: 419: {
 11050                           ;gestionentrees.c: 420: st_Entrees[l_uc_EntreeVariateur].ub1_EtatFiltrePourAppPrecedent 
                                 = 1;
 11051  05DA  0859               	movf	(vd_AnalyserEntreesVariateurs@l_uc_EntreeVariateur),w
 11052  05DB  3ED3               	addlw	_st_Entrees&0ffh
 11053  05DC  0084               	movwf	fsr0
 11054  05DD  1700               	bsf	indf,6
 11055                           	line	421
 11056                           ;gestionentrees.c: 421: st_EntreesVariateur[l_uc_Compteur].ub3_EtatCommande = uc_VARIATE
                                 UR_APPUI_COURT;
 11057  05DE  085A               	movf	(vd_AnalyserEntreesVariateurs@l_uc_Compteur),w
 11058  05DF  00D6               	movwf	(??_vd_AnalyserEntreesVariateurs+0)+0
 11059  05E0  3001               	movlw	(02h)-1
 11060  05E1                     u3505:
 11061  05E1  1003               	clrc
 11062  05E2  0DD6               	rlf	(??_vd_AnalyserEntreesVariateurs+0)+0,f
 11063  05E3  3EFF               	addlw	-1
 11064  05E4  1D03               	skipz
 11065  05E5  2DE1               	goto	u3505
 11066  05E6  1003               	clrc
 11067  05E7  0D56               	rlf	(??_vd_AnalyserEntreesVariateurs+0)+0,w
 11068  05E8  3EA2               	addlw	_st_EntreesVariateur+02h&0ffh
 11069  05E9  0084               	movwf	fsr0
 11070  05EA  1383               	bcf	status, 7	;select IRP bank1
 11071  05EB  0800               	movf	indf,w
 11072  05EC  391F               	andlw	not (((1<<3)-1)<<5)
 11073  05ED  3860               	iorlw	(03h & ((1<<3)-1))<<5
 11074  05EE  0080               	movwf	indf
 11075  05EF  2FEB               	goto	l3816
 11076                           	line	427
 11077                           	
 11078  05F0                     l3778:	
 11079                           ;gestionentrees.c: 426: if(st_Entrees[l_uc_EntreeVariateur].ub1_EtatFiltrePourApp !=
 11080                           ;gestionentrees.c: 427: st_Entrees[l_uc_EntreeVariateur].ub1_EtatFiltrePourAppPrecedent)
 11081  05F0  0859               	movf	(vd_AnalyserEntreesVariateurs@l_uc_EntreeVariateur),w
 11082  05F1  3ED3               	addlw	_st_Entrees&0ffh
 11083  05F2  0084               	movwf	fsr0
 11084  05F3  1783               	bsf	status, 7	;select IRP bank3
 11085  05F4  0E00               	swapf	indf,w
 11086  05F5  00D6               	movwf	(??_vd_AnalyserEntreesVariateurs+0)+0
 11087  05F6  0CD6               	rrf	(??_vd_AnalyserEntreesVariateurs+0)+0,f
 11088  05F7  0C56               	rrf	(??_vd_AnalyserEntreesVariateurs+0)+0,w
 11089  05F8  3901               	andlw	(1<<1)-1
 11090  05F9  00D7               	movwf	(??_vd_AnalyserEntreesVariateurs+1)+0
 11091  05FA  0859               	movf	(vd_AnalyserEntreesVariateurs@l_uc_EntreeVariateur),w
 11092  05FB  3ED3               	addlw	_st_Entrees&0ffh
 11093  05FC  0084               	movwf	fsr0
 11094  05FD  0E00               	swapf	indf,w
 11095  05FE  00D8               	movwf	(??_vd_AnalyserEntreesVariateurs+2)+0
 11096  05FF  0C58               	rrf	(??_vd_AnalyserEntreesVariateurs+2)+0,w
 11097  0600  3901               	andlw	(1<<1)-1
 11098  0601  0657               	xorwf	(??_vd_AnalyserEntreesVariateurs+1)+0,w
 11099  0602  1903               	skipnz
 11100  0603  2E05               	goto	u3511
 11101  0604  2E06               	goto	u3510
 11102  0605                     u3511:
 11103  0605  2E24               	goto	l91
 11104  0606                     u3510:
 11105                           	line	429
 11106                           	
 11107  0606                     l3780:	
 11108                           ;gestionentrees.c: 428: {
 11109                           ;gestionentrees.c: 429: if(st_Entrees[l_uc_EntreeVariateur].ub1_EtatFiltrePourApp == 0)
 11110  0606  0859               	movf	(vd_AnalyserEntreesVariateurs@l_uc_EntreeVariateur),w
 11111  0607  3ED3               	addlw	_st_Entrees&0ffh
 11112  0608  0084               	movwf	fsr0
 11113  0609  1A80               	btfsc	indf,5
 11114  060A  2E0C               	goto	u3521
 11115  060B  2E0D               	goto	u3520
 11116  060C                     u3521:
 11117  060C  2E12               	goto	l3784
 11118  060D                     u3520:
 11119                           	line	431
 11120                           	
 11121  060D                     l3782:	
 11122                           ;gestionentrees.c: 430: {
 11123                           ;gestionentrees.c: 431: st_Entrees[l_uc_EntreeVariateur].ub1_EtatFiltrePourAppPrecedent 
                                 = 0;
 11124  060D  0859               	movf	(vd_AnalyserEntreesVariateurs@l_uc_EntreeVariateur),w
 11125  060E  3ED3               	addlw	_st_Entrees&0ffh
 11126  060F  0084               	movwf	fsr0
 11127  0610  1300               	bcf	indf,6
 11128                           	line	432
 11129                           ;gestionentrees.c: 432: }
 11130  0611  2E16               	goto	l93
 11131                           	line	435
 11132                           	
 11133  0612                     l3784:	
 11134                           ;gestionentrees.c: 433: else
 11135                           ;gestionentrees.c: 434: {
 11136                           ;gestionentrees.c: 435: st_Entrees[l_uc_EntreeVariateur].ub1_EtatFiltrePourAppPrecedent 
                                 = 1;
 11137  0612  0859               	movf	(vd_AnalyserEntreesVariateurs@l_uc_EntreeVariateur),w
 11138  0613  3ED3               	addlw	_st_Entrees&0ffh
 11139  0614  0084               	movwf	fsr0
 11140  0615  1700               	bsf	indf,6
 11141                           	line	436
 11142                           	
 11143  0616                     l93:	
 11144                           	line	437
 11145                           ;gestionentrees.c: 436: }
 11146                           ;gestionentrees.c: 437: st_EntreesVariateur[l_uc_Compteur].uc_CompteurMaintenu = 0;
 11147  0616  085A               	movf	(vd_AnalyserEntreesVariateurs@l_uc_Compteur),w
 11148  0617  00D6               	movwf	(??_vd_AnalyserEntreesVariateurs+0)+0
 11149  0618  3001               	movlw	(02h)-1
 11150  0619                     u3535:
 11151  0619  1003               	clrc
 11152  061A  0DD6               	rlf	(??_vd_AnalyserEntreesVariateurs+0)+0,f
 11153  061B  3EFF               	addlw	-1
 11154  061C  1D03               	skipz
 11155  061D  2E19               	goto	u3535
 11156  061E  1003               	clrc
 11157  061F  0D56               	rlf	(??_vd_AnalyserEntreesVariateurs+0)+0,w
 11158  0620  3EA0               	addlw	_st_EntreesVariateur&0ffh
 11159  0621  0084               	movwf	fsr0
 11160  0622  1383               	bcf	status, 7	;select IRP bank1
 11161  0623  0180               	clrf	indf
 11162                           	line	438
 11163                           	
 11164  0624                     l91:	
 11165                           	line	440
 11166                           ;gestionentrees.c: 438: }
 11167                           ;gestionentrees.c: 440: if(st_Entrees[l_uc_EntreeVariateur].ub1_EtatFiltrePourApp == 0)
 11168  0624  0859               	movf	(vd_AnalyserEntreesVariateurs@l_uc_EntreeVariateur),w
 11169  0625  3ED3               	addlw	_st_Entrees&0ffh
 11170  0626  0084               	movwf	fsr0
 11171  0627  1783               	bsf	status, 7	;select IRP bank3
 11172  0628  1A80               	btfsc	indf,5
 11173  0629  2E2B               	goto	u3541
 11174  062A  2E2C               	goto	u3540
 11175  062B                     u3541:
 11176  062B  2F4D               	goto	l3804
 11177  062C                     u3540:
 11178                           	line	444
 11179                           	
 11180  062C                     l3786:	
 11181                           ;gestionentrees.c: 441: {
 11182                           ;gestionentrees.c: 442: if(st_EntreesVariateur[l_uc_Compteur].uc_CompteurDoubleClic < 13
                                  &&
 11183                           ;gestionentrees.c: 443: (st_EntreesVariateur[l_uc_Compteur].ub1_Etat1VueApresEtatStop !=
                                  0 ||
 11184                           ;gestionentrees.c: 444: st_EntreesVariateur[l_uc_Compteur].ub1_SecondAppuiDetecte != 0))
 11185  062C  085A               	movf	(vd_AnalyserEntreesVariateurs@l_uc_Compteur),w
 11186  062D  00D6               	movwf	(??_vd_AnalyserEntreesVariateurs+0)+0
 11187  062E  3001               	movlw	(02h)-1
 11188  062F                     u3555:
 11189  062F  1003               	clrc
 11190  0630  0DD6               	rlf	(??_vd_AnalyserEntreesVariateurs+0)+0,f
 11191  0631  3EFF               	addlw	-1
 11192  0632  1D03               	skipz
 11193  0633  2E2F               	goto	u3555
 11194  0634  1003               	clrc
 11195  0635  0D56               	rlf	(??_vd_AnalyserEntreesVariateurs+0)+0,w
 11196  0636  3EA1               	addlw	_st_EntreesVariateur+01h&0ffh
 11197  0637  0084               	movwf	fsr0
 11198  0638  300D               	movlw	(0Dh)
 11199  0639  1383               	bcf	status, 7	;select IRP bank1
 11200  063A  0200               	subwf	indf,w
 11201  063B  1803               	skipnc
 11202  063C  2E3E               	goto	u3561
 11203  063D  2E3F               	goto	u3560
 11204  063E                     u3561:
 11205  063E  2E6D               	goto	l3794
 11206  063F                     u3560:
 11207                           	
 11208  063F                     l3788:	
 11209  063F  085A               	movf	(vd_AnalyserEntreesVariateurs@l_uc_Compteur),w
 11210  0640  00D6               	movwf	(??_vd_AnalyserEntreesVariateurs+0)+0
 11211  0641  3001               	movlw	(02h)-1
 11212  0642                     u3575:
 11213  0642  1003               	clrc
 11214  0643  0DD6               	rlf	(??_vd_AnalyserEntreesVariateurs+0)+0,f
 11215  0644  3EFF               	addlw	-1
 11216  0645  1D03               	skipz
 11217  0646  2E42               	goto	u3575
 11218  0647  1003               	clrc
 11219  0648  0D56               	rlf	(??_vd_AnalyserEntreesVariateurs+0)+0,w
 11220  0649  3EA2               	addlw	_st_EntreesVariateur+02h&0ffh
 11221  064A  0084               	movwf	fsr0
 11222  064B  1980               	btfsc	indf,3
 11223  064C  2E4E               	goto	u3581
 11224  064D  2E4F               	goto	u3580
 11225  064E                     u3581:
 11226  064E  2E5F               	goto	l3792
 11227  064F                     u3580:
 11228                           	
 11229  064F                     l3790:	
 11230  064F  085A               	movf	(vd_AnalyserEntreesVariateurs@l_uc_Compteur),w
 11231  0650  00D6               	movwf	(??_vd_AnalyserEntreesVariateurs+0)+0
 11232  0651  3001               	movlw	(02h)-1
 11233  0652                     u3595:
 11234  0652  1003               	clrc
 11235  0653  0DD6               	rlf	(??_vd_AnalyserEntreesVariateurs+0)+0,f
 11236  0654  3EFF               	addlw	-1
 11237  0655  1D03               	skipz
 11238  0656  2E52               	goto	u3595
 11239  0657  1003               	clrc
 11240  0658  0D56               	rlf	(??_vd_AnalyserEntreesVariateurs+0)+0,w
 11241  0659  3EA2               	addlw	_st_EntreesVariateur+02h&0ffh
 11242  065A  0084               	movwf	fsr0
 11243  065B  1E00               	btfss	indf,4
 11244  065C  2E5E               	goto	u3601
 11245  065D  2E5F               	goto	u3600
 11246  065E                     u3601:
 11247  065E  2E6D               	goto	l3794
 11248  065F                     u3600:
 11249                           	line	446
 11250                           	
 11251  065F                     l3792:	
 11252                           ;gestionentrees.c: 445: {
 11253                           ;gestionentrees.c: 446: st_EntreesVariateur[l_uc_Compteur].uc_CompteurDoubleClic++;
 11254  065F  085A               	movf	(vd_AnalyserEntreesVariateurs@l_uc_Compteur),w
 11255  0660  00D6               	movwf	(??_vd_AnalyserEntreesVariateurs+0)+0
 11256  0661  3001               	movlw	(02h)-1
 11257  0662                     u3615:
 11258  0662  1003               	clrc
 11259  0663  0DD6               	rlf	(??_vd_AnalyserEntreesVariateurs+0)+0,f
 11260  0664  3EFF               	addlw	-1
 11261  0665  1D03               	skipz
 11262  0666  2E62               	goto	u3615
 11263  0667  1003               	clrc
 11264  0668  0D56               	rlf	(??_vd_AnalyserEntreesVariateurs+0)+0,w
 11265  0669  3EA1               	addlw	_st_EntreesVariateur+01h&0ffh
 11266  066A  0084               	movwf	fsr0
 11267  066B  0A80               	incf	indf,f
 11268                           	line	447
 11269                           ;gestionentrees.c: 447: }
 11270  066C  2E87               	goto	l98
 11271                           	line	450
 11272                           	
 11273  066D                     l3794:	
 11274                           ;gestionentrees.c: 448: else
 11275                           ;gestionentrees.c: 449: {
 11276                           ;gestionentrees.c: 450: st_EntreesVariateur[l_uc_Compteur].ub1_SecondAppuiDetecte = 0;
 11277  066D  085A               	movf	(vd_AnalyserEntreesVariateurs@l_uc_Compteur),w
 11278  066E  00D6               	movwf	(??_vd_AnalyserEntreesVariateurs+0)+0
 11279  066F  3001               	movlw	(02h)-1
 11280  0670                     u3625:
 11281  0670  1003               	clrc
 11282  0671  0DD6               	rlf	(??_vd_AnalyserEntreesVariateurs+0)+0,f
 11283  0672  3EFF               	addlw	-1
 11284  0673  1D03               	skipz
 11285  0674  2E70               	goto	u3625
 11286  0675  1003               	clrc
 11287  0676  0D56               	rlf	(??_vd_AnalyserEntreesVariateurs+0)+0,w
 11288  0677  3EA2               	addlw	_st_EntreesVariateur+02h&0ffh
 11289  0678  0084               	movwf	fsr0
 11290  0679  1200               	bcf	indf,4
 11291                           	line	451
 11292                           ;gestionentrees.c: 451: st_EntreesVariateur[l_uc_Compteur].uc_CompteurDoubleClic = 0;
 11293  067A  085A               	movf	(vd_AnalyserEntreesVariateurs@l_uc_Compteur),w
 11294  067B  00D6               	movwf	(??_vd_AnalyserEntreesVariateurs+0)+0
 11295  067C  3001               	movlw	(02h)-1
 11296  067D                     u3635:
 11297  067D  1003               	clrc
 11298  067E  0DD6               	rlf	(??_vd_AnalyserEntreesVariateurs+0)+0,f
 11299  067F  3EFF               	addlw	-1
 11300  0680  1D03               	skipz
 11301  0681  2E7D               	goto	u3635
 11302  0682  1003               	clrc
 11303  0683  0D56               	rlf	(??_vd_AnalyserEntreesVariateurs+0)+0,w
 11304  0684  3EA1               	addlw	_st_EntreesVariateur+01h&0ffh
 11305  0685  0084               	movwf	fsr0
 11306  0686  0180               	clrf	indf
 11307                           	line	452
 11308                           	
 11309  0687                     l98:	
 11310                           	line	454
 11311                           ;gestionentrees.c: 452: }
 11312                           ;gestionentrees.c: 454: if(st_EntreesVariateur[l_uc_Compteur].ub1_Etat1VueApresEtatStop 
                                 != 0)
 11313  0687  085A               	movf	(vd_AnalyserEntreesVariateurs@l_uc_Compteur),w
 11314  0688  00D6               	movwf	(??_vd_AnalyserEntreesVariateurs+0)+0
 11315  0689  3001               	movlw	(02h)-1
 11316  068A                     u3645:
 11317  068A  1003               	clrc
 11318  068B  0DD6               	rlf	(??_vd_AnalyserEntreesVariateurs+0)+0,f
 11319  068C  3EFF               	addlw	-1
 11320  068D  1D03               	skipz
 11321  068E  2E8A               	goto	u3645
 11322  068F  1003               	clrc
 11323  0690  0D56               	rlf	(??_vd_AnalyserEntreesVariateurs+0)+0,w
 11324  0691  3EA2               	addlw	_st_EntreesVariateur+02h&0ffh
 11325  0692  0084               	movwf	fsr0
 11326  0693  1D80               	btfss	indf,3
 11327  0694  2E96               	goto	u3651
 11328  0695  2E97               	goto	u3650
 11329  0696                     u3651:
 11330  0696  2F09               	goto	l99
 11331  0697                     u3650:
 11332                           	line	456
 11333                           	
 11334  0697                     l3796:	
 11335                           ;gestionentrees.c: 455: {
 11336                           ;gestionentrees.c: 456: st_EntreesVariateur[l_uc_Compteur].ub1_Etat1VueApresEtatStop = 0
                                 ;
 11337  0697  085A               	movf	(vd_AnalyserEntreesVariateurs@l_uc_Compteur),w
 11338  0698  00D6               	movwf	(??_vd_AnalyserEntreesVariateurs+0)+0
 11339  0699  3001               	movlw	(02h)-1
 11340  069A                     u3665:
 11341  069A  1003               	clrc
 11342  069B  0DD6               	rlf	(??_vd_AnalyserEntreesVariateurs+0)+0,f
 11343  069C  3EFF               	addlw	-1
 11344  069D  1D03               	skipz
 11345  069E  2E9A               	goto	u3665
 11346  069F  1003               	clrc
 11347  06A0  0D56               	rlf	(??_vd_AnalyserEntreesVariateurs+0)+0,w
 11348  06A1  3EA2               	addlw	_st_EntreesVariateur+02h&0ffh
 11349  06A2  0084               	movwf	fsr0
 11350  06A3  1180               	bcf	indf,3
 11351                           	line	457
 11352                           ;gestionentrees.c: 457: if(st_EntreesVariateur[l_uc_Compteur].ub1_SecondAppuiDetecte != 
                                 0)
 11353  06A4  085A               	movf	(vd_AnalyserEntreesVariateurs@l_uc_Compteur),w
 11354  06A5  00D6               	movwf	(??_vd_AnalyserEntreesVariateurs+0)+0
 11355  06A6  3001               	movlw	(02h)-1
 11356  06A7                     u3675:
 11357  06A7  1003               	clrc
 11358  06A8  0DD6               	rlf	(??_vd_AnalyserEntreesVariateurs+0)+0,f
 11359  06A9  3EFF               	addlw	-1
 11360  06AA  1D03               	skipz
 11361  06AB  2EA7               	goto	u3675
 11362  06AC  1003               	clrc
 11363  06AD  0D56               	rlf	(??_vd_AnalyserEntreesVariateurs+0)+0,w
 11364  06AE  3EA2               	addlw	_st_EntreesVariateur+02h&0ffh
 11365  06AF  0084               	movwf	fsr0
 11366  06B0  1E00               	btfss	indf,4
 11367  06B1  2EB3               	goto	u3681
 11368  06B2  2EB4               	goto	u3680
 11369  06B3                     u3681:
 11370  06B3  2EEC               	goto	l3800
 11371  06B4                     u3680:
 11372                           	line	459
 11373                           	
 11374  06B4                     l3798:	
 11375                           ;gestionentrees.c: 458: {
 11376                           ;gestionentrees.c: 459: st_EntreesVariateur[l_uc_Compteur].ub3_EtatCommande = uc_VARIATE
                                 UR_APPUI_DOUBLE;
 11377  06B4  085A               	movf	(vd_AnalyserEntreesVariateurs@l_uc_Compteur),w
 11378  06B5  00D6               	movwf	(??_vd_AnalyserEntreesVariateurs+0)+0
 11379  06B6  3001               	movlw	(02h)-1
 11380  06B7                     u3695:
 11381  06B7  1003               	clrc
 11382  06B8  0DD6               	rlf	(??_vd_AnalyserEntreesVariateurs+0)+0,f
 11383  06B9  3EFF               	addlw	-1
 11384  06BA  1D03               	skipz
 11385  06BB  2EB7               	goto	u3695
 11386  06BC  1003               	clrc
 11387  06BD  0D56               	rlf	(??_vd_AnalyserEntreesVariateurs+0)+0,w
 11388  06BE  3EA2               	addlw	_st_EntreesVariateur+02h&0ffh
 11389  06BF  0084               	movwf	fsr0
 11390  06C0  0800               	movf	indf,w
 11391  06C1  391F               	andlw	not (((1<<3)-1)<<5)
 11392  06C2  3880               	iorlw	(04h & ((1<<3)-1))<<5
 11393  06C3  0080               	movwf	indf
 11394                           	line	460
 11395                           ;gestionentrees.c: 460: st_EntreesVariateur[l_uc_Compteur].uc_CompteurDoubleClic = 0;
 11396  06C4  085A               	movf	(vd_AnalyserEntreesVariateurs@l_uc_Compteur),w
 11397  06C5  00D6               	movwf	(??_vd_AnalyserEntreesVariateurs+0)+0
 11398  06C6  3001               	movlw	(02h)-1
 11399  06C7                     u3705:
 11400  06C7  1003               	clrc
 11401  06C8  0DD6               	rlf	(??_vd_AnalyserEntreesVariateurs+0)+0,f
 11402  06C9  3EFF               	addlw	-1
 11403  06CA  1D03               	skipz
 11404  06CB  2EC7               	goto	u3705
 11405  06CC  1003               	clrc
 11406  06CD  0D56               	rlf	(??_vd_AnalyserEntreesVariateurs+0)+0,w
 11407  06CE  3EA1               	addlw	_st_EntreesVariateur+01h&0ffh
 11408  06CF  0084               	movwf	fsr0
 11409  06D0  0180               	clrf	indf
 11410                           	line	461
 11411                           ;gestionentrees.c: 461: st_EntreesVariateur[l_uc_Compteur].ub1_SecondAppuiDetecte = 0;
 11412  06D1  085A               	movf	(vd_AnalyserEntreesVariateurs@l_uc_Compteur),w
 11413  06D2  00D6               	movwf	(??_vd_AnalyserEntreesVariateurs+0)+0
 11414  06D3  3001               	movlw	(02h)-1
 11415  06D4                     u3715:
 11416  06D4  1003               	clrc
 11417  06D5  0DD6               	rlf	(??_vd_AnalyserEntreesVariateurs+0)+0,f
 11418  06D6  3EFF               	addlw	-1
 11419  06D7  1D03               	skipz
 11420  06D8  2ED4               	goto	u3715
 11421  06D9  1003               	clrc
 11422  06DA  0D56               	rlf	(??_vd_AnalyserEntreesVariateurs+0)+0,w
 11423  06DB  3EA2               	addlw	_st_EntreesVariateur+02h&0ffh
 11424  06DC  0084               	movwf	fsr0
 11425  06DD  1200               	bcf	indf,4
 11426                           	line	462
 11427                           ;gestionentrees.c: 462: st_EntreesVariateur[l_uc_Compteur].uc_CompteurDoubleClic = 0;
 11428  06DE  085A               	movf	(vd_AnalyserEntreesVariateurs@l_uc_Compteur),w
 11429  06DF  00D6               	movwf	(??_vd_AnalyserEntreesVariateurs+0)+0
 11430  06E0  3001               	movlw	(02h)-1
 11431  06E1                     u3725:
 11432  06E1  1003               	clrc
 11433  06E2  0DD6               	rlf	(??_vd_AnalyserEntreesVariateurs+0)+0,f
 11434  06E3  3EFF               	addlw	-1
 11435  06E4  1D03               	skipz
 11436  06E5  2EE1               	goto	u3725
 11437  06E6  1003               	clrc
 11438  06E7  0D56               	rlf	(??_vd_AnalyserEntreesVariateurs+0)+0,w
 11439  06E8  3EA1               	addlw	_st_EntreesVariateur+01h&0ffh
 11440  06E9  0084               	movwf	fsr0
 11441  06EA  0180               	clrf	indf
 11442                           	line	463
 11443                           ;gestionentrees.c: 463: }
 11444  06EB  2F09               	goto	l99
 11445                           	line	466
 11446                           	
 11447  06EC                     l3800:	
 11448                           ;gestionentrees.c: 464: else
 11449                           ;gestionentrees.c: 465: {
 11450                           ;gestionentrees.c: 466: st_EntreesVariateur[l_uc_Compteur].ub3_EtatCommande = uc_VARIATE
                                 UR_APPUI_COURT;
 11451  06EC  085A               	movf	(vd_AnalyserEntreesVariateurs@l_uc_Compteur),w
 11452  06ED  00D6               	movwf	(??_vd_AnalyserEntreesVariateurs+0)+0
 11453  06EE  3001               	movlw	(02h)-1
 11454  06EF                     u3735:
 11455  06EF  1003               	clrc
 11456  06F0  0DD6               	rlf	(??_vd_AnalyserEntreesVariateurs+0)+0,f
 11457  06F1  3EFF               	addlw	-1
 11458  06F2  1D03               	skipz
 11459  06F3  2EEF               	goto	u3735
 11460  06F4  1003               	clrc
 11461  06F5  0D56               	rlf	(??_vd_AnalyserEntreesVariateurs+0)+0,w
 11462  06F6  3EA2               	addlw	_st_EntreesVariateur+02h&0ffh
 11463  06F7  0084               	movwf	fsr0
 11464  06F8  0800               	movf	indf,w
 11465  06F9  391F               	andlw	not (((1<<3)-1)<<5)
 11466  06FA  3860               	iorlw	(03h & ((1<<3)-1))<<5
 11467  06FB  0080               	movwf	indf
 11468                           	line	467
 11469                           ;gestionentrees.c: 467: st_EntreesVariateur[l_uc_Compteur].ub1_SecondAppuiDetecte = 1;
 11470  06FC  085A               	movf	(vd_AnalyserEntreesVariateurs@l_uc_Compteur),w
 11471  06FD  00D6               	movwf	(??_vd_AnalyserEntreesVariateurs+0)+0
 11472  06FE  3001               	movlw	(02h)-1
 11473  06FF                     u3745:
 11474  06FF  1003               	clrc
 11475  0700  0DD6               	rlf	(??_vd_AnalyserEntreesVariateurs+0)+0,f
 11476  0701  3EFF               	addlw	-1
 11477  0702  1D03               	skipz
 11478  0703  2EFF               	goto	u3745
 11479  0704  1003               	clrc
 11480  0705  0D56               	rlf	(??_vd_AnalyserEntreesVariateurs+0)+0,w
 11481  0706  3EA2               	addlw	_st_EntreesVariateur+02h&0ffh
 11482  0707  0084               	movwf	fsr0
 11483  0708  1600               	bsf	indf,4
 11484                           	line	469
 11485                           	
 11486  0709                     l99:	
 11487                           	line	471
 11488                           ;gestionentrees.c: 468: }
 11489                           ;gestionentrees.c: 469: }
 11490                           ;gestionentrees.c: 471: if(st_EntreesVariateur[l_uc_Compteur].ub3_EtatCommande == uc_VAR
                                 IATEUR_APPUI_LONG)
 11491  0709  085A               	movf	(vd_AnalyserEntreesVariateurs@l_uc_Compteur),w
 11492  070A  00D6               	movwf	(??_vd_AnalyserEntreesVariateurs+0)+0
 11493  070B  3001               	movlw	(02h)-1
 11494  070C                     u3755:
 11495  070C  1003               	clrc
 11496  070D  0DD6               	rlf	(??_vd_AnalyserEntreesVariateurs+0)+0,f
 11497  070E  3EFF               	addlw	-1
 11498  070F  1D03               	skipz
 11499  0710  2F0C               	goto	u3755
 11500  0711  1003               	clrc
 11501  0712  0D56               	rlf	(??_vd_AnalyserEntreesVariateurs+0)+0,w
 11502  0713  3EA2               	addlw	_st_EntreesVariateur+02h&0ffh
 11503  0714  0084               	movwf	fsr0
 11504  0715  0E00               	swapf	indf,w
 11505  0716  00D7               	movwf	(??_vd_AnalyserEntreesVariateurs+1)+0
 11506  0717  0C57               	rrf	(??_vd_AnalyserEntreesVariateurs+1)+0,w
 11507  0718  3907               	andlw	(1<<3)-1
 11508  0719  3A05               	xorlw	05h
 11509  071A  1D03               	skipz
 11510  071B  2F1D               	goto	u3761
 11511  071C  2F1E               	goto	u3760
 11512  071D                     u3761:
 11513  071D  2FEB               	goto	l3816
 11514  071E                     u3760:
 11515                           	line	473
 11516                           	
 11517  071E                     l3802:	
 11518                           ;gestionentrees.c: 472: {
 11519                           ;gestionentrees.c: 473: st_EntreesVariateur[l_uc_Compteur].ub3_EtatCommande = uc_VARIATE
                                 UR_RIEN;
 11520  071E  085A               	movf	(vd_AnalyserEntreesVariateurs@l_uc_Compteur),w
 11521  071F  00D6               	movwf	(??_vd_AnalyserEntreesVariateurs+0)+0
 11522  0720  3001               	movlw	(02h)-1
 11523  0721                     u3775:
 11524  0721  1003               	clrc
 11525  0722  0DD6               	rlf	(??_vd_AnalyserEntreesVariateurs+0)+0,f
 11526  0723  3EFF               	addlw	-1
 11527  0724  1D03               	skipz
 11528  0725  2F21               	goto	u3775
 11529  0726  1003               	clrc
 11530  0727  0D56               	rlf	(??_vd_AnalyserEntreesVariateurs+0)+0,w
 11531  0728  3EA2               	addlw	_st_EntreesVariateur+02h&0ffh
 11532  0729  0084               	movwf	fsr0
 11533  072A  301F               	movlw	((0 & ((1<<3)-1))<<5)|not (((1<<3)-1)<<5)
 11534  072B  0580               	andwf	indf,f
 11535                           	line	474
 11536                           ;gestionentrees.c: 474: st_EntreesVariateur[l_uc_Compteur].ub1_SensCommande = st_Entrees
                                 Variateur[l_uc_Compteur].ub1_SensCommande ^ 1;
 11537  072C  085A               	movf	(vd_AnalyserEntreesVariateurs@l_uc_Compteur),w
 11538  072D  00D6               	movwf	(??_vd_AnalyserEntreesVariateurs+0)+0
 11539  072E  3001               	movlw	(02h)-1
 11540  072F                     u3785:
 11541  072F  1003               	clrc
 11542  0730  0DD6               	rlf	(??_vd_AnalyserEntreesVariateurs+0)+0,f
 11543  0731  3EFF               	addlw	-1
 11544  0732  1D03               	skipz
 11545  0733  2F2F               	goto	u3785
 11546  0734  1003               	clrc
 11547  0735  0D56               	rlf	(??_vd_AnalyserEntreesVariateurs+0)+0,w
 11548  0736  3EA3               	addlw	_st_EntreesVariateur+03h&0ffh
 11549  0737  0084               	movwf	fsr0
 11550  0738  1C00               	btfss	indf,0
 11551  0739  2F47               	goto	u3791
 11552  073A  2F4A               	goto	u3790
 11553  073B  085A               	movf	(vd_AnalyserEntreesVariateurs@l_uc_Compteur),w
 11554  073C  00D7               	movwf	(??_vd_AnalyserEntreesVariateurs+1)+0
 11555  073D  3001               	movlw	(02h)-1
 11556  073E                     u3805:
 11557  073E  1003               	clrc
 11558  073F  0DD7               	rlf	(??_vd_AnalyserEntreesVariateurs+1)+0,f
 11559  0740  3EFF               	addlw	-1
 11560  0741  1D03               	skipz
 11561  0742  2F3E               	goto	u3805
 11562  0743  1003               	clrc
 11563  0744  0D57               	rlf	(??_vd_AnalyserEntreesVariateurs+1)+0,w
 11564  0745  3EA3               	addlw	_st_EntreesVariateur+03h&0ffh
 11565  0746  0084               	movwf	fsr0
 11566                           	
 11567  0747                     u3791:
 11568  0747  1383               	bcf	status, 7	;select IRP bank1
 11569  0748  1400               	bsf	indf,0
 11570  0749  2F4C               	goto	u3814
 11571  074A                     u3790:
 11572  074A  1383               	bcf	status, 7	;select IRP bank1
 11573  074B  1000               	bcf	indf,0
 11574  074C                     u3814:
 11575  074C  2FEB               	goto	l3816
 11576                           	line	481
 11577                           	
 11578  074D                     l3804:	
 11579                           ;gestionentrees.c: 479: else
 11580                           ;gestionentrees.c: 480: {
 11581                           ;gestionentrees.c: 481: st_EntreesVariateur[l_uc_Compteur].ub1_Etat1VueApresEtatStop = 1
                                 ;
 11582  074D  085A               	movf	(vd_AnalyserEntreesVariateurs@l_uc_Compteur),w
 11583  074E  00D6               	movwf	(??_vd_AnalyserEntreesVariateurs+0)+0
 11584  074F  3001               	movlw	(02h)-1
 11585  0750                     u3825:
 11586  0750  1003               	clrc
 11587  0751  0DD6               	rlf	(??_vd_AnalyserEntreesVariateurs+0)+0,f
 11588  0752  3EFF               	addlw	-1
 11589  0753  1D03               	skipz
 11590  0754  2F50               	goto	u3825
 11591  0755  1003               	clrc
 11592  0756  0D56               	rlf	(??_vd_AnalyserEntreesVariateurs+0)+0,w
 11593  0757  3EA2               	addlw	_st_EntreesVariateur+02h&0ffh
 11594  0758  0084               	movwf	fsr0
 11595  0759  1383               	bcf	status, 7	;select IRP bank1
 11596  075A  1580               	bsf	indf,3
 11597                           	line	483
 11598                           ;gestionentrees.c: 483: if(st_EntreesVariateur[l_uc_Compteur].uc_CompteurDoubleClic < 13
                                 )
 11599  075B  085A               	movf	(vd_AnalyserEntreesVariateurs@l_uc_Compteur),w
 11600  075C  00D6               	movwf	(??_vd_AnalyserEntreesVariateurs+0)+0
 11601  075D  3001               	movlw	(02h)-1
 11602  075E                     u3835:
 11603  075E  1003               	clrc
 11604  075F  0DD6               	rlf	(??_vd_AnalyserEntreesVariateurs+0)+0,f
 11605  0760  3EFF               	addlw	-1
 11606  0761  1D03               	skipz
 11607  0762  2F5E               	goto	u3835
 11608  0763  1003               	clrc
 11609  0764  0D56               	rlf	(??_vd_AnalyserEntreesVariateurs+0)+0,w
 11610  0765  3EA1               	addlw	_st_EntreesVariateur+01h&0ffh
 11611  0766  0084               	movwf	fsr0
 11612  0767  300D               	movlw	(0Dh)
 11613  0768  0200               	subwf	indf,w
 11614  0769  1803               	skipnc
 11615  076A  2F6C               	goto	u3841
 11616  076B  2F6D               	goto	u3840
 11617  076C                     u3841:
 11618  076C  2F7A               	goto	l104
 11619  076D                     u3840:
 11620                           	line	485
 11621                           	
 11622  076D                     l3806:	
 11623                           ;gestionentrees.c: 484: {
 11624                           ;gestionentrees.c: 485: st_EntreesVariateur[l_uc_Compteur].uc_CompteurDoubleClic++;
 11625  076D  085A               	movf	(vd_AnalyserEntreesVariateurs@l_uc_Compteur),w
 11626  076E  00D6               	movwf	(??_vd_AnalyserEntreesVariateurs+0)+0
 11627  076F  3001               	movlw	(02h)-1
 11628  0770                     u3855:
 11629  0770  1003               	clrc
 11630  0771  0DD6               	rlf	(??_vd_AnalyserEntreesVariateurs+0)+0,f
 11631  0772  3EFF               	addlw	-1
 11632  0773  1D03               	skipz
 11633  0774  2F70               	goto	u3855
 11634  0775  1003               	clrc
 11635  0776  0D56               	rlf	(??_vd_AnalyserEntreesVariateurs+0)+0,w
 11636  0777  3EA1               	addlw	_st_EntreesVariateur+01h&0ffh
 11637  0778  0084               	movwf	fsr0
 11638  0779  0A80               	incf	indf,f
 11639                           	line	486
 11640                           	
 11641  077A                     l104:	
 11642                           	line	488
 11643                           ;gestionentrees.c: 486: }
 11644                           ;gestionentrees.c: 488: if(st_EntreesVariateur[l_uc_Compteur].uc_CompteurMaintenu < 15)
 11645  077A  085A               	movf	(vd_AnalyserEntreesVariateurs@l_uc_Compteur),w
 11646  077B  00D6               	movwf	(??_vd_AnalyserEntreesVariateurs+0)+0
 11647  077C  3001               	movlw	(02h)-1
 11648  077D                     u3865:
 11649  077D  1003               	clrc
 11650  077E  0DD6               	rlf	(??_vd_AnalyserEntreesVariateurs+0)+0,f
 11651  077F  3EFF               	addlw	-1
 11652  0780  1D03               	skipz
 11653  0781  2F7D               	goto	u3865
 11654  0782  1003               	clrc
 11655  0783  0D56               	rlf	(??_vd_AnalyserEntreesVariateurs+0)+0,w
 11656  0784  3EA0               	addlw	_st_EntreesVariateur&0ffh
 11657  0785  0084               	movwf	fsr0
 11658  0786  300F               	movlw	(0Fh)
 11659  0787  0200               	subwf	indf,w
 11660  0788  1803               	skipnc
 11661  0789  2F8B               	goto	u3871
 11662  078A  2F8C               	goto	u3870
 11663  078B                     u3871:
 11664  078B  2F9A               	goto	l3810
 11665  078C                     u3870:
 11666                           	line	490
 11667                           	
 11668  078C                     l3808:	
 11669                           ;gestionentrees.c: 489: {
 11670                           ;gestionentrees.c: 490: st_EntreesVariateur[l_uc_Compteur].uc_CompteurMaintenu++;
 11671  078C  085A               	movf	(vd_AnalyserEntreesVariateurs@l_uc_Compteur),w
 11672  078D  00D6               	movwf	(??_vd_AnalyserEntreesVariateurs+0)+0
 11673  078E  3001               	movlw	(02h)-1
 11674  078F                     u3885:
 11675  078F  1003               	clrc
 11676  0790  0DD6               	rlf	(??_vd_AnalyserEntreesVariateurs+0)+0,f
 11677  0791  3EFF               	addlw	-1
 11678  0792  1D03               	skipz
 11679  0793  2F8F               	goto	u3885
 11680  0794  1003               	clrc
 11681  0795  0D56               	rlf	(??_vd_AnalyserEntreesVariateurs+0)+0,w
 11682  0796  3EA0               	addlw	_st_EntreesVariateur&0ffh
 11683  0797  0084               	movwf	fsr0
 11684  0798  0A80               	incf	indf,f
 11685                           	line	491
 11686                           ;gestionentrees.c: 491: }
 11687  0799  2FEB               	goto	l3816
 11688                           	line	494
 11689                           	
 11690  079A                     l3810:	
 11691                           ;gestionentrees.c: 492: else
 11692                           ;gestionentrees.c: 493: {
 11693                           ;gestionentrees.c: 494: st_EntreesVariateur[l_uc_Compteur].ub3_EtatCommande = uc_VARIATE
                                 UR_APPUI_LONG;
 11694  079A  085A               	movf	(vd_AnalyserEntreesVariateurs@l_uc_Compteur),w
 11695  079B  00D6               	movwf	(??_vd_AnalyserEntreesVariateurs+0)+0
 11696  079C  3001               	movlw	(02h)-1
 11697  079D                     u3895:
 11698  079D  1003               	clrc
 11699  079E  0DD6               	rlf	(??_vd_AnalyserEntreesVariateurs+0)+0,f
 11700  079F  3EFF               	addlw	-1
 11701  07A0  1D03               	skipz
 11702  07A1  2F9D               	goto	u3895
 11703  07A2  1003               	clrc
 11704  07A3  0D56               	rlf	(??_vd_AnalyserEntreesVariateurs+0)+0,w
 11705  07A4  3EA2               	addlw	_st_EntreesVariateur+02h&0ffh
 11706  07A5  0084               	movwf	fsr0
 11707  07A6  0800               	movf	indf,w
 11708  07A7  391F               	andlw	not (((1<<3)-1)<<5)
 11709  07A8  38A0               	iorlw	(05h & ((1<<3)-1))<<5
 11710  07A9  0080               	movwf	indf
 11711                           	line	495
 11712                           ;gestionentrees.c: 495: st_EntreesVariateur[l_uc_Compteur].ub1_Etat1VueApresEtatStop = 0
                                 ;
 11713  07AA  085A               	movf	(vd_AnalyserEntreesVariateurs@l_uc_Compteur),w
 11714  07AB  00D6               	movwf	(??_vd_AnalyserEntreesVariateurs+0)+0
 11715  07AC  3001               	movlw	(02h)-1
 11716  07AD                     u3905:
 11717  07AD  1003               	clrc
 11718  07AE  0DD6               	rlf	(??_vd_AnalyserEntreesVariateurs+0)+0,f
 11719  07AF  3EFF               	addlw	-1
 11720  07B0  1D03               	skipz
 11721  07B1  2FAD               	goto	u3905
 11722  07B2  1003               	clrc
 11723  07B3  0D56               	rlf	(??_vd_AnalyserEntreesVariateurs+0)+0,w
 11724  07B4  3EA2               	addlw	_st_EntreesVariateur+02h&0ffh
 11725  07B5  0084               	movwf	fsr0
 11726  07B6  1180               	bcf	indf,3
 11727                           	line	496
 11728                           ;gestionentrees.c: 496: st_EntreesVariateur[l_uc_Compteur].ub1_SecondAppuiDetecte = 0;
 11729  07B7  085A               	movf	(vd_AnalyserEntreesVariateurs@l_uc_Compteur),w
 11730  07B8  00D6               	movwf	(??_vd_AnalyserEntreesVariateurs+0)+0
 11731  07B9  3001               	movlw	(02h)-1
 11732  07BA                     u3915:
 11733  07BA  1003               	clrc
 11734  07BB  0DD6               	rlf	(??_vd_AnalyserEntreesVariateurs+0)+0,f
 11735  07BC  3EFF               	addlw	-1
 11736  07BD  1D03               	skipz
 11737  07BE  2FBA               	goto	u3915
 11738  07BF  1003               	clrc
 11739  07C0  0D56               	rlf	(??_vd_AnalyserEntreesVariateurs+0)+0,w
 11740  07C1  3EA2               	addlw	_st_EntreesVariateur+02h&0ffh
 11741  07C2  0084               	movwf	fsr0
 11742  07C3  1200               	bcf	indf,4
 11743                           	line	497
 11744                           ;gestionentrees.c: 497: st_EntreesVariateur[l_uc_Compteur].uc_CompteurDoubleClic = 0;
 11745  07C4  085A               	movf	(vd_AnalyserEntreesVariateurs@l_uc_Compteur),w
 11746  07C5  00D6               	movwf	(??_vd_AnalyserEntreesVariateurs+0)+0
 11747  07C6  3001               	movlw	(02h)-1
 11748  07C7                     u3925:
 11749  07C7  1003               	clrc
 11750  07C8  0DD6               	rlf	(??_vd_AnalyserEntreesVariateurs+0)+0,f
 11751  07C9  3EFF               	addlw	-1
 11752  07CA  1D03               	skipz
 11753  07CB  2FC7               	goto	u3925
 11754  07CC  1003               	clrc
 11755  07CD  0D56               	rlf	(??_vd_AnalyserEntreesVariateurs+0)+0,w
 11756  07CE  3EA1               	addlw	_st_EntreesVariateur+01h&0ffh
 11757  07CF  0084               	movwf	fsr0
 11758  07D0  0180               	clrf	indf
 11759  07D1  2FEB               	goto	l3816
 11760                           	line	407
 11761                           	
 11762  07D2                     l3814:	
 11763  07D2  085A               	movf	(vd_AnalyserEntreesVariateurs@l_uc_Compteur),w
 11764  07D3  00D6               	movwf	(??_vd_AnalyserEntreesVariateurs+0)+0
 11765  07D4  3001               	movlw	(02h)-1
 11766  07D5                     u3935:
 11767  07D5  1003               	clrc
 11768  07D6  0DD6               	rlf	(??_vd_AnalyserEntreesVariateurs+0)+0,f
 11769  07D7  3EFF               	addlw	-1
 11770  07D8  1D03               	skipz
 11771  07D9  2FD5               	goto	u3935
 11772  07DA  1003               	clrc
 11773  07DB  0D56               	rlf	(??_vd_AnalyserEntreesVariateurs+0)+0,w
 11774  07DC  3EA2               	addlw	_st_EntreesVariateur+02h&0ffh
 11775  07DD  0084               	movwf	fsr0
 11776  07DE  1383               	bcf	status, 7	;select IRP bank1
 11777  07DF  0800               	movf	indf,w
 11778  07E0  3907               	andlw	(1<<3)-1
 11779                           	; Switch size 1, requested type "space"
 11780                           ; Number of cases is 3, Range of values is 0 to 2
 11781                           ; switch strategies available:
 11782                           ; Name         Instructions Cycles
 11783                           ; simple_byte           10     6 (average)
 11784                           ; direct_byte           17     8 (fixed)
 11785                           ; jumptable            260     6 (fixed)
 11786                           ;	Chosen strategy is simple_byte
 11787                           
 11788                           	opt asmopt_off
 11789  07E1  3A00               	xorlw	0^0	; case 0
 11790  07E2  1903               	skipnz
 11791  07E3  2DB8               	goto	l3770
 11792  07E4  3A01               	xorlw	1^0	; case 1
 11793  07E5  1903               	skipnz
 11794  07E6  2DF0               	goto	l3778
 11795  07E7  3A03               	xorlw	2^1	; case 2
 11796  07E8  1903               	skipnz
 11797  07E9  2DB8               	goto	l3770
 11798  07EA  2FEB               	goto	l3816
 11799                           	opt asmopt_on
 11800                           
 11801                           	line	404
 11802                           	
 11803  07EB                     l3816:	
 11804  07EB  1283               	bcf	status, 5	;RP0=0, select bank0
 11805  07EC  1303               	bcf	status, 6	;RP1=0, select bank0
 11806  07ED  0ADA               	incf	(vd_AnalyserEntreesVariateurs@l_uc_Compteur),f
 11807                           	
 11808  07EE                     l3818:	
 11809  07EE  0841               	movf	(_uc_ENTREE_VARIATEUR_NB),w
 11810  07EF  025A               	subwf	(vd_AnalyserEntreesVariateurs@l_uc_Compteur),w
 11811  07F0  1C03               	skipc
 11812  07F1  2FF3               	goto	u3941
 11813  07F2  2FF4               	goto	u3940
 11814  07F3                     u3941:
 11815  07F3  2DB0               	goto	l3768
 11816  07F4                     u3940:
 11817                           	line	503
 11818                           	
 11819  07F4                     l108:	
 11820  07F4  0008               	return
 11821                           	opt stack 0
 11822                           GLOBAL	__end_of_vd_AnalyserEntreesVariateurs
 11823  07F5                     	__end_of_vd_AnalyserEntreesVariateurs:
 11824                           	signat	_vd_AnalyserEntreesVariateurs,88
 11825                           	global	_uc_EntreeVariateurEntreeCarte
 11826                           
 11827 ;; *************** function _uc_EntreeVariateurEntreeCarte *****************
 11828 ;; Defined at:
 11829 ;;		line 267 in file "../source/gestionentrees.c"
 11830 ;; Parameters:    Size  Location     Type
 11831 ;;  uc_NumeroEnt    1    wreg     unsigned char 
 11832 ;; Auto vars:     Size  Location     Type
 11833 ;;  uc_NumeroEnt    1    4[BANK0 ] unsigned char 
 11834 ;;  l_uc_Compteu    1    5[BANK0 ] unsigned char 
 11835 ;; Return value:  Size  Location     Type
 11836 ;;                  1    wreg      unsigned char 
 11837 ;; Registers used:
 11838 ;;		wreg, fsr0l, fsr0h, status,2, status,0
 11839 ;; Tracked objects:
 11840 ;;		On entry : 60/0
 11841 ;;		On exit  : 60/0
 11842 ;;		Unchanged: 0/0
 11843 ;; Data sizes:     COMMON   BANK0   BANK3   BANK1   BANK2
 11844 ;;      Params:         0       0       0       0       0
 11845 ;;      Locals:         0       2       0       0       0
 11846 ;;      Temps:          0       0       0       0       0
 11847 ;;      Totals:         0       2       0       0       0
 11848 ;;Total ram usage:        2 bytes
 11849 ;; Hardware stack levels used:    1
 11850 ;; Hardware stack levels required when called:    4
 11851 ;; This function calls:
 11852 ;;		Nothing
 11853 ;; This function is called by:
 11854 ;;		_vd_AnalyserEntreesVariateurs
 11855 ;; This function uses a non-reentrant model
 11856 ;;
 11857                           psect	text30,local,class=CODE,delta=2,merge=1
 11858                           	line	267
 11859                           global __ptext30
 11860  1073                     __ptext30:	;psect for function _uc_EntreeVariateurEntreeCarte
 11861                           psect	text30
 11862                           	file	"../source/gestionentrees.c"
 11863                           	line	267
 11864                           	global	__size_of_uc_EntreeVariateurEntreeCarte
 11865  001F                     	__size_of_uc_EntreeVariateurEntreeCarte	equ	__end_of_uc_EntreeVariateurEntreeCarte-_uc_
                                 EntreeVariateurEntreeCarte
 11866                           	
 11867  1073                     _uc_EntreeVariateurEntreeCarte:	
 11868                           ;incstack = 0
 11869                           	opt	stack 1
 11870                           ; Regs used in _uc_EntreeVariateurEntreeCarte: [wreg-fsr0h+status,2+status,0]
 11871                           ;uc_EntreeVariateurEntreeCarte@uc_NumeroEntreeVariateur stored from wreg
 11872  1073  00D4               	movwf	(uc_EntreeVariateurEntreeCarte@uc_NumeroEntreeVariateur)
 11873                           	line	271
 11874                           	
 11875  1074                     l3724:	
 11876                           ;gestionentrees.c: 269: unsigned char l_uc_Compteur;
 11877                           ;gestionentrees.c: 271: l_uc_Compteur = 0;
 11878  1074  01D5               	clrf	(uc_EntreeVariateurEntreeCarte@l_uc_Compteur)
 11879                           	line	275
 11880                           ;gestionentrees.c: 275: switch(uc_NumeroEntreeVariateur)
 11881  1075  2882               	goto	l3734
 11882                           	line	277
 11883                           ;gestionentrees.c: 276: {
 11884                           ;gestionentrees.c: 277: case uc_ENTREE_VARIATEUR0:
 11885                           	
 11886  1076                     l63:	
 11887                           	line	278
 11888                           ;gestionentrees.c: 278: l_uc_Compteur = uc_ENTREE1;
 11889  1076  01D5               	clrf	(uc_EntreeVariateurEntreeCarte@l_uc_Compteur)
 11890  1077  0AD5               	incf	(uc_EntreeVariateurEntreeCarte@l_uc_Compteur),f
 11891                           	line	279
 11892                           ;gestionentrees.c: 279: break;
 11893  1078  2890               	goto	l3736
 11894                           	line	281
 11895                           	
 11896  1079                     l3726:	
 11897                           ;gestionentrees.c: 281: l_uc_Compteur = uc_ENTREE8;
 11898  1079  3008               	movlw	(08h)
 11899  107A  00D5               	movwf	(uc_EntreeVariateurEntreeCarte@l_uc_Compteur)
 11900                           	line	282
 11901                           ;gestionentrees.c: 282: break;
 11902  107B  2890               	goto	l3736
 11903                           	line	284
 11904                           	
 11905  107C                     l3728:	
 11906                           ;gestionentrees.c: 284: l_uc_Compteur = uc_ENTREE13;
 11907  107C  300D               	movlw	(0Dh)
 11908  107D  00D5               	movwf	(uc_EntreeVariateurEntreeCarte@l_uc_Compteur)
 11909                           	line	285
 11910                           ;gestionentrees.c: 285: break;
 11911  107E  2890               	goto	l3736
 11912                           	line	287
 11913                           	
 11914  107F                     l3730:	
 11915                           ;gestionentrees.c: 287: l_uc_Compteur = uc_ENTREE17;
 11916  107F  3011               	movlw	(011h)
 11917  1080  00D5               	movwf	(uc_EntreeVariateurEntreeCarte@l_uc_Compteur)
 11918                           	line	288
 11919                           ;gestionentrees.c: 288: break;
 11920  1081  2890               	goto	l3736
 11921                           	line	275
 11922                           	
 11923  1082                     l3734:	
 11924  1082  0854               	movf	(uc_EntreeVariateurEntreeCarte@uc_NumeroEntreeVariateur),w
 11925                           	; Switch size 1, requested type "space"
 11926                           ; Number of cases is 4, Range of values is 0 to 3
 11927                           ; switch strategies available:
 11928                           ; Name         Instructions Cycles
 11929                           ; simple_byte           13     7 (average)
 11930                           ; direct_byte           20     8 (fixed)
 11931                           ; jumptable            260     6 (fixed)
 11932                           ;	Chosen strategy is simple_byte
 11933                           
 11934                           	opt asmopt_off
 11935  1083  3A00               	xorlw	0^0	; case 0
 11936  1084  1903               	skipnz
 11937  1085  2876               	goto	l63
 11938  1086  3A01               	xorlw	1^0	; case 1
 11939  1087  1903               	skipnz
 11940  1088  2879               	goto	l3726
 11941  1089  3A03               	xorlw	2^1	; case 2
 11942  108A  1903               	skipnz
 11943  108B  287C               	goto	l3728
 11944  108C  3A01               	xorlw	3^2	; case 3
 11945  108D  1903               	skipnz
 11946  108E  287F               	goto	l3730
 11947  108F  2890               	goto	l3736
 11948                           	opt asmopt_on
 11949                           
 11950                           	line	318
 11951                           	
 11952  1090                     l3736:	
 11953                           ;gestionentrees.c: 318: return l_uc_Compteur;
 11954  1090  0855               	movf	(uc_EntreeVariateurEntreeCarte@l_uc_Compteur),w
 11955                           	line	319
 11956                           	
 11957  1091                     l68:	
 11958  1091  0008               	return
 11959                           	opt stack 0
 11960                           GLOBAL	__end_of_uc_EntreeVariateurEntreeCarte
 11961  1092                     	__end_of_uc_EntreeVariateurEntreeCarte:
 11962                           	signat	_uc_EntreeVariateurEntreeCarte,4217
 11963                           	global	_vd_AnalyserEntreesTOR
 11964                           
 11965 ;; *************** function _vd_AnalyserEntreesTOR *****************
 11966 ;; Defined at:
 11967 ;;		line 326 in file "../source/gestionentrees.c"
 11968 ;; Parameters:    Size  Location     Type
 11969 ;;		None
 11970 ;; Auto vars:     Size  Location     Type
 11971 ;;  l_us_Masque     2    9[BANK0 ] unsigned short 
 11972 ;;  l_uc_EntreeT    1   12[BANK0 ] unsigned char 
 11973 ;;  l_uc_Compteu    1   11[BANK0 ] unsigned char 
 11974 ;; Return value:  Size  Location     Type
 11975 ;;		None               void
 11976 ;; Registers used:
 11977 ;;		wreg, fsr0l, fsr0h, status,2, status,0, pclath, cstack
 11978 ;; Tracked objects:
 11979 ;;		On entry : 60/0
 11980 ;;		On exit  : 60/0
 11981 ;;		Unchanged: 0/0
 11982 ;; Data sizes:     COMMON   BANK0   BANK3   BANK1   BANK2
 11983 ;;      Params:         0       0       0       0       0
 11984 ;;      Locals:         0       4       0       0       0
 11985 ;;      Temps:          0       3       0       0       0
 11986 ;;      Totals:         0       7       0       0       0
 11987 ;;Total ram usage:        7 bytes
 11988 ;; Hardware stack levels used:    1
 11989 ;; Hardware stack levels required when called:    5
 11990 ;; This function calls:
 11991 ;;		_uc_EntreeTOREntreeCarte
 11992 ;; This function is called by:
 11993 ;;		_vd_AnalyserEntrees
 11994 ;; This function uses a non-reentrant model
 11995 ;;
 11996                           psect	text31,local,class=CODE,delta=2,merge=1
 11997                           	line	326
 11998                           global __ptext31
 11999  1362                     __ptext31:	;psect for function _vd_AnalyserEntreesTOR
 12000                           psect	text31
 12001                           	file	"../source/gestionentrees.c"
 12002                           	line	326
 12003                           	global	__size_of_vd_AnalyserEntreesTOR
 12004  0050                     	__size_of_vd_AnalyserEntreesTOR	equ	__end_of_vd_AnalyserEntreesTOR-_vd_AnalyserEntreesT
                                 OR
 12005                           	
 12006  1362                     _vd_AnalyserEntreesTOR:	
 12007                           ;incstack = 0
 12008                           	opt	stack 1
 12009                           ; Regs used in _vd_AnalyserEntreesTOR: [wreg-fsr0h+status,2+status,0+pclath+cstack]
 12010                           	line	332
 12011                           	
 12012  1362                     l3740:	
 12013                           ;gestionentrees.c: 328: unsigned char l_uc_Compteur;
 12014                           ;gestionentrees.c: 329: unsigned short l_us_Masque;
 12015                           ;gestionentrees.c: 330: unsigned char l_uc_EntreeTOR;
 12016                           ;gestionentrees.c: 332: for(l_uc_Compteur=0;l_uc_Compteur<uc_ENTREE_TOR_NB;l_uc_Compteur
                                 ++)
 12017  1362  01DB               	clrf	(vd_AnalyserEntreesTOR@l_uc_Compteur)
 12018  1363  2BAB               	goto	l3764
 12019                           	line	334
 12020                           	
 12021  1364                     l3742:	
 12022                           ;gestionentrees.c: 333: {
 12023                           ;gestionentrees.c: 334: l_us_Masque = 0x01 << l_uc_Compteur;
 12024  1364  01D9               	clrf	(vd_AnalyserEntreesTOR@l_us_Masque)
 12025  1365  0AD9               	incf	(vd_AnalyserEntreesTOR@l_us_Masque),f
 12026  1366  01DA               	clrf	(vd_AnalyserEntreesTOR@l_us_Masque+1)
 12027                           	
 12028  1367                     l3744:	
 12029  1367  0A5B               	incf	(vd_AnalyserEntreesTOR@l_uc_Compteur),w
 12030  1368  2B6C               	goto	u3440
 12031  1369                     u3445:
 12032  1369  1003               	clrc
 12033  136A  0DD9               	rlf	(vd_AnalyserEntreesTOR@l_us_Masque),f
 12034  136B  0DDA               	rlf	(vd_AnalyserEntreesTOR@l_us_Masque+1),f
 12035  136C                     u3440:
 12036  136C  3EFF               	addlw	-1
 12037  136D  1D03               	skipz
 12038  136E  2B69               	goto	u3445
 12039                           	line	335
 12040                           	
 12041  136F                     l3746:	
 12042                           ;gestionentrees.c: 335: l_uc_EntreeTOR = uc_EntreeTOREntreeCarte(l_uc_Compteur);
 12043  136F  085B               	movf	(vd_AnalyserEntreesTOR@l_uc_Compteur),w
 12044  1370  160A  118A  210E   	fcall	_uc_EntreeTOREntreeCarte
              160A  118A         
 12045  1375  00DC               	movwf	(vd_AnalyserEntreesTOR@l_uc_EntreeTOR)
 12046                           	line	338
 12047                           	
 12048  1376                     l3748:	
 12049                           ;gestionentrees.c: 337: if(st_Entrees[l_uc_EntreeTOR].ub1_EtatFiltrePourApp !=
 12050                           ;gestionentrees.c: 338: st_Entrees[l_uc_EntreeTOR].ub1_EtatFiltrePourAppPrecedent)
 12051  1376  085C               	movf	(vd_AnalyserEntreesTOR@l_uc_EntreeTOR),w
 12052  1377  3ED3               	addlw	_st_Entrees&0ffh
 12053  1378  0084               	movwf	fsr0
 12054  1379  1783               	bsf	status, 7	;select IRP bank3
 12055  137A  0E00               	swapf	indf,w
 12056  137B  00D6               	movwf	(??_vd_AnalyserEntreesTOR+0)+0
 12057  137C  0CD6               	rrf	(??_vd_AnalyserEntreesTOR+0)+0,f
 12058  137D  0C56               	rrf	(??_vd_AnalyserEntreesTOR+0)+0,w
 12059  137E  3901               	andlw	(1<<1)-1
 12060  137F  00D7               	movwf	(??_vd_AnalyserEntreesTOR+1)+0
 12061  1380  085C               	movf	(vd_AnalyserEntreesTOR@l_uc_EntreeTOR),w
 12062  1381  3ED3               	addlw	_st_Entrees&0ffh
 12063  1382  0084               	movwf	fsr0
 12064  1383  0E00               	swapf	indf,w
 12065  1384  00D8               	movwf	(??_vd_AnalyserEntreesTOR+2)+0
 12066  1385  0C58               	rrf	(??_vd_AnalyserEntreesTOR+2)+0,w
 12067  1386  3901               	andlw	(1<<1)-1
 12068  1387  0657               	xorwf	(??_vd_AnalyserEntreesTOR+1)+0,w
 12069  1388  1903               	skipnz
 12070  1389  2B8B               	goto	u3451
 12071  138A  2B8C               	goto	u3450
 12072  138B                     u3451:
 12073  138B  2B97               	goto	l3754
 12074  138C                     u3450:
 12075                           	line	341
 12076                           	
 12077  138C                     l3750:	
 12078                           ;gestionentrees.c: 339: {
 12079                           ;gestionentrees.c: 341: if(st_Entrees[l_uc_EntreeTOR].ub1_EtatFiltrePourApp == 0)
 12080  138C  085C               	movf	(vd_AnalyserEntreesTOR@l_uc_EntreeTOR),w
 12081  138D  3ED3               	addlw	_st_Entrees&0ffh
 12082  138E  0084               	movwf	fsr0
 12083  138F  1A80               	btfsc	indf,5
 12084  1390  2B92               	goto	u3461
 12085  1391  2B93               	goto	u3460
 12086  1392                     u3461:
 12087  1392  2BA2               	goto	l3756
 12088  1393                     u3460:
 12089                           	line	343
 12090                           	
 12091  1393                     l3752:	
 12092                           ;gestionentrees.c: 342: {
 12093                           ;gestionentrees.c: 343: st_Entrees[l_uc_EntreeTOR].ub1_EtatFiltrePourAppPrecedent = 0;
 12094  1393  085C               	movf	(vd_AnalyserEntreesTOR@l_uc_EntreeTOR),w
 12095  1394  3ED3               	addlw	_st_Entrees&0ffh
 12096  1395  0084               	movwf	fsr0
 12097  1396  1300               	bcf	indf,6
 12098                           	line	346
 12099                           	
 12100  1397                     l3754:	
 12101                           ;gestionentrees.c: 346: us_EntreesTOR &= ~l_us_Masque;
 12102  1397  085A               	movf	(vd_AnalyserEntreesTOR@l_us_Masque+1),w
 12103  1398  00D7               	movwf	(??_vd_AnalyserEntreesTOR+0)+0+1
 12104  1399  0859               	movf	(vd_AnalyserEntreesTOR@l_us_Masque),w
 12105  139A  00D6               	movwf	(??_vd_AnalyserEntreesTOR+0)+0
 12106  139B  09D6               	comf	(??_vd_AnalyserEntreesTOR+0)+0,f
 12107  139C  09D7               	comf	(??_vd_AnalyserEntreesTOR+0)+1,f
 12108  139D  0856               	movf	0+(??_vd_AnalyserEntreesTOR+0)+0,w
 12109  139E  05AA               	andwf	(_us_EntreesTOR),f
 12110  139F  0857               	movf	1+(??_vd_AnalyserEntreesTOR+0)+0,w
 12111  13A0  05AB               	andwf	(_us_EntreesTOR+1),f
 12112                           	line	347
 12113                           ;gestionentrees.c: 347: }
 12114  13A1  2BAA               	goto	l3762
 12115                           	line	350
 12116                           	
 12117  13A2                     l3756:	
 12118                           ;gestionentrees.c: 348: else
 12119                           ;gestionentrees.c: 349: {
 12120                           ;gestionentrees.c: 350: st_Entrees[l_uc_EntreeTOR].ub1_EtatFiltrePourAppPrecedent = 1;
 12121  13A2  085C               	movf	(vd_AnalyserEntreesTOR@l_uc_EntreeTOR),w
 12122  13A3  3ED3               	addlw	_st_Entrees&0ffh
 12123  13A4  0084               	movwf	fsr0
 12124  13A5  1700               	bsf	indf,6
 12125                           	line	352
 12126                           	
 12127  13A6                     l3758:	
 12128                           ;gestionentrees.c: 352: us_EntreesTOR |= l_us_Masque;
 12129  13A6  0859               	movf	(vd_AnalyserEntreesTOR@l_us_Masque),w
 12130  13A7  04AA               	iorwf	(_us_EntreesTOR),f
 12131  13A8  085A               	movf	(vd_AnalyserEntreesTOR@l_us_Masque+1),w
 12132  13A9  04AB               	iorwf	(_us_EntreesTOR+1),f
 12133                           	line	332
 12134                           	
 12135  13AA                     l3762:	
 12136  13AA  0ADB               	incf	(vd_AnalyserEntreesTOR@l_uc_Compteur),f
 12137                           	
 12138  13AB                     l3764:	
 12139  13AB  0840               	movf	(_uc_ENTREE_TOR_NB),w
 12140  13AC  025B               	subwf	(vd_AnalyserEntreesTOR@l_uc_Compteur),w
 12141  13AD  1C03               	skipc
 12142  13AE  2BB0               	goto	u3471
 12143  13AF  2BB1               	goto	u3470
 12144  13B0                     u3471:
 12145  13B0  2B64               	goto	l3742
 12146  13B1                     u3470:
 12147                           	line	361
 12148                           	
 12149  13B1                     l78:	
 12150  13B1  0008               	return
 12151                           	opt stack 0
 12152                           GLOBAL	__end_of_vd_AnalyserEntreesTOR
 12153  13B2                     	__end_of_vd_AnalyserEntreesTOR:
 12154                           	signat	_vd_AnalyserEntreesTOR,88
 12155                           	global	_uc_EntreeTOREntreeCarte
 12156                           
 12157 ;; *************** function _uc_EntreeTOREntreeCarte *****************
 12158 ;; Defined at:
 12159 ;;		line 42 in file "../source/gestionentrees.c"
 12160 ;; Parameters:    Size  Location     Type
 12161 ;;  uc_NumeroEnt    1    wreg     unsigned char 
 12162 ;; Auto vars:     Size  Location     Type
 12163 ;;  uc_NumeroEnt    1    4[BANK0 ] unsigned char 
 12164 ;;  l_uc_Compteu    1    5[BANK0 ] unsigned char 
 12165 ;; Return value:  Size  Location     Type
 12166 ;;                  1    wreg      unsigned char 
 12167 ;; Registers used:
 12168 ;;		wreg, fsr0l, fsr0h, status,2, status,0
 12169 ;; Tracked objects:
 12170 ;;		On entry : 60/0
 12171 ;;		On exit  : 60/0
 12172 ;;		Unchanged: 0/0
 12173 ;; Data sizes:     COMMON   BANK0   BANK3   BANK1   BANK2
 12174 ;;      Params:         0       0       0       0       0
 12175 ;;      Locals:         0       2       0       0       0
 12176 ;;      Temps:          0       0       0       0       0
 12177 ;;      Totals:         0       2       0       0       0
 12178 ;;Total ram usage:        2 bytes
 12179 ;; Hardware stack levels used:    1
 12180 ;; Hardware stack levels required when called:    4
 12181 ;; This function calls:
 12182 ;;		Nothing
 12183 ;; This function is called by:
 12184 ;;		_vd_AnalyserEntreesTOR
 12185 ;; This function uses a non-reentrant model
 12186 ;;
 12187                           psect	text32,local,class=CODE,delta=2,merge=1
 12188                           	line	42
 12189                           global __ptext32
 12190  110E                     __ptext32:	;psect for function _uc_EntreeTOREntreeCarte
 12191                           psect	text32
 12192                           	file	"../source/gestionentrees.c"
 12193                           	line	42
 12194                           	global	__size_of_uc_EntreeTOREntreeCarte
 12195  0030                     	__size_of_uc_EntreeTOREntreeCarte	equ	__end_of_uc_EntreeTOREntreeCarte-_uc_EntreeTOREnt
                                 reeCarte
 12196                           	
 12197  110E                     _uc_EntreeTOREntreeCarte:	
 12198                           ;incstack = 0
 12199                           	opt	stack 1
 12200                           ; Regs used in _uc_EntreeTOREntreeCarte: [wreg-fsr0h+status,2+status,0]
 12201                           ;uc_EntreeTOREntreeCarte@uc_NumeroEntreeTOR stored from wreg
 12202  110E  00D4               	movwf	(uc_EntreeTOREntreeCarte@uc_NumeroEntreeTOR)
 12203                           	line	46
 12204                           	
 12205  110F                     l3670:	
 12206                           ;gestionentrees.c: 44: unsigned char l_uc_Compteur;
 12207                           ;gestionentrees.c: 46: l_uc_Compteur = 0;
 12208  110F  01D5               	clrf	(uc_EntreeTOREntreeCarte@l_uc_Compteur)
 12209                           	line	50
 12210                           ;gestionentrees.c: 50: switch(uc_NumeroEntreeTOR)
 12211  1110  2925               	goto	l3688
 12212                           	line	53
 12213                           	
 12214  1111                     l3672:	
 12215                           ;gestionentrees.c: 53: l_uc_Compteur = uc_ENTREE0;
 12216  1111  01D5               	clrf	(uc_EntreeTOREntreeCarte@l_uc_Compteur)
 12217                           	line	54
 12218                           ;gestionentrees.c: 54: break;
 12219  1112  293C               	goto	l3690
 12220                           	line	56
 12221                           	
 12222  1113                     l3674:	
 12223                           ;gestionentrees.c: 56: l_uc_Compteur = uc_ENTREE2;
 12224  1113  3002               	movlw	(02h)
 12225  1114  00D5               	movwf	(uc_EntreeTOREntreeCarte@l_uc_Compteur)
 12226                           	line	57
 12227                           ;gestionentrees.c: 57: break;
 12228  1115  293C               	goto	l3690
 12229                           	line	59
 12230                           	
 12231  1116                     l3676:	
 12232                           ;gestionentrees.c: 59: l_uc_Compteur = uc_ENTREE3;
 12233  1116  3003               	movlw	(03h)
 12234  1117  00D5               	movwf	(uc_EntreeTOREntreeCarte@l_uc_Compteur)
 12235                           	line	60
 12236                           ;gestionentrees.c: 60: break;
 12237  1118  293C               	goto	l3690
 12238                           	line	62
 12239                           	
 12240  1119                     l3678:	
 12241                           ;gestionentrees.c: 62: l_uc_Compteur = uc_ENTREE9;
 12242  1119  3009               	movlw	(09h)
 12243  111A  00D5               	movwf	(uc_EntreeTOREntreeCarte@l_uc_Compteur)
 12244                           	line	63
 12245                           ;gestionentrees.c: 63: break;
 12246  111B  293C               	goto	l3690
 12247                           	line	65
 12248                           	
 12249  111C                     l3680:	
 12250                           ;gestionentrees.c: 65: l_uc_Compteur = uc_ENTREE10;
 12251  111C  300A               	movlw	(0Ah)
 12252  111D  00D5               	movwf	(uc_EntreeTOREntreeCarte@l_uc_Compteur)
 12253                           	line	66
 12254                           ;gestionentrees.c: 66: break;
 12255  111E  293C               	goto	l3690
 12256                           	line	68
 12257                           	
 12258  111F                     l3682:	
 12259                           ;gestionentrees.c: 68: l_uc_Compteur = uc_ENTREE14;
 12260  111F  300E               	movlw	(0Eh)
 12261  1120  00D5               	movwf	(uc_EntreeTOREntreeCarte@l_uc_Compteur)
 12262                           	line	69
 12263                           ;gestionentrees.c: 69: break;
 12264  1121  293C               	goto	l3690
 12265                           	line	71
 12266                           	
 12267  1122                     l3684:	
 12268                           ;gestionentrees.c: 71: l_uc_Compteur = uc_ENTREE18;
 12269  1122  3012               	movlw	(012h)
 12270  1123  00D5               	movwf	(uc_EntreeTOREntreeCarte@l_uc_Compteur)
 12271                           	line	72
 12272                           ;gestionentrees.c: 72: break;
 12273  1124  293C               	goto	l3690
 12274                           	line	50
 12275                           	
 12276  1125                     l3688:	
 12277  1125  0854               	movf	(uc_EntreeTOREntreeCarte@uc_NumeroEntreeTOR),w
 12278                           	; Switch size 1, requested type "space"
 12279                           ; Number of cases is 7, Range of values is 0 to 6
 12280                           ; switch strategies available:
 12281                           ; Name         Instructions Cycles
 12282                           ; simple_byte           22    12 (average)
 12283                           ; direct_byte           29     8 (fixed)
 12284                           ; jumptable            260     6 (fixed)
 12285                           ;	Chosen strategy is simple_byte
 12286                           
 12287                           	opt asmopt_off
 12288  1126  3A00               	xorlw	0^0	; case 0
 12289  1127  1903               	skipnz
 12290  1128  2911               	goto	l3672
 12291  1129  3A01               	xorlw	1^0	; case 1
 12292  112A  1903               	skipnz
 12293  112B  2913               	goto	l3674
 12294  112C  3A03               	xorlw	2^1	; case 2
 12295  112D  1903               	skipnz
 12296  112E  2916               	goto	l3676
 12297  112F  3A01               	xorlw	3^2	; case 3
 12298  1130  1903               	skipnz
 12299  1131  2919               	goto	l3678
 12300  1132  3A07               	xorlw	4^3	; case 4
 12301  1133  1903               	skipnz
 12302  1134  291C               	goto	l3680
 12303  1135  3A01               	xorlw	5^4	; case 5
 12304  1136  1903               	skipnz
 12305  1137  291F               	goto	l3682
 12306  1138  3A03               	xorlw	6^5	; case 6
 12307  1139  1903               	skipnz
 12308  113A  2922               	goto	l3684
 12309  113B  293C               	goto	l3690
 12310                           	opt asmopt_on
 12311                           
 12312                           	line	144
 12313                           	
 12314  113C                     l3690:	
 12315                           ;gestionentrees.c: 144: return l_uc_Compteur;
 12316  113C  0855               	movf	(uc_EntreeTOREntreeCarte@l_uc_Compteur),w
 12317                           	line	145
 12318                           	
 12319  113D                     l44:	
 12320  113D  0008               	return
 12321                           	opt stack 0
 12322                           GLOBAL	__end_of_uc_EntreeTOREntreeCarte
 12323  113E                     	__end_of_uc_EntreeTOREntreeCarte:
 12324                           	signat	_uc_EntreeTOREntreeCarte,4217
 12325                           	global	_vd_AcquisitionEntrees
 12326                           
 12327 ;; *************** function _vd_AcquisitionEntrees *****************
 12328 ;; Defined at:
 12329 ;;		line 14 in file "../source/gestionentrees.c"
 12330 ;; Parameters:    Size  Location     Type
 12331 ;;		None
 12332 ;; Auto vars:     Size  Location     Type
 12333 ;;  l_uc_Compteu    1    8[BANK0 ] unsigned char 
 12334 ;;  l_uc_EtatEnt    1    7[BANK0 ] unsigned char 
 12335 ;; Return value:  Size  Location     Type
 12336 ;;		None               void
 12337 ;; Registers used:
 12338 ;;		wreg, fsr0l, fsr0h, status,2, status,0, pclath, cstack
 12339 ;; Tracked objects:
 12340 ;;		On entry : 60/0
 12341 ;;		On exit  : 60/0
 12342 ;;		Unchanged: 0/0
 12343 ;; Data sizes:     COMMON   BANK0   BANK3   BANK1   BANK2
 12344 ;;      Params:         0       0       0       0       0
 12345 ;;      Locals:         0       2       0       0       0
 12346 ;;      Temps:          0       1       0       0       0
 12347 ;;      Totals:         0       3       0       0       0
 12348 ;;Total ram usage:        3 bytes
 12349 ;; Hardware stack levels used:    1
 12350 ;; Hardware stack levels required when called:    5
 12351 ;; This function calls:
 12352 ;;		_uc_EtatEntree
 12353 ;; This function is called by:
 12354 ;;		_main
 12355 ;; This function uses a non-reentrant model
 12356 ;;
 12357                           psect	text33,local,class=CODE,delta=2,merge=1
 12358                           	line	14
 12359                           global __ptext33
 12360  1403                     __ptext33:	;psect for function _vd_AcquisitionEntrees
 12361                           psect	text33
 12362                           	file	"../source/gestionentrees.c"
 12363                           	line	14
 12364                           	global	__size_of_vd_AcquisitionEntrees
 12365  0053                     	__size_of_vd_AcquisitionEntrees	equ	__end_of_vd_AcquisitionEntrees-_vd_AcquisitionEntre
                                 es
 12366                           	
 12367  1403                     _vd_AcquisitionEntrees:	
 12368                           ;incstack = 0
 12369                           	opt	stack 2
 12370                           ; Regs used in _vd_AcquisitionEntrees: [wreg-fsr0h+status,2+status,0+pclath+cstack]
 12371                           	line	20
 12372                           	
 12373  1403                     l3592:	
 12374                           ;gestionentrees.c: 16: unsigned char l_uc_Compteur;
 12375                           ;gestionentrees.c: 17: unsigned char l_uc_EtatEntree;
 12376                           ;gestionentrees.c: 20: for(l_uc_Compteur=0;l_uc_Compteur<uc_NB_ES;l_uc_Compteur++)
 12377  1403  01D8               	clrf	(vd_AcquisitionEntrees@l_uc_Compteur)
 12378  1404  2C4F               	goto	l3608
 12379                           	line	22
 12380                           	
 12381  1405                     l3594:	
 12382                           ;gestionentrees.c: 21: {
 12383                           ;gestionentrees.c: 22: l_uc_EtatEntree = uc_EtatEntree(l_uc_Compteur);
 12384  1405  0858               	movf	(vd_AcquisitionEntrees@l_uc_Compteur),w
 12385  1406  120A  158A  213C   	fcall	_uc_EtatEntree
              160A  118A         
 12386  140B  00D7               	movwf	(vd_AcquisitionEntrees@l_uc_EtatEntree)
 12387                           	line	23
 12388                           	
 12389  140C                     l3596:	
 12390                           ;gestionentrees.c: 23: if(l_uc_EtatEntree != st_Entrees[l_uc_Compteur].ub1_EtatActuel)
 12391  140C  0858               	movf	(vd_AcquisitionEntrees@l_uc_Compteur),w
 12392  140D  3ED3               	addlw	_st_Entrees&0ffh
 12393  140E  0084               	movwf	fsr0
 12394  140F  1783               	bsf	status, 7	;select IRP bank3
 12395  1410  0800               	movf	indf,w
 12396  1411  3901               	andlw	(1<<1)-1
 12397  1412  0657               	xorwf	(vd_AcquisitionEntrees@l_uc_EtatEntree),w
 12398  1413  1903               	skipnz
 12399  1414  2C16               	goto	u3161
 12400  1415  2C17               	goto	u3160
 12401  1416                     u3161:
 12402  1416  2C24               	goto	l3600
 12403  1417                     u3160:
 12404                           	line	25
 12405                           	
 12406  1417                     l3598:	
 12407                           ;gestionentrees.c: 24: {
 12408                           ;gestionentrees.c: 25: st_Entrees[l_uc_Compteur].ub1_EtatActuel = l_uc_EtatEntree;
 12409  1417  0858               	movf	(vd_AcquisitionEntrees@l_uc_Compteur),w
 12410  1418  3ED3               	addlw	_st_Entrees&0ffh
 12411  1419  0084               	movwf	fsr0
 12412  141A  0857               	movf	(vd_AcquisitionEntrees@l_uc_EtatEntree),w
 12413  141B  1000               	bcf	indf,0
 12414  141C  1D03               	skipz
 12415  141D  1400               	bsf	indf,0
 12416                           	line	26
 12417                           ;gestionentrees.c: 26: st_Entrees[l_uc_Compteur].ub4_AntiRebond_TempoChgtEtat = 0;
 12418  141E  0858               	movf	(vd_AcquisitionEntrees@l_uc_Compteur),w
 12419  141F  3ED3               	addlw	_st_Entrees&0ffh
 12420  1420  0084               	movwf	fsr0
 12421  1421  30E1               	movlw	((0 & ((1<<4)-1))<<1)|not (((1<<4)-1)<<1)
 12422  1422  0580               	andwf	indf,f
 12423                           	line	27
 12424                           ;gestionentrees.c: 27: }
 12425  1423  2C4C               	goto	l3606
 12426                           	line	30
 12427                           	
 12428  1424                     l3600:	
 12429                           ;gestionentrees.c: 28: else
 12430                           ;gestionentrees.c: 29: {
 12431                           ;gestionentrees.c: 30: if(st_Entrees[l_uc_Compteur].ub4_AntiRebond_TempoChgtEtat < 4)
 12432  1424  0858               	movf	(vd_AcquisitionEntrees@l_uc_Compteur),w
 12433  1425  3ED3               	addlw	_st_Entrees&0ffh
 12434  1426  0084               	movwf	fsr0
 12435  1427  0C00               	rrf	indf,w
 12436  1428  390F               	andlw	(1<<4)-1
 12437  1429  00D6               	movwf	(??_vd_AcquisitionEntrees+0)+0
 12438  142A  3004               	movlw	low(04h)
 12439  142B  0256               	subwf	(??_vd_AcquisitionEntrees+0)+0,w
 12440  142C  1803               	skipnc
 12441  142D  2C2F               	goto	u3171
 12442  142E  2C30               	goto	u3170
 12443  142F                     u3171:
 12444  142F  2C3E               	goto	l3604
 12445  1430                     u3170:
 12446                           	line	32
 12447                           	
 12448  1430                     l3602:	
 12449                           ;gestionentrees.c: 31: {
 12450                           ;gestionentrees.c: 32: st_Entrees[l_uc_Compteur].ub4_AntiRebond_TempoChgtEtat++;
 12451  1430  0858               	movf	(vd_AcquisitionEntrees@l_uc_Compteur),w
 12452  1431  3ED3               	addlw	_st_Entrees&0ffh
 12453  1432  0084               	movwf	fsr0
 12454  1433  0C00               	rrf	indf,w
 12455  1434  390F               	andlw	(1<<4)-1
 12456  1435  00D6               	movwf	((??_vd_AcquisitionEntrees+0)+0)
 12457  1436  0AD6               	incf	(??_vd_AcquisitionEntrees+0)+0
 12458  1437  0DD6               	rlf	((??_vd_AcquisitionEntrees+0)+0),f
 12459  1438  0800               	movf	indf,w
 12460  1439  0656               	xorwf	((??_vd_AcquisitionEntrees+0)+0),w
 12461  143A  39E1               	andlw	not (((1<<4)-1)<<1)
 12462  143B  0656               	xorwf	((??_vd_AcquisitionEntrees+0)+0),w
 12463  143C  0080               	movwf	indf
 12464                           	line	33
 12465                           ;gestionentrees.c: 33: }
 12466  143D  2C4C               	goto	l3606
 12467                           	line	36
 12468                           	
 12469  143E                     l3604:	
 12470                           ;gestionentrees.c: 34: else
 12471                           ;gestionentrees.c: 35: {
 12472                           ;gestionentrees.c: 36: st_Entrees[l_uc_Compteur].ub1_EtatFiltrePourApp = st_Entrees[l_uc
                                 _Compteur].ub1_EtatActuel;
 12473  143E  0858               	movf	(vd_AcquisitionEntrees@l_uc_Compteur),w
 12474  143F  3ED3               	addlw	_st_Entrees&0ffh
 12475  1440  0084               	movwf	fsr0
 12476  1441  1800               	btfsc	indf,0
 12477  1442  2C47               	goto	u3181
 12478  1443  2C4A               	goto	u3180
 12479  1444  0858               	movf	(vd_AcquisitionEntrees@l_uc_Compteur),w
 12480  1445  3ED3               	addlw	_st_Entrees&0ffh
 12481  1446  0084               	movwf	fsr0
 12482                           	
 12483  1447                     u3181:
 12484  1447  1783               	bsf	status, 7	;select IRP bank3
 12485  1448  1680               	bsf	indf,5
 12486  1449  2C4C               	goto	u3194
 12487  144A                     u3180:
 12488  144A  1783               	bsf	status, 7	;select IRP bank3
 12489  144B  1280               	bcf	indf,5
 12490  144C                     u3194:
 12491                           	line	20
 12492                           	
 12493  144C                     l3606:	
 12494  144C  1283               	bcf	status, 5	;RP0=0, select bank0
 12495  144D  1303               	bcf	status, 6	;RP1=0, select bank0
 12496  144E  0AD8               	incf	(vd_AcquisitionEntrees@l_uc_Compteur),f
 12497                           	
 12498  144F                     l3608:	
 12499  144F  0844               	movf	(_uc_NB_ES),w
 12500  1450  0258               	subwf	(vd_AcquisitionEntrees@l_uc_Compteur),w
 12501  1451  1C03               	skipc
 12502  1452  2C54               	goto	u3201
 12503  1453  2C55               	goto	u3200
 12504  1454                     u3201:
 12505  1454  2C05               	goto	l3594
 12506  1455                     u3200:
 12507                           	line	40
 12508                           	
 12509  1455                     l32:	
 12510  1455  0008               	return
 12511                           	opt stack 0
 12512                           GLOBAL	__end_of_vd_AcquisitionEntrees
 12513  1456                     	__end_of_vd_AcquisitionEntrees:
 12514                           	signat	_vd_AcquisitionEntrees,88
 12515                           	global	_uc_EtatEntree
 12516                           
 12517 ;; *************** function _uc_EtatEntree *****************
 12518 ;; Defined at:
 12519 ;;		line 166 in file "../source/hard.c"
 12520 ;; Parameters:    Size  Location     Type
 12521 ;;  uc_NumeroEnt    1    wreg     unsigned char 
 12522 ;; Auto vars:     Size  Location     Type
 12523 ;;  uc_NumeroEnt    1    4[BANK0 ] unsigned char 
 12524 ;;  l_uc_EtatEnt    1    5[BANK0 ] unsigned char 
 12525 ;; Return value:  Size  Location     Type
 12526 ;;                  1    wreg      unsigned char 
 12527 ;; Registers used:
 12528 ;;		wreg, fsr0l, fsr0h, status,2, status,0
 12529 ;; Tracked objects:
 12530 ;;		On entry : 60/0
 12531 ;;		On exit  : 60/0
 12532 ;;		Unchanged: 0/0
 12533 ;; Data sizes:     COMMON   BANK0   BANK3   BANK1   BANK2
 12534 ;;      Params:         0       0       0       0       0
 12535 ;;      Locals:         0       2       0       0       0
 12536 ;;      Temps:          0       0       0       0       0
 12537 ;;      Totals:         0       2       0       0       0
 12538 ;;Total ram usage:        2 bytes
 12539 ;; Hardware stack levels used:    1
 12540 ;; Hardware stack levels required when called:    4
 12541 ;; This function calls:
 12542 ;;		Nothing
 12543 ;; This function is called by:
 12544 ;;		_vd_AcquisitionEntrees
 12545 ;; This function uses a non-reentrant model
 12546 ;;
 12547                           psect	text34,local,class=CODE,delta=2,merge=1
 12548                           	file	"../source/hard.c"
 12549                           	line	166
 12550                           global __ptext34
 12551  093C                     __ptext34:	;psect for function _uc_EtatEntree
 12552                           psect	text34
 12553                           	file	"../source/hard.c"
 12554                           	line	166
 12555                           	global	__size_of_uc_EtatEntree
 12556  00DA                     	__size_of_uc_EtatEntree	equ	__end_of_uc_EtatEntree-_uc_EtatEntree
 12557                           	
 12558  093C                     _uc_EtatEntree:	
 12559                           ;incstack = 0
 12560                           	opt	stack 2
 12561                           ; Regs used in _uc_EtatEntree: [wreg-fsr0h+status,2+status,0]
 12562                           ;uc_EtatEntree@uc_NumeroEntree stored from wreg
 12563  093C  00D4               	movwf	(uc_EtatEntree@uc_NumeroEntree)
 12564                           	line	170
 12565                           	
 12566  093D                     l3610:	
 12567                           ;hard.c: 168: unsigned char l_uc_EtatEntree;
 12568                           ;hard.c: 170: l_uc_EtatEntree = 0;
 12569  093D  01D5               	clrf	(uc_EtatEntree@l_uc_EtatEntree)
 12570                           	line	171
 12571                           ;hard.c: 171: switch(uc_NumeroEntree)
 12572  093E  29C5               	goto	l3658
 12573                           	line	173
 12574                           ;hard.c: 172: {
 12575                           ;hard.c: 173: case uc_ENTREE0:
 12576                           	
 12577  093F                     l369:	
 12578                           	line	174
 12579                           ;hard.c: 174: if(((PORTB & 0x01)) != 0) l_uc_EtatEntree = 1;
 12580  093F  1C06               	btfss	(6),(0)&7	;volatile
 12581  0940  2942               	goto	u3211
 12582  0941  2943               	goto	u3210
 12583  0942                     u3211:
 12584  0942  2A09               	goto	l3660
 12585  0943                     u3210:
 12586                           	
 12587  0943                     l3612:	
 12588  0943  1283               	bcf	status, 5	;RP0=0, select bank0
 12589  0944  1303               	bcf	status, 6	;RP1=0, select bank0
 12590  0945  01D5               	clrf	(uc_EtatEntree@l_uc_EtatEntree)
 12591  0946  0AD5               	incf	(uc_EtatEntree@l_uc_EtatEntree),f
 12592  0947  2A09               	goto	l3660
 12593                           	line	176
 12594                           ;hard.c: 176: case uc_ENTREE1:
 12595                           	
 12596  0948                     l372:	
 12597                           	line	177
 12598                           ;hard.c: 177: if(((PORTF & 0x08)) != 0) l_uc_EtatEntree = 1;
 12599  0948  1683               	bsf	status, 5	;RP0=1, select bank3
 12600  0949  1703               	bsf	status, 6	;RP1=1, select bank3
 12601  094A  1D88               	btfss	(392)^0180h,(3)&7	;volatile
 12602  094B  294D               	goto	u3221
 12603  094C  294E               	goto	u3220
 12604  094D                     u3221:
 12605  094D  2A09               	goto	l3660
 12606  094E                     u3220:
 12607  094E  2943               	goto	l3612
 12608                           	line	179
 12609                           ;hard.c: 179: case uc_ENTREE2:
 12610                           	
 12611  094F                     l374:	
 12612                           	line	180
 12613                           ;hard.c: 180: if(((PORTF & 0x04)) != 0) l_uc_EtatEntree = 1;
 12614  094F  1683               	bsf	status, 5	;RP0=1, select bank3
 12615  0950  1703               	bsf	status, 6	;RP1=1, select bank3
 12616  0951  1D08               	btfss	(392)^0180h,(2)&7	;volatile
 12617  0952  2954               	goto	u3231
 12618  0953  2955               	goto	u3230
 12619  0954                     u3231:
 12620  0954  2A09               	goto	l3660
 12621  0955                     u3230:
 12622  0955  2943               	goto	l3612
 12623                           	line	182
 12624                           ;hard.c: 182: case uc_ENTREE3:
 12625                           	
 12626  0956                     l376:	
 12627                           	line	183
 12628                           ;hard.c: 183: if(((PORTF & 0x02)) != 0) l_uc_EtatEntree = 1;
 12629  0956  1683               	bsf	status, 5	;RP0=1, select bank3
 12630  0957  1703               	bsf	status, 6	;RP1=1, select bank3
 12631  0958  1C88               	btfss	(392)^0180h,(1)&7	;volatile
 12632  0959  295B               	goto	u3241
 12633  095A  295C               	goto	u3240
 12634  095B                     u3241:
 12635  095B  2A09               	goto	l3660
 12636  095C                     u3240:
 12637  095C  2943               	goto	l3612
 12638                           	line	185
 12639                           ;hard.c: 185: case uc_ENTREE4:
 12640                           	
 12641  095D                     l378:	
 12642                           	line	186
 12643                           ;hard.c: 186: if(((PORTF & 0x01)) != 0) l_uc_EtatEntree = 1;
 12644  095D  1683               	bsf	status, 5	;RP0=1, select bank3
 12645  095E  1703               	bsf	status, 6	;RP1=1, select bank3
 12646  095F  1C08               	btfss	(392)^0180h,(0)&7	;volatile
 12647  0960  2962               	goto	u3251
 12648  0961  2963               	goto	u3250
 12649  0962                     u3251:
 12650  0962  2A09               	goto	l3660
 12651  0963                     u3250:
 12652  0963  2943               	goto	l3612
 12653                           	line	188
 12654                           ;hard.c: 188: case uc_ENTREE5:
 12655                           	
 12656  0964                     l380:	
 12657                           	line	189
 12658                           ;hard.c: 189: if(((PORTG & 0x20)) != 0) l_uc_EtatEntree = 1;
 12659  0964  1683               	bsf	status, 5	;RP0=1, select bank3
 12660  0965  1703               	bsf	status, 6	;RP1=1, select bank3
 12661  0966  1E89               	btfss	(393)^0180h,(5)&7	;volatile
 12662  0967  2969               	goto	u3261
 12663  0968  296A               	goto	u3260
 12664  0969                     u3261:
 12665  0969  2A09               	goto	l3660
 12666  096A                     u3260:
 12667  096A  2943               	goto	l3612
 12668                           	line	191
 12669                           ;hard.c: 191: case uc_ENTREE6:
 12670                           	
 12671  096B                     l382:	
 12672                           	line	192
 12673                           ;hard.c: 192: if(((PORTG & 0x10)) != 0) l_uc_EtatEntree = 1;
 12674  096B  1683               	bsf	status, 5	;RP0=1, select bank3
 12675  096C  1703               	bsf	status, 6	;RP1=1, select bank3
 12676  096D  1E09               	btfss	(393)^0180h,(4)&7	;volatile
 12677  096E  2970               	goto	u3271
 12678  096F  2971               	goto	u3270
 12679  0970                     u3271:
 12680  0970  2A09               	goto	l3660
 12681  0971                     u3270:
 12682  0971  2943               	goto	l3612
 12683                           	line	194
 12684                           ;hard.c: 194: case uc_ENTREE7:
 12685                           	
 12686  0972                     l384:	
 12687                           	line	195
 12688                           ;hard.c: 195: if(((PORTG & 0x08)) != 0) l_uc_EtatEntree = 1;
 12689  0972  1683               	bsf	status, 5	;RP0=1, select bank3
 12690  0973  1703               	bsf	status, 6	;RP1=1, select bank3
 12691  0974  1D89               	btfss	(393)^0180h,(3)&7	;volatile
 12692  0975  2977               	goto	u3281
 12693  0976  2978               	goto	u3280
 12694  0977                     u3281:
 12695  0977  2A09               	goto	l3660
 12696  0978                     u3280:
 12697  0978  2943               	goto	l3612
 12698                           	line	197
 12699                           ;hard.c: 197: case uc_ENTREE8:
 12700                           	
 12701  0979                     l386:	
 12702                           	line	198
 12703                           ;hard.c: 198: if(((PORTG & 0x04)) != 0) l_uc_EtatEntree = 1;
 12704  0979  1683               	bsf	status, 5	;RP0=1, select bank3
 12705  097A  1703               	bsf	status, 6	;RP1=1, select bank3
 12706  097B  1D09               	btfss	(393)^0180h,(2)&7	;volatile
 12707  097C  297E               	goto	u3291
 12708  097D  297F               	goto	u3290
 12709  097E                     u3291:
 12710  097E  2A09               	goto	l3660
 12711  097F                     u3290:
 12712  097F  2943               	goto	l3612
 12713                           	line	200
 12714                           ;hard.c: 200: case uc_ENTREE9:
 12715                           	
 12716  0980                     l388:	
 12717                           	line	201
 12718                           ;hard.c: 201: if(((PORTG & 0x02)) != 0) l_uc_EtatEntree = 1;
 12719  0980  1683               	bsf	status, 5	;RP0=1, select bank3
 12720  0981  1703               	bsf	status, 6	;RP1=1, select bank3
 12721  0982  1C89               	btfss	(393)^0180h,(1)&7	;volatile
 12722  0983  2985               	goto	u3301
 12723  0984  2986               	goto	u3300
 12724  0985                     u3301:
 12725  0985  2A09               	goto	l3660
 12726  0986                     u3300:
 12727  0986  2943               	goto	l3612
 12728                           	line	203
 12729                           ;hard.c: 203: case uc_ENTREE10:
 12730                           	
 12731  0987                     l390:	
 12732                           	line	204
 12733                           ;hard.c: 204: if(((PORTG & 0x01)) != 0) l_uc_EtatEntree = 1;
 12734  0987  1683               	bsf	status, 5	;RP0=1, select bank3
 12735  0988  1703               	bsf	status, 6	;RP1=1, select bank3
 12736  0989  1C09               	btfss	(393)^0180h,(0)&7	;volatile
 12737  098A  298C               	goto	u3311
 12738  098B  298D               	goto	u3310
 12739  098C                     u3311:
 12740  098C  2A09               	goto	l3660
 12741  098D                     u3310:
 12742  098D  2943               	goto	l3612
 12743                           	line	206
 12744                           ;hard.c: 206: case uc_ENTREE11:
 12745                           	
 12746  098E                     l392:	
 12747                           	line	207
 12748                           ;hard.c: 207: if(((PORTD & 0x80)) != 0) l_uc_EtatEntree = 1;
 12749  098E  1F88               	btfss	(8),(7)&7	;volatile
 12750  098F  2991               	goto	u3321
 12751  0990  2992               	goto	u3320
 12752  0991                     u3321:
 12753  0991  2A09               	goto	l3660
 12754  0992                     u3320:
 12755  0992  2943               	goto	l3612
 12756                           	line	209
 12757                           ;hard.c: 209: case uc_ENTREE12:
 12758                           	
 12759  0993                     l394:	
 12760                           	line	210
 12761                           ;hard.c: 210: if(((PORTD & 0x40)) != 0) l_uc_EtatEntree = 1;
 12762  0993  1F08               	btfss	(8),(6)&7	;volatile
 12763  0994  2996               	goto	u3331
 12764  0995  2997               	goto	u3330
 12765  0996                     u3331:
 12766  0996  2A09               	goto	l3660
 12767  0997                     u3330:
 12768  0997  2943               	goto	l3612
 12769                           	line	212
 12770                           ;hard.c: 212: case uc_ENTREE13:
 12771                           	
 12772  0998                     l396:	
 12773                           	line	213
 12774                           ;hard.c: 213: if(((PORTD & 0x20)) != 0) l_uc_EtatEntree = 1;
 12775  0998  1E88               	btfss	(8),(5)&7	;volatile
 12776  0999  299B               	goto	u3341
 12777  099A  299C               	goto	u3340
 12778  099B                     u3341:
 12779  099B  2A09               	goto	l3660
 12780  099C                     u3340:
 12781  099C  2943               	goto	l3612
 12782                           	line	215
 12783                           ;hard.c: 215: case uc_ENTREE14:
 12784                           	
 12785  099D                     l398:	
 12786                           	line	216
 12787                           ;hard.c: 216: if(((PORTD & 0x10)) != 0) l_uc_EtatEntree = 1;
 12788  099D  1E08               	btfss	(8),(4)&7	;volatile
 12789  099E  29A0               	goto	u3351
 12790  099F  29A1               	goto	u3350
 12791  09A0                     u3351:
 12792  09A0  2A09               	goto	l3660
 12793  09A1                     u3350:
 12794  09A1  2943               	goto	l3612
 12795                           	line	218
 12796                           ;hard.c: 218: case uc_ENTREE15:
 12797                           	
 12798  09A2                     l400:	
 12799                           	line	219
 12800                           ;hard.c: 219: if(((PORTC & 0x20)) != 0) l_uc_EtatEntree = 1;
 12801  09A2  1E87               	btfss	(7),(5)&7	;volatile
 12802  09A3  29A5               	goto	u3361
 12803  09A4  29A6               	goto	u3360
 12804  09A5                     u3361:
 12805  09A5  2A09               	goto	l3660
 12806  09A6                     u3360:
 12807  09A6  2943               	goto	l3612
 12808                           	line	221
 12809                           ;hard.c: 221: case uc_ENTREE16:
 12810                           	
 12811  09A7                     l402:	
 12812                           	line	222
 12813                           ;hard.c: 222: if(((PORTC & 0x10)) != 0) l_uc_EtatEntree = 1;
 12814  09A7  1E07               	btfss	(7),(4)&7	;volatile
 12815  09A8  29AA               	goto	u3371
 12816  09A9  29AB               	goto	u3370
 12817  09AA                     u3371:
 12818  09AA  2A09               	goto	l3660
 12819  09AB                     u3370:
 12820  09AB  2943               	goto	l3612
 12821                           	line	224
 12822                           ;hard.c: 224: case uc_ENTREE17:
 12823                           	
 12824  09AC                     l404:	
 12825                           	line	225
 12826                           ;hard.c: 225: if(((PORTD & 0x01)) != 0) l_uc_EtatEntree = 1;
 12827  09AC  1C08               	btfss	(8),(0)&7	;volatile
 12828  09AD  29AF               	goto	u3381
 12829  09AE  29B0               	goto	u3380
 12830  09AF                     u3381:
 12831  09AF  2A09               	goto	l3660
 12832  09B0                     u3380:
 12833  09B0  2943               	goto	l3612
 12834                           	line	227
 12835                           ;hard.c: 227: case uc_ENTREE18:
 12836                           	
 12837  09B1                     l406:	
 12838                           	line	228
 12839                           ;hard.c: 228: if(((PORTC & 0x08)) != 0) l_uc_EtatEntree = 1;
 12840  09B1  1D87               	btfss	(7),(3)&7	;volatile
 12841  09B2  29B4               	goto	u3391
 12842  09B3  29B5               	goto	u3390
 12843  09B4                     u3391:
 12844  09B4  2A09               	goto	l3660
 12845  09B5                     u3390:
 12846  09B5  2943               	goto	l3612
 12847                           	line	230
 12848                           ;hard.c: 230: case uc_ENTREE19:
 12849                           	
 12850  09B6                     l408:	
 12851                           	line	231
 12852                           ;hard.c: 231: if(((PORTC & 0x04)) != 0) l_uc_EtatEntree = 1;
 12853  09B6  1D07               	btfss	(7),(2)&7	;volatile
 12854  09B7  29B9               	goto	u3401
 12855  09B8  29BA               	goto	u3400
 12856  09B9                     u3401:
 12857  09B9  2A09               	goto	l3660
 12858  09BA                     u3400:
 12859  09BA  2943               	goto	l3612
 12860                           	line	233
 12861                           ;hard.c: 233: case uc_ENTREE20:
 12862                           	
 12863  09BB                     l410:	
 12864                           	line	234
 12865                           ;hard.c: 234: if(((PORTC & 0x02)) != 0) l_uc_EtatEntree = 1;
 12866  09BB  1C87               	btfss	(7),(1)&7	;volatile
 12867  09BC  29BE               	goto	u3411
 12868  09BD  29BF               	goto	u3410
 12869  09BE                     u3411:
 12870  09BE  2A09               	goto	l3660
 12871  09BF                     u3410:
 12872  09BF  2943               	goto	l3612
 12873                           	line	236
 12874                           ;hard.c: 236: case uc_ENTREE21:
 12875                           	
 12876  09C0                     l412:	
 12877                           	line	237
 12878                           ;hard.c: 237: if(((PORTA & 0x02)) != 0) l_uc_EtatEntree = 1;
 12879  09C0  1C85               	btfss	(5),(1)&7	;volatile
 12880  09C1  29C3               	goto	u3421
 12881  09C2  29C4               	goto	u3420
 12882  09C3                     u3421:
 12883  09C3  2A09               	goto	l3660
 12884  09C4                     u3420:
 12885  09C4  2943               	goto	l3612
 12886                           	line	171
 12887                           	
 12888  09C5                     l3658:	
 12889  09C5  0854               	movf	(uc_EtatEntree@uc_NumeroEntree),w
 12890                           	; Switch size 1, requested type "space"
 12891                           ; Number of cases is 22, Range of values is 0 to 21
 12892                           ; switch strategies available:
 12893                           ; Name         Instructions Cycles
 12894                           ; simple_byte           67    34 (average)
 12895                           ; direct_byte           74     8 (fixed)
 12896                           ; jumptable            260     6 (fixed)
 12897                           ;	Chosen strategy is simple_byte
 12898                           
 12899                           	opt asmopt_off
 12900  09C6  3A00               	xorlw	0^0	; case 0
 12901  09C7  1903               	skipnz
 12902  09C8  293F               	goto	l369
 12903  09C9  3A01               	xorlw	1^0	; case 1
 12904  09CA  1903               	skipnz
 12905  09CB  2948               	goto	l372
 12906  09CC  3A03               	xorlw	2^1	; case 2
 12907  09CD  1903               	skipnz
 12908  09CE  294F               	goto	l374
 12909  09CF  3A01               	xorlw	3^2	; case 3
 12910  09D0  1903               	skipnz
 12911  09D1  2956               	goto	l376
 12912  09D2  3A07               	xorlw	4^3	; case 4
 12913  09D3  1903               	skipnz
 12914  09D4  295D               	goto	l378
 12915  09D5  3A01               	xorlw	5^4	; case 5
 12916  09D6  1903               	skipnz
 12917  09D7  2964               	goto	l380
 12918  09D8  3A03               	xorlw	6^5	; case 6
 12919  09D9  1903               	skipnz
 12920  09DA  296B               	goto	l382
 12921  09DB  3A01               	xorlw	7^6	; case 7
 12922  09DC  1903               	skipnz
 12923  09DD  2972               	goto	l384
 12924  09DE  3A0F               	xorlw	8^7	; case 8
 12925  09DF  1903               	skipnz
 12926  09E0  2979               	goto	l386
 12927  09E1  3A01               	xorlw	9^8	; case 9
 12928  09E2  1903               	skipnz
 12929  09E3  2980               	goto	l388
 12930  09E4  3A03               	xorlw	10^9	; case 10
 12931  09E5  1903               	skipnz
 12932  09E6  2987               	goto	l390
 12933  09E7  3A01               	xorlw	11^10	; case 11
 12934  09E8  1903               	skipnz
 12935  09E9  298E               	goto	l392
 12936  09EA  3A07               	xorlw	12^11	; case 12
 12937  09EB  1903               	skipnz
 12938  09EC  2993               	goto	l394
 12939  09ED  3A01               	xorlw	13^12	; case 13
 12940  09EE  1903               	skipnz
 12941  09EF  2998               	goto	l396
 12942  09F0  3A03               	xorlw	14^13	; case 14
 12943  09F1  1903               	skipnz
 12944  09F2  299D               	goto	l398
 12945  09F3  3A01               	xorlw	15^14	; case 15
 12946  09F4  1903               	skipnz
 12947  09F5  29A2               	goto	l400
 12948  09F6  3A1F               	xorlw	16^15	; case 16
 12949  09F7  1903               	skipnz
 12950  09F8  29A7               	goto	l402
 12951  09F9  3A01               	xorlw	17^16	; case 17
 12952  09FA  1903               	skipnz
 12953  09FB  29AC               	goto	l404
 12954  09FC  3A03               	xorlw	18^17	; case 18
 12955  09FD  1903               	skipnz
 12956  09FE  29B1               	goto	l406
 12957  09FF  3A01               	xorlw	19^18	; case 19
 12958  0A00  1903               	skipnz
 12959  0A01  29B6               	goto	l408
 12960  0A02  3A07               	xorlw	20^19	; case 20
 12961  0A03  1903               	skipnz
 12962  0A04  29BB               	goto	l410
 12963  0A05  3A01               	xorlw	21^20	; case 21
 12964  0A06  1903               	skipnz
 12965  0A07  29C0               	goto	l412
 12966  0A08  2A09               	goto	l3660
 12967                           	opt asmopt_on
 12968                           
 12969                           	line	242
 12970                           	
 12971  0A09                     l3660:	
 12972                           ;hard.c: 242: if(l_uc_EtatEntree == 0) l_uc_EtatEntree = 1;
 12973  0A09  1283               	bcf	status, 5	;RP0=0, select bank0
 12974  0A0A  1303               	bcf	status, 6	;RP1=0, select bank0
 12975  0A0B  08D5               	movf	(uc_EtatEntree@l_uc_EtatEntree),f
 12976  0A0C  1D03               	skipz
 12977  0A0D  2A0F               	goto	u3431
 12978  0A0E  2A10               	goto	u3430
 12979  0A0F                     u3431:
 12980  0A0F  2A13               	goto	l3664
 12981  0A10                     u3430:
 12982                           	
 12983  0A10                     l3662:	
 12984  0A10  01D5               	clrf	(uc_EtatEntree@l_uc_EtatEntree)
 12985  0A11  0AD5               	incf	(uc_EtatEntree@l_uc_EtatEntree),f
 12986  0A12  2A14               	goto	l3666
 12987                           	line	243
 12988                           	
 12989  0A13                     l3664:	
 12990                           ;hard.c: 243: else l_uc_EtatEntree = 0;
 12991  0A13  01D5               	clrf	(uc_EtatEntree@l_uc_EtatEntree)
 12992                           	line	245
 12993                           	
 12994  0A14                     l3666:	
 12995                           ;hard.c: 245: return(l_uc_EtatEntree);
 12996  0A14  0855               	movf	(uc_EtatEntree@l_uc_EtatEntree),w
 12997                           	line	246
 12998                           	
 12999  0A15                     l416:	
 13000  0A15  0008               	return
 13001                           	opt stack 0
 13002                           GLOBAL	__end_of_uc_EtatEntree
 13003  0A16                     	__end_of_uc_EtatEntree:
 13004                           	signat	_uc_EtatEntree,4217
 13005                           	global	_IT
 13006                           
 13007 ;; *************** function _IT *****************
 13008 ;; Defined at:
 13009 ;;		line 218 in file "../source/main.c"
 13010 ;; Parameters:    Size  Location     Type
 13011 ;;		None
 13012 ;; Auto vars:     Size  Location     Type
 13013 ;;		None
 13014 ;; Return value:  Size  Location     Type
 13015 ;;		None               void
 13016 ;; Registers used:
 13017 ;;		wreg, fsr0l, fsr0h, status,2, status,0, pclath, cstack
 13018 ;; Tracked objects:
 13019 ;;		On entry : 0/0
 13020 ;;		On exit  : 0/0
 13021 ;;		Unchanged: 0/0
 13022 ;; Data sizes:     COMMON   BANK0   BANK3   BANK1   BANK2
 13023 ;;      Params:         0       0       0       0       0
 13024 ;;      Locals:         0       0       0       0       0
 13025 ;;      Temps:          3       0       0       0       0
 13026 ;;      Totals:         3       0       0       0       0
 13027 ;;Total ram usage:        3 bytes
 13028 ;; Hardware stack levels used:    1
 13029 ;; Hardware stack levels required when called:    3
 13030 ;; This function calls:
 13031 ;;		_SSP_Handler
 13032 ;;		_vd_PilotageVariateurs
 13033 ;; This function is called by:
 13034 ;;		Interrupt level 1
 13035 ;; This function uses a non-reentrant model
 13036 ;;
 13037                           psect	text35,local,class=CODE,delta=2,merge=1
 13038                           	file	"../source/main.c"
 13039                           	line	218
 13040                           global __ptext35
 13041  116E                     __ptext35:	;psect for function _IT
 13042                           psect	text35
 13043                           	file	"../source/main.c"
 13044                           	line	218
 13045                           	global	__size_of_IT
 13046  0035                     	__size_of_IT	equ	__end_of_IT-_IT
 13047                           	
 13048  116E                     _IT:	
 13049                           ;incstack = 0
 13050                           	opt	stack 0
 13051                           ; Regs used in _IT: [wreg-fsr0h+status,2+status,0+pclath+cstack]
 13052                           psect	intentry,class=CODE,delta=2
 13053                           global __pintentry
 13054  0004                     __pintentry:
 13055                           global interrupt_function
 13056  0004                     interrupt_function:
 13057                           	global saved_w
 13058  007E                     	saved_w	set	btemp+0
 13059  0004  00FE               	movwf	saved_w
 13060  0005  0E03               	swapf	status,w
 13061  0006  00F9               	movwf	(??_IT+0)
 13062  0007  0804               	movf	fsr0,w
 13063  0008  00FA               	movwf	(??_IT+1)
 13064  0009  080A               	movf	pclath,w
 13065  000A  00FB               	movwf	(??_IT+2)
 13066  000B  160A  118A  296E   	ljmp	_IT
 13067                           psect	text35
 13068                           	line	226
 13069                           	
 13070  116E                     i1l5940:	
 13071                           ;main.c: 220: static unsigned char s_uc_TempoStart = 0;
 13072                           ;main.c: 226: if (T0IF==1 && T0IE==1)
 13073  116E  1D0B               	btfss	(90/8),(90)&7	;volatile
 13074  116F  2971               	goto	u741_21
 13075  1170  2972               	goto	u741_20
 13076  1171                     u741_21:
 13077  1171  2989               	goto	i1l5956
 13078  1172                     u741_20:
 13079                           	
 13080  1172                     i1l5942:	
 13081                           ;main.c: 228: {
 13082                           ;main.c: 235: uc_FlagITTimer = 1;
 13083  1172  1E8B               	btfss	(93/8),(93)&7	;volatile
 13084  1173  2975               	goto	u742_21
 13085  1174  2976               	goto	u742_20
 13086  1175                     u742_21:
 13087  1175  2989               	goto	i1l5956
 13088  1176                     u742_20:
 13089                           	line	237
 13090                           	
 13091  1176                     i1l5944:	
 13092                           ;main.c: 237: uc_CompteurAcq++;
 13093  1176  1283               	bcf	status, 5	;RP0=0, select bank0
 13094  1177  1303               	bcf	status, 6	;RP1=0, select bank0
 13095  1178  0ABB               	incf	(_uc_CompteurAcq),f
 13096                           	line	241
 13097                           	
 13098  1179                     i1l5946:	
 13099                           ;main.c: 241: if(s_uc_TempoStart < 50)
 13100  1179  3032               	movlw	(032h)
 13101  117A  022E               	subwf	(IT@s_uc_TempoStart),w
 13102  117B  1803               	skipnc
 13103  117C  297E               	goto	u743_21
 13104  117D  297F               	goto	u743_20
 13105  117E                     u743_21:
 13106  117E  2981               	goto	i1l5950
 13107  117F                     u743_20:
 13108                           	line	243
 13109                           	
 13110  117F                     i1l5948:	
 13111                           ;main.c: 242: {
 13112                           ;main.c: 243: s_uc_TempoStart++;
 13113  117F  0AAE               	incf	(IT@s_uc_TempoStart),f
 13114                           	line	244
 13115                           ;main.c: 244: }
 13116  1180  2986               	goto	i1l5952
 13117                           	line	247
 13118                           	
 13119  1181                     i1l5950:	
 13120                           ;main.c: 245: else
 13121                           ;main.c: 246: {
 13122                           ;main.c: 247: vd_PilotageVariateurs();
 13123  1181  160A  118A  22D8   	fcall	_vd_PilotageVariateurs
              160A  118A         
 13124                           	line	252
 13125                           	
 13126  1186                     i1l5952:	
 13127                           ;main.c: 248: }
 13128                           ;main.c: 252: TMR0-=130;
 13129  1186  3082               	movlw	low(082h)
 13130  1187  0281               	subwf	(1),f	;volatile
 13131                           	line	253
 13132                           	
 13133  1188                     i1l5954:	
 13134                           ;main.c: 253: T0IF=0;
 13135  1188  110B               	bcf	(90/8),(90)&7	;volatile
 13136                           	line	276
 13137                           	
 13138  1189                     i1l5956:	
 13139                           ;main.c: 254: }
 13140                           ;main.c: 276: if(SSPIF)
 13141  1189  1283               	bcf	status, 5	;RP0=0, select bank0
 13142  118A  1303               	bcf	status, 6	;RP1=0, select bank0
 13143  118B  1D8C               	btfss	(99/8),(99)&7	;volatile
 13144  118C  298E               	goto	u744_21
 13145  118D  298F               	goto	u744_20
 13146  118E                     u744_21:
 13147  118E  299A               	goto	i1l658
 13148  118F                     u744_20:
 13149                           	line	278
 13150                           	
 13151  118F                     i1l5958:	
 13152                           ;main.c: 277: {
 13153                           ;main.c: 278: SSPIF = 0;
 13154  118F  118C               	bcf	(99/8),(99)&7	;volatile
 13155                           	line	280
 13156                           ;main.c: 280: if (SSPIE == 1)
 13157  1190  1683               	bsf	status, 5	;RP0=1, select bank1
 13158  1191  1D8C               	btfss	(1123/8)^080h,(1123)&7	;volatile
 13159  1192  2994               	goto	u745_21
 13160  1193  2995               	goto	u745_20
 13161  1194                     u745_21:
 13162  1194  299A               	goto	i1l658
 13163  1195                     u745_20:
 13164                           	line	283
 13165                           	
 13166  1195                     i1l5960:	
 13167                           ;main.c: 281: {
 13168                           ;main.c: 283: SSP_Handler();
 13169  1195  120A  158A  2352   	fcall	_SSP_Handler
              160A  118A         
 13170                           	line	287
 13171                           	
 13172  119A                     i1l658:	
 13173  119A  087B               	movf	(??_IT+2),w
 13174  119B  008A               	movwf	pclath
 13175  119C  087A               	movf	(??_IT+1),w
 13176  119D  0084               	movwf	fsr0
 13177  119E  0E79               	swapf	(??_IT+0)^0FFFFFF80h,w
 13178  119F  0083               	movwf	status
 13179  11A0  0EFE               	swapf	saved_w,f
 13180  11A1  0E7E               	swapf	saved_w,w
 13181  11A2  0009               	retfie
 13182                           	opt stack 0
 13183                           GLOBAL	__end_of_IT
 13184  11A3                     	__end_of_IT:
 13185                           	signat	_IT,88
 13186                           	global	_vd_PilotageVariateurs
 13187                           
 13188 ;; *************** function _vd_PilotageVariateurs *****************
 13189 ;; Defined at:
 13190 ;;		line 190 in file "../source/gestionsorties.c"
 13191 ;; Parameters:    Size  Location     Type
 13192 ;;		None
 13193 ;; Auto vars:     Size  Location     Type
 13194 ;;		None
 13195 ;; Return value:  Size  Location     Type
 13196 ;;		None               void
 13197 ;; Registers used:
 13198 ;;		wreg, fsr0l, fsr0h, status,2, status,0, pclath, cstack
 13199 ;; Tracked objects:
 13200 ;;		On entry : 60/0
 13201 ;;		On exit  : 160/0
 13202 ;;		Unchanged: 0/0
 13203 ;; Data sizes:     COMMON   BANK0   BANK3   BANK1   BANK2
 13204 ;;      Params:         0       0       0       0       0
 13205 ;;      Locals:         0       0       0       0       0
 13206 ;;      Temps:          2       0       0       0       0
 13207 ;;      Totals:         2       0       0       0       0
 13208 ;;Total ram usage:        2 bytes
 13209 ;; Hardware stack levels used:    1
 13210 ;; Hardware stack levels required when called:    1
 13211 ;; This function calls:
 13212 ;;		_vd_PiloteSortieVariateur
 13213 ;; This function is called by:
 13214 ;;		_IT
 13215 ;; This function uses a non-reentrant model
 13216 ;;
 13217                           psect	text36,local,class=CODE,delta=2,merge=1,inline
 13218                           	file	"../source/gestionsorties.c"
 13219                           	line	190
 13220                           global __ptext36
 13221  12D8                     __ptext36:	;psect for function _vd_PilotageVariateurs
 13222                           psect	text36
 13223                           	file	"../source/gestionsorties.c"
 13224                           	line	190
 13225                           	global	__size_of_vd_PilotageVariateurs
 13226  0045                     	__size_of_vd_PilotageVariateurs	equ	__end_of_vd_PilotageVariateurs-_vd_PilotageVariateu
                                 rs
 13227                           	
 13228  12D8                     _vd_PilotageVariateurs:	
 13229                           ;incstack = 0
 13230                           	opt	stack 1
 13231                           ; Regs used in _vd_PilotageVariateurs: [wreg-fsr0h+status,2+status,0+pclath+cstack]
 13232                           	line	194
 13233                           	
 13234  12D8                     i1l5124:	
 13235                           ;gestionsorties.c: 192: static unsigned char s_uc_NumVar =0;
 13236                           ;gestionsorties.c: 194: if (s_uc_NumVar >= uc_VARIATEUR_NB)
 13237  12D8  0847               	movf	(_uc_VARIATEUR_NB),w
 13238  12D9  024B               	subwf	(vd_PilotageVariateurs@s_uc_NumVar),w
 13239  12DA  1C03               	skipc
 13240  12DB  2ADD               	goto	u594_21
 13241  12DC  2ADE               	goto	u594_20
 13242  12DD                     u594_21:
 13243  12DD  2ADF               	goto	i1l5128
 13244  12DE                     u594_20:
 13245                           	line	195
 13246                           	
 13247  12DE                     i1l5126:	
 13248                           ;gestionsorties.c: 195: s_uc_NumVar = 0;
 13249  12DE  01CB               	clrf	(vd_PilotageVariateurs@s_uc_NumVar)
 13250                           	line	197
 13251                           	
 13252  12DF                     i1l5128:	
 13253                           ;gestionsorties.c: 197: if (us_CdeVariateurs[s_uc_NumVar] != 0)
 13254  12DF  1003               	clrc
 13255  12E0  0D4B               	rlf	(vd_PilotageVariateurs@s_uc_NumVar),w
 13256  12E1  3EE1               	addlw	_us_CdeVariateurs&0ffh
 13257  12E2  0084               	movwf	fsr0
 13258  12E3  1383               	bcf	status, 7	;select IRP bank1
 13259  12E4  0800               	movf	indf,w
 13260  12E5  0A84               	incf	fsr0,f
 13261  12E6  0400               	iorwf	indf,w
 13262  12E7  1903               	skipnz
 13263  12E8  2AEA               	goto	u595_21
 13264  12E9  2AEB               	goto	u595_20
 13265  12EA                     u595_21:
 13266  12EA  2B1B               	goto	i1l5138
 13267  12EB                     u595_20:
 13268                           	line	199
 13269                           	
 13270  12EB                     i1l5130:	
 13271                           ;gestionsorties.c: 198: {
 13272                           ;gestionsorties.c: 199: if ((us_CdeVariateurs[s_uc_NumVar] &1) != 0)
 13273  12EB  1003               	clrc
 13274  12EC  0D4B               	rlf	(vd_PilotageVariateurs@s_uc_NumVar),w
 13275  12ED  3EE1               	addlw	_us_CdeVariateurs&0ffh
 13276  12EE  0084               	movwf	fsr0
 13277  12EF  1C00               	btfss	indf,(0)&7
 13278  12F0  2AF2               	goto	u596_21
 13279  12F1  2AF3               	goto	u596_20
 13280  12F2                     u596_21:
 13281  12F2  2AFC               	goto	i1l5134
 13282  12F3                     u596_20:
 13283                           	line	202
 13284                           	
 13285  12F3                     i1l5132:	
 13286                           ;gestionsorties.c: 200: {
 13287                           ;gestionsorties.c: 202: vd_PiloteSortieVariateur(s_uc_NumVar,uc_ON);
 13288  12F3  01F0               	clrf	(vd_PiloteSortieVariateur@uc_Etat)
 13289  12F4  0AF0               	incf	(vd_PiloteSortieVariateur@uc_Etat),f
 13290  12F5  084B               	movf	(vd_PilotageVariateurs@s_uc_NumVar),w
 13291  12F6  160A  118A  2256   	fcall	_vd_PiloteSortieVariateur
              160A  118A         
 13292                           	line	203
 13293                           ;gestionsorties.c: 203: }
 13294  12FB  2B03               	goto	i1l5136
 13295                           	line	207
 13296                           	
 13297  12FC                     i1l5134:	
 13298                           ;gestionsorties.c: 204: else
 13299                           ;gestionsorties.c: 205: {
 13300                           ;gestionsorties.c: 207: vd_PiloteSortieVariateur(s_uc_NumVar,uc_OFF);
 13301  12FC  01F0               	clrf	(vd_PiloteSortieVariateur@uc_Etat)
 13302  12FD  084B               	movf	(vd_PilotageVariateurs@s_uc_NumVar),w
 13303  12FE  160A  118A  2256   	fcall	_vd_PiloteSortieVariateur
              160A  118A         
 13304                           	line	209
 13305                           	
 13306  1303                     i1l5136:	
 13307                           ;gestionsorties.c: 208: }
 13308                           ;gestionsorties.c: 209: us_CdeVariateurs[s_uc_NumVar] = us_CdeVariateurs[s_uc_NumVar] >>
                                 1;
 13309  1303  1283               	bcf	status, 5	;RP0=0, select bank0
 13310  1304  1303               	bcf	status, 6	;RP1=0, select bank0
 13311  1305  1003               	clrc
 13312  1306  0D4B               	rlf	(vd_PilotageVariateurs@s_uc_NumVar),w
 13313  1307  3EE1               	addlw	_us_CdeVariateurs&0ffh
 13314  1308  0084               	movwf	fsr0
 13315  1309  0800               	movf	indf,w
 13316  130A  00F2               	movwf	(??_vd_PilotageVariateurs+0)+0+0
 13317  130B  0A84               	incf	fsr0,f
 13318  130C  0800               	movf	indf,w
 13319  130D  00F3               	movwf	(??_vd_PilotageVariateurs+0)+0+1
 13320  130E  1003               	clrc
 13321  130F  0CF3               	rrf	(??_vd_PilotageVariateurs+0)+1,f
 13322  1310  0CF2               	rrf	(??_vd_PilotageVariateurs+0)+0,f
 13323  1311  1003               	clrc
 13324  1312  0D4B               	rlf	(vd_PilotageVariateurs@s_uc_NumVar),w
 13325  1313  3EE1               	addlw	_us_CdeVariateurs&0ffh
 13326  1314  0084               	movwf	fsr0
 13327  1315  0872               	movf	0+(??_vd_PilotageVariateurs+0)+0,w
 13328  1316  0080               	movwf	indf
 13329  1317  0A84               	incf	fsr0,f
 13330  1318  0873               	movf	1+(??_vd_PilotageVariateurs+0)+0,w
 13331  1319  0080               	movwf	indf
 13332                           	line	211
 13333                           ;gestionsorties.c: 211: }
 13334  131A  2B1C               	goto	i1l212
 13335                           	line	214
 13336                           	
 13337  131B                     i1l5138:	
 13338                           ;gestionsorties.c: 212: else
 13339                           ;gestionsorties.c: 213: {
 13340                           ;gestionsorties.c: 214: s_uc_NumVar ++;
 13341  131B  0ACB               	incf	(vd_PilotageVariateurs@s_uc_NumVar),f
 13342                           	line	216
 13343                           	
 13344  131C                     i1l212:	
 13345  131C  0008               	return
 13346                           	opt stack 0
 13347                           GLOBAL	__end_of_vd_PilotageVariateurs
 13348  131D                     	__end_of_vd_PilotageVariateurs:
 13349                           	signat	_vd_PilotageVariateurs,88
 13350                           	global	_vd_PiloteSortieVariateur
 13351                           
 13352 ;; *************** function _vd_PiloteSortieVariateur *****************
 13353 ;; Defined at:
 13354 ;;		line 544 in file "../source/hard.c"
 13355 ;; Parameters:    Size  Location     Type
 13356 ;;  uc_NumeroSor    1    wreg     unsigned char 
 13357 ;;  uc_Etat         1    0[COMMON] unsigned char 
 13358 ;; Auto vars:     Size  Location     Type
 13359 ;;  uc_NumeroSor    1    1[COMMON] unsigned char 
 13360 ;; Return value:  Size  Location     Type
 13361 ;;		None               void
 13362 ;; Registers used:
 13363 ;;		wreg, fsr0l, fsr0h, status,2, status,0
 13364 ;; Tracked objects:
 13365 ;;		On entry : 160/0
 13366 ;;		On exit  : 160/60
 13367 ;;		Unchanged: 100/0
 13368 ;; Data sizes:     COMMON   BANK0   BANK3   BANK1   BANK2
 13369 ;;      Params:         1       0       0       0       0
 13370 ;;      Locals:         1       0       0       0       0
 13371 ;;      Temps:          0       0       0       0       0
 13372 ;;      Totals:         2       0       0       0       0
 13373 ;;Total ram usage:        2 bytes
 13374 ;; Hardware stack levels used:    1
 13375 ;; This function calls:
 13376 ;;		Nothing
 13377 ;; This function is called by:
 13378 ;;		_vd_PilotageVariateurs
 13379 ;; This function uses a non-reentrant model
 13380 ;;
 13381                           psect	text37,local,class=CODE,delta=2,merge=1
 13382                           	file	"../source/hard.c"
 13383                           	line	544
 13384                           global __ptext37
 13385  1256                     __ptext37:	;psect for function _vd_PiloteSortieVariateur
 13386                           psect	text37
 13387                           	file	"../source/hard.c"
 13388                           	line	544
 13389                           	global	__size_of_vd_PiloteSortieVariateur
 13390  003F                     	__size_of_vd_PiloteSortieVariateur	equ	__end_of_vd_PiloteSortieVariateur-_vd_PiloteSort
                                 ieVariateur
 13391                           	
 13392  1256                     _vd_PiloteSortieVariateur:	
 13393                           ;incstack = 0
 13394                           	opt	stack 1
 13395                           ; Regs used in _vd_PiloteSortieVariateur: [wreg-fsr0h+status,2+status,0]
 13396                           ;vd_PiloteSortieVariateur@uc_NumeroSortie stored from wreg
 13397  1256  00F1               	movwf	(vd_PiloteSortieVariateur@uc_NumeroSortie)
 13398                           	line	547
 13399                           	
 13400  1257                     i1l4090:	
 13401                           ;hard.c: 547: switch(uc_NumeroSortie)
 13402  1257  2A78               	goto	i1l4102
 13403                           	line	549
 13404                           ;hard.c: 548: {
 13405                           ;hard.c: 549: case uc_VARIATEUR0:
 13406                           	
 13407  1258                     i1l529:	
 13408                           	line	550
 13409                           ;hard.c: 550: if(uc_Etat != 0)
 13410  1258  0870               	movf	(vd_PiloteSortieVariateur@uc_Etat),w
 13411  1259  1D03               	skipz
 13412  125A  2A5C               	goto	u453_20
 13413  125B  2A5E               	goto	i1l530
 13414  125C                     u453_20:
 13415                           	line	551
 13416                           	
 13417  125C                     i1l4092:	
 13418                           ;hard.c: 551: s_uc_PortB |= 0x02;
 13419  125C  14B5               	bsf	(_s_uc_PortB)+(1/8),(1)&7
 13420  125D  2A86               	goto	i1l4104
 13421                           	line	552
 13422                           	
 13423  125E                     i1l530:	
 13424                           	line	553
 13425                           ;hard.c: 552: else
 13426                           ;hard.c: 553: s_uc_PortB &= ~0x02;
 13427  125E  10B5               	bcf	(_s_uc_PortB)+(1/8),(1)&7
 13428  125F  2A86               	goto	i1l4104
 13429                           	line	555
 13430                           ;hard.c: 555: case uc_VARIATEUR1:
 13431                           	
 13432  1260                     i1l533:	
 13433                           	line	556
 13434                           ;hard.c: 556: if(uc_Etat != 0)
 13435  1260  0870               	movf	(vd_PiloteSortieVariateur@uc_Etat),w
 13436  1261  1D03               	skipz
 13437  1262  2A64               	goto	u454_20
 13438  1263  2A66               	goto	i1l534
 13439  1264                     u454_20:
 13440                           	line	557
 13441                           	
 13442  1264                     i1l4094:	
 13443                           ;hard.c: 557: s_uc_PortB |= 0x04;
 13444  1264  1535               	bsf	(_s_uc_PortB)+(2/8),(2)&7
 13445  1265  2A86               	goto	i1l4104
 13446                           	line	558
 13447                           	
 13448  1266                     i1l534:	
 13449                           	line	559
 13450                           ;hard.c: 558: else
 13451                           ;hard.c: 559: s_uc_PortB &= ~0x04;
 13452  1266  1135               	bcf	(_s_uc_PortB)+(2/8),(2)&7
 13453  1267  2A86               	goto	i1l4104
 13454                           	line	561
 13455                           ;hard.c: 561: case uc_VARIATEUR2:
 13456                           	
 13457  1268                     i1l536:	
 13458                           	line	562
 13459                           ;hard.c: 562: if(uc_Etat != 0)
 13460  1268  0870               	movf	(vd_PiloteSortieVariateur@uc_Etat),w
 13461  1269  1D03               	skipz
 13462  126A  2A6C               	goto	u455_20
 13463  126B  2A6E               	goto	i1l537
 13464  126C                     u455_20:
 13465                           	line	563
 13466                           	
 13467  126C                     i1l4096:	
 13468                           ;hard.c: 563: s_uc_PortF |= 0x80;
 13469  126C  17B9               	bsf	(_s_uc_PortF)+(7/8),(7)&7
 13470  126D  2A86               	goto	i1l4104
 13471                           	line	564
 13472                           	
 13473  126E                     i1l537:	
 13474                           	line	565
 13475                           ;hard.c: 564: else
 13476                           ;hard.c: 565: s_uc_PortF &= ~0x80;
 13477  126E  13B9               	bcf	(_s_uc_PortF)+(7/8),(7)&7
 13478  126F  2A86               	goto	i1l4104
 13479                           	line	567
 13480                           ;hard.c: 567: case uc_VARIATEUR3:
 13481                           	
 13482  1270                     i1l539:	
 13483                           	line	568
 13484                           ;hard.c: 568: if(uc_Etat != 0)
 13485  1270  0870               	movf	(vd_PiloteSortieVariateur@uc_Etat),w
 13486  1271  1D03               	skipz
 13487  1272  2A74               	goto	u456_20
 13488  1273  2A76               	goto	i1l540
 13489  1274                     u456_20:
 13490                           	line	569
 13491                           	
 13492  1274                     i1l4098:	
 13493                           ;hard.c: 569: s_uc_PortC |= 0x01;
 13494  1274  1436               	bsf	(_s_uc_PortC)+(0/8),(0)&7
 13495  1275  2A86               	goto	i1l4104
 13496                           	line	570
 13497                           	
 13498  1276                     i1l540:	
 13499                           	line	571
 13500                           ;hard.c: 570: else
 13501                           ;hard.c: 571: s_uc_PortC &= ~0x01;
 13502  1276  1036               	bcf	(_s_uc_PortC)+(0/8),(0)&7
 13503  1277  2A86               	goto	i1l4104
 13504                           	line	547
 13505                           	
 13506  1278                     i1l4102:	
 13507  1278  0871               	movf	(vd_PiloteSortieVariateur@uc_NumeroSortie),w
 13508                           	; Switch size 1, requested type "space"
 13509                           ; Number of cases is 4, Range of values is 0 to 3
 13510                           ; switch strategies available:
 13511                           ; Name         Instructions Cycles
 13512                           ; simple_byte           13     7 (average)
 13513                           ; direct_byte           20     8 (fixed)
 13514                           ; jumptable            260     6 (fixed)
 13515                           ;	Chosen strategy is simple_byte
 13516                           
 13517                           	opt asmopt_off
 13518  1279  3A00               	xorlw	0^0	; case 0
 13519  127A  1903               	skipnz
 13520  127B  2A58               	goto	i1l529
 13521  127C  3A01               	xorlw	1^0	; case 1
 13522  127D  1903               	skipnz
 13523  127E  2A60               	goto	i1l533
 13524  127F  3A03               	xorlw	2^1	; case 2
 13525  1280  1903               	skipnz
 13526  1281  2A68               	goto	i1l536
 13527  1282  3A01               	xorlw	3^2	; case 3
 13528  1283  1903               	skipnz
 13529  1284  2A70               	goto	i1l539
 13530  1285  2A86               	goto	i1l4104
 13531                           	opt asmopt_on
 13532                           
 13533                           	line	574
 13534                           	
 13535  1286                     i1l4104:	
 13536                           ;hard.c: 574: PORTA = s_uc_PortA;
 13537  1286  0834               	movf	(_s_uc_PortA),w
 13538  1287  0085               	movwf	(5)	;volatile
 13539                           	line	575
 13540                           ;hard.c: 575: PORTB = s_uc_PortB;
 13541  1288  0835               	movf	(_s_uc_PortB),w
 13542  1289  0086               	movwf	(6)	;volatile
 13543                           	line	576
 13544                           ;hard.c: 576: PORTC = s_uc_PortC;
 13545  128A  0836               	movf	(_s_uc_PortC),w
 13546  128B  0087               	movwf	(7)	;volatile
 13547                           	line	577
 13548                           ;hard.c: 577: PORTD = s_uc_PortD;
 13549  128C  0837               	movf	(_s_uc_PortD),w
 13550  128D  0088               	movwf	(8)	;volatile
 13551                           	line	578
 13552                           ;hard.c: 578: PORTE = s_uc_PortE;
 13553  128E  0838               	movf	(_s_uc_PortE),w
 13554  128F  0089               	movwf	(9)	;volatile
 13555                           	line	579
 13556                           ;hard.c: 579: PORTF = s_uc_PortF;
 13557  1290  0839               	movf	(_s_uc_PortF),w
 13558  1291  1683               	bsf	status, 5	;RP0=1, select bank3
 13559  1292  1703               	bsf	status, 6	;RP1=1, select bank3
 13560  1293  0088               	movwf	(392)^0180h	;volatile
 13561                           	line	581
 13562                           	
 13563  1294                     i1l542:	
 13564  1294  0008               	return
 13565                           	opt stack 0
 13566                           GLOBAL	__end_of_vd_PiloteSortieVariateur
 13567  1295                     	__end_of_vd_PiloteSortieVariateur:
 13568                           	signat	_vd_PiloteSortieVariateur,8312
 13569                           	global	_SSP_Handler
 13570                           
 13571 ;; *************** function _SSP_Handler *****************
 13572 ;; Defined at:
 13573 ;;		line 133 in file "../source/slavenode.c"
 13574 ;; Parameters:    Size  Location     Type
 13575 ;;		None
 13576 ;; Auto vars:     Size  Location     Type
 13577 ;;  l_us_CRCRecu    2    0[BANK0 ] unsigned short 
 13578 ;;  j               1    3[BANK0 ] unsigned char 
 13579 ;;  i               1    2[BANK0 ] unsigned char 
 13580 ;; Return value:  Size  Location     Type
 13581 ;;		None               void
 13582 ;; Registers used:
 13583 ;;		wreg, fsr0l, fsr0h, status,2, status,0, pclath, cstack
 13584 ;; Tracked objects:
 13585 ;;		On entry : 60/20
 13586 ;;		On exit  : 0/0
 13587 ;;		Unchanged: 0/0
 13588 ;; Data sizes:     COMMON   BANK0   BANK3   BANK1   BANK2
 13589 ;;      Params:         0       0       0       0       0
 13590 ;;      Locals:         0       4       0       0       0
 13591 ;;      Temps:          1       0       0       0       0
 13592 ;;      Totals:         1       4       0       0       0
 13593 ;;Total ram usage:        5 bytes
 13594 ;; Hardware stack levels used:    1
 13595 ;; Hardware stack levels required when called:    2
 13596 ;; This function calls:
 13597 ;;		_ReadI2C
 13598 ;;		_WriteI2C
 13599 ;;		_us_CalculerCRCSurTrame
 13600 ;; This function is called by:
 13601 ;;		_IT
 13602 ;; This function uses a non-reentrant model
 13603 ;;
 13604                           psect	text38,local,class=CODE,delta=2,merge=1
 13605                           	file	"../source/slavenode.c"
 13606                           	line	133
 13607                           global __ptext38
 13608  0B52                     __ptext38:	;psect for function _SSP_Handler
 13609                           psect	text38
 13610                           	file	"../source/slavenode.c"
 13611                           	line	133
 13612                           	global	__size_of_SSP_Handler
 13613  0169                     	__size_of_SSP_Handler	equ	__end_of_SSP_Handler-_SSP_Handler
 13614                           	
 13615  0B52                     _SSP_Handler:	
 13616                           ;incstack = 0
 13617                           	opt	stack 0
 13618                           ; Regs used in _SSP_Handler: [wreg-fsr0h+status,2+status,0+pclath+cstack]
 13619                           	line	138
 13620                           	
 13621  0B52                     i1l5784:	
 13622                           ;slavenode.c: 135: unsigned char i,j;
 13623                           ;slavenode.c: 136: unsigned short l_us_CRCRecu;
 13624                           ;slavenode.c: 138: I2CStat.b = SSPSTAT;
 13625  0B52  0814               	movf	(148)^080h,w	;volatile
 13626  0B53  00FC               	movwf	(_I2CStat)
 13627                           	line	139
 13628                           ;slavenode.c: 139: uc_I2C_activity = 60;
 13629  0B54  303C               	movlw	(03Ch)
 13630  0B55  1283               	bcf	status, 5	;RP0=0, select bank0
 13631  0B56  00C3               	movwf	(_uc_I2C_activity)
 13632                           	line	145
 13633                           	
 13634  0B57                     i1l5786:	
 13635                           ;slavenode.c: 145: if(!I2CStat.b_stat.D_nA && !I2CStat.b_stat.R_nW && I2CStat.b_stat.BF 
                                 && I2CStat.b_stat.S)
 13636  0B57  1AFC               	btfsc	(_I2CStat),5
 13637  0B58  2B5A               	goto	u713_21
 13638  0B59  2B5B               	goto	u713_20
 13639  0B5A                     u713_21:
 13640  0B5A  2B80               	goto	i1l939
 13641  0B5B                     u713_20:
 13642                           	
 13643  0B5B                     i1l5788:	
 13644  0B5B  197C               	btfsc	(_I2CStat),2
 13645  0B5C  2B5E               	goto	u714_21
 13646  0B5D  2B5F               	goto	u714_20
 13647  0B5E                     u714_21:
 13648  0B5E  2B80               	goto	i1l939
 13649  0B5F                     u714_20:
 13650                           	
 13651  0B5F                     i1l5790:	
 13652  0B5F  1C7C               	btfss	(_I2CStat),0
 13653  0B60  2B62               	goto	u715_21
 13654  0B61  2B63               	goto	u715_20
 13655  0B62                     u715_21:
 13656  0B62  2B80               	goto	i1l939
 13657  0B63                     u715_20:
 13658                           	
 13659  0B63                     i1l5792:	
 13660  0B63  1DFC               	btfss	(_I2CStat),3
 13661  0B64  2B66               	goto	u716_21
 13662  0B65  2B67               	goto	u716_20
 13663  0B66                     u716_21:
 13664  0B66  2B80               	goto	i1l939
 13665  0B67                     u716_20:
 13666                           	line	150
 13667                           	
 13668  0B67                     i1l5794:	
 13669                           # 150 "../source/slavenode.c"
 13670  0B67  0064               clrwdt ;# 
 13671                           psect	text38
 13672                           	line	154
 13673                           	
 13674  0B68                     i1l5796:	
 13675                           ;slavenode.c: 154: RXByteCount = 25;
 13676  0B68  3019               	movlw	(019h)
 13677  0B69  1283               	bcf	status, 5	;RP0=0, select bank0
 13678  0B6A  1303               	bcf	status, 6	;RP1=0, select bank0
 13679  0B6B  00AF               	movwf	(_RXByteCount)
 13680                           	line	155
 13681                           	
 13682  0B6C                     i1l5798:	
 13683                           ;slavenode.c: 155: RXBuffer[0] = ReadI2C();
 13684  0B6C  160A  118A  2002   	fcall	_ReadI2C
              120A  158A         
 13685  0B71  1703               	bsf	status, 6	;RP1=1, select bank2
 13686  0B72  00AC               	movwf	(_RXBuffer)^0100h
 13687                           	line	159
 13688                           	
 13689  0B73                     i1l5800:	
 13690                           ;slavenode.c: 159: RXBufferIndex =1;
 13691  0B73  01FD               	clrf	(_RXBufferIndex)
 13692  0B74  0AFD               	incf	(_RXBufferIndex),f
 13693                           	line	160
 13694                           	
 13695  0B75                     i1l5802:	
 13696                           ;slavenode.c: 160: TxBuf.b[0] = 0;
 13697  0B75  1303               	bcf	status, 6	;RP1=0, select bank0
 13698  0B76  01CC               	clrf	(_TxBuf)
 13699                           	line	162
 13700                           	
 13701  0B77                     i1l5804:	
 13702                           ;slavenode.c: 162: TxBuf.b[1] = 0x00;
 13703  0B77  01CD               	clrf	0+(_TxBuf)+01h
 13704                           	line	164
 13705                           	
 13706  0B78                     i1l5806:	
 13707                           ;slavenode.c: 164: if(SSPOV)
 13708  0B78  1F14               	btfss	(166/8),(166)&7	;volatile
 13709  0B79  2B7B               	goto	u717_21
 13710  0B7A  2B7C               	goto	u717_20
 13711  0B7B                     u717_21:
 13712  0B7B  2CBA               	goto	i1l982
 13713  0B7C                     u717_20:
 13714                           	line	166
 13715                           	
 13716  0B7C                     i1l5808:	
 13717                           ;slavenode.c: 165: {
 13718                           ;slavenode.c: 166: TxBuf.comm_stat.sspov = 1;
 13719  0B7C  15CD               	bsf	0+(_TxBuf)+01h,3
 13720                           	line	167
 13721                           ;slavenode.c: 167: TxBuf.comm_stat.rxerror = 1;
 13722  0B7D  14CD               	bsf	0+(_TxBuf)+01h,1
 13723                           	line	168
 13724                           ;slavenode.c: 168: SSPOV = 0;
 13725  0B7E  1314               	bcf	(166/8),(166)&7	;volatile
 13726  0B7F  2CBA               	goto	i1l982
 13727                           	line	175
 13728                           	
 13729  0B80                     i1l939:	
 13730                           ;slavenode.c: 175: else if(I2CStat.b_stat.D_nA && !I2CStat.b_stat.R_nW && I2CStat.b_stat
                                 .BF)
 13731  0B80  1EFC               	btfss	(_I2CStat),5
 13732  0B81  2B83               	goto	u718_21
 13733  0B82  2B84               	goto	u718_20
 13734  0B83                     u718_21:
 13735  0B83  2C41               	goto	i1l942
 13736  0B84                     u718_20:
 13737                           	
 13738  0B84                     i1l5810:	
 13739  0B84  197C               	btfsc	(_I2CStat),2
 13740  0B85  2B87               	goto	u719_21
 13741  0B86  2B88               	goto	u719_20
 13742  0B87                     u719_21:
 13743  0B87  2C41               	goto	i1l942
 13744  0B88                     u719_20:
 13745                           	
 13746  0B88                     i1l5812:	
 13747  0B88  1C7C               	btfss	(_I2CStat),0
 13748  0B89  2B8B               	goto	u720_21
 13749  0B8A  2B8C               	goto	u720_20
 13750  0B8B                     u720_21:
 13751  0B8B  2C41               	goto	i1l942
 13752  0B8C                     u720_20:
 13753                           	line	178
 13754                           	
 13755  0B8C                     i1l5814:	
 13756                           ;slavenode.c: 176: {
 13757                           ;slavenode.c: 178: if(RXBufferIndex == 25)
 13758  0B8C  087D               	movf	(_RXBufferIndex),w
 13759  0B8D  3A19               	xorlw	019h
 13760  0B8E  1D03               	skipz
 13761  0B8F  2B91               	goto	u721_21
 13762  0B90  2B92               	goto	u721_20
 13763  0B91                     u721_21:
 13764  0B91  2B96               	goto	i1l5820
 13765  0B92                     u721_20:
 13766                           	line	180
 13767                           	
 13768  0B92                     i1l5816:	
 13769                           ;slavenode.c: 179: {
 13770                           ;slavenode.c: 180: TxBuf.comm_stat.ovflw = 1;
 13771  0B92  154D               	bsf	0+(_TxBuf)+01h,2
 13772                           	line	181
 13773                           ;slavenode.c: 181: TxBuf.comm_stat.rxerror = 1;
 13774  0B93  14CD               	bsf	0+(_TxBuf)+01h,1
 13775                           	line	182
 13776                           	
 13777  0B94                     i1l5818:	
 13778                           ;slavenode.c: 182: RXBufferIndex = 25 - 1;
 13779  0B94  3018               	movlw	(018h)
 13780  0B95  00FD               	movwf	(_RXBufferIndex)
 13781                           	line	185
 13782                           	
 13783  0B96                     i1l5820:	
 13784                           ;slavenode.c: 183: }
 13785                           ;slavenode.c: 185: if(SSPOV)
 13786  0B96  1F14               	btfss	(166/8),(166)&7	;volatile
 13787  0B97  2B99               	goto	u722_21
 13788  0B98  2B9A               	goto	u722_20
 13789  0B99                     u722_21:
 13790  0B99  2B9D               	goto	i1l5824
 13791  0B9A                     u722_20:
 13792                           	line	187
 13793                           	
 13794  0B9A                     i1l5822:	
 13795                           ;slavenode.c: 186: {
 13796                           ;slavenode.c: 187: TxBuf.comm_stat.sspov = 1;
 13797  0B9A  15CD               	bsf	0+(_TxBuf)+01h,3
 13798                           	line	188
 13799                           ;slavenode.c: 188: TxBuf.comm_stat.rxerror = 1;
 13800  0B9B  14CD               	bsf	0+(_TxBuf)+01h,1
 13801                           	line	189
 13802                           ;slavenode.c: 189: SSPOV = 0;
 13803  0B9C  1314               	bcf	(166/8),(166)&7	;volatile
 13804                           	line	192
 13805                           	
 13806  0B9D                     i1l5824:	
 13807                           ;slavenode.c: 190: }
 13808                           ;slavenode.c: 192: RXBuffer[RXBufferIndex] = ReadI2C();
 13809  0B9D  087D               	movf	(_RXBufferIndex),w
 13810  0B9E  3E2C               	addlw	_RXBuffer&0ffh
 13811  0B9F  0084               	movwf	fsr0
 13812  0BA0  160A  118A  2002   	fcall	_ReadI2C
              120A  158A         
 13813  0BA5  1783               	bsf	status, 7	;select IRP bank2
 13814  0BA6  0080               	movwf	indf
 13815                           	line	197
 13816                           	
 13817  0BA7                     i1l5826:	
 13818                           ;slavenode.c: 197: if(RXBufferIndex == 1)
 13819  0BA7  037D               	decf	(_RXBufferIndex),w
 13820  0BA8  1D03               	skipz
 13821  0BA9  2BAB               	goto	u723_21
 13822  0BAA  2BAC               	goto	u723_20
 13823  0BAB                     u723_21:
 13824  0BAB  2BDC               	goto	i1l5852
 13825  0BAC                     u723_20:
 13826  0BAC  2BB9               	goto	i1l5842
 13827                           	line	204
 13828                           	
 13829  0BAD                     i1l5830:	
 13830                           ;slavenode.c: 204: RXByteCount = 11;
 13831  0BAD  300B               	movlw	(0Bh)
 13832  0BAE  00AF               	movwf	(_RXByteCount)
 13833                           	line	205
 13834                           ;slavenode.c: 205: break;
 13835  0BAF  2BCD               	goto	i1l5844
 13836                           	line	212
 13837                           	
 13838  0BB0                     i1l5834:	
 13839                           ;slavenode.c: 212: RXByteCount = 19;
 13840  0BB0  3013               	movlw	(013h)
 13841  0BB1  00AF               	movwf	(_RXByteCount)
 13842                           	line	213
 13843                           ;slavenode.c: 213: break;
 13844  0BB2  2BCD               	goto	i1l5844
 13845                           	line	218
 13846                           	
 13847  0BB3                     i1l5838:	
 13848                           ;slavenode.c: 218: RXByteCount = 4;
 13849  0BB3  3004               	movlw	(04h)
 13850  0BB4  00AF               	movwf	(_RXByteCount)
 13851                           	line	219
 13852                           ;slavenode.c: 219: break;
 13853  0BB5  2BCD               	goto	i1l5844
 13854                           	line	220
 13855                           ;slavenode.c: 220: default :
 13856                           	
 13857  0BB6                     i1l953:	
 13858                           	line	221
 13859                           ;slavenode.c: 221: TxBuf.comm_stat.ovflw = 1;
 13860  0BB6  154D               	bsf	0+(_TxBuf)+01h,2
 13861                           	line	222
 13862                           ;slavenode.c: 222: TxBuf.comm_stat.rxerror = 1;
 13863  0BB7  14CD               	bsf	0+(_TxBuf)+01h,1
 13864                           	line	223
 13865                           ;slavenode.c: 223: break;
 13866  0BB8  2BCD               	goto	i1l5844
 13867                           	line	201
 13868                           	
 13869  0BB9                     i1l5842:	
 13870  0BB9  087D               	movf	(_RXBufferIndex),w
 13871  0BBA  3E2C               	addlw	_RXBuffer&0ffh
 13872  0BBB  0084               	movwf	fsr0
 13873  0BBC  0800               	movf	indf,w
 13874                           	; Switch size 1, requested type "space"
 13875                           ; Number of cases is 5, Range of values is 1 to 5
 13876                           ; switch strategies available:
 13877                           ; Name         Instructions Cycles
 13878                           ; simple_byte           16     9 (average)
 13879                           ; direct_byte           26    11 (fixed)
 13880                           ; jumptable            263     9 (fixed)
 13881                           ;	Chosen strategy is simple_byte
 13882                           
 13883                           	opt asmopt_off
 13884  0BBD  3A01               	xorlw	1^0	; case 1
 13885  0BBE  1903               	skipnz
 13886  0BBF  2BAD               	goto	i1l5830
 13887  0BC0  3A03               	xorlw	2^1	; case 2
 13888  0BC1  1903               	skipnz
 13889  0BC2  2BAD               	goto	i1l5830
 13890  0BC3  3A01               	xorlw	3^2	; case 3
 13891  0BC4  1903               	skipnz
 13892  0BC5  2BB0               	goto	i1l5834
 13893  0BC6  3A07               	xorlw	4^3	; case 4
 13894  0BC7  1903               	skipnz
 13895  0BC8  2BAD               	goto	i1l5830
 13896  0BC9  3A01               	xorlw	5^4	; case 5
 13897  0BCA  1903               	skipnz
 13898  0BCB  2BB3               	goto	i1l5838
 13899  0BCC  2BB6               	goto	i1l953
 13900                           	opt asmopt_on
 13901                           
 13902                           	line	226
 13903                           	
 13904  0BCD                     i1l5844:	
 13905                           ;slavenode.c: 226: TxBuf.b[0] = RXBuffer[RXBufferIndex];
 13906  0BCD  087D               	movf	(_RXBufferIndex),w
 13907  0BCE  3E2C               	addlw	_RXBuffer&0ffh
 13908  0BCF  0084               	movwf	fsr0
 13909  0BD0  0800               	movf	indf,w
 13910  0BD1  00CC               	movwf	(_TxBuf)
 13911                           	line	227
 13912                           	
 13913  0BD2                     i1l5846:	
 13914                           ;slavenode.c: 227: TxBuf.comm_stat.r_w = 0;
 13915  0BD2  13CD               	bcf	0+(_TxBuf)+01h,7
 13916                           	line	228
 13917                           	
 13918  0BD3                     i1l5848:	
 13919                           ;slavenode.c: 228: if(RXByteCount > 25)
 13920  0BD3  301A               	movlw	(01Ah)
 13921  0BD4  022F               	subwf	(_RXByteCount),w
 13922  0BD5  1C03               	skipc
 13923  0BD6  2BD8               	goto	u724_21
 13924  0BD7  2BD9               	goto	u724_20
 13925  0BD8                     u724_21:
 13926  0BD8  2C3F               	goto	i1l5888
 13927  0BD9                     u724_20:
 13928                           	line	230
 13929                           	
 13930  0BD9                     i1l5850:	
 13931                           ;slavenode.c: 229: {
 13932                           ;slavenode.c: 230: TxBuf.comm_stat.ovflw = 1;
 13933  0BD9  154D               	bsf	0+(_TxBuf)+01h,2
 13934                           	line	231
 13935                           ;slavenode.c: 231: TxBuf.comm_stat.rxerror = 1;
 13936  0BDA  14CD               	bsf	0+(_TxBuf)+01h,1
 13937  0BDB  2C3F               	goto	i1l5888
 13938                           	line	234
 13939                           	
 13940  0BDC                     i1l5852:	
 13941                           ;slavenode.c: 234: else if(RXBufferIndex > RXByteCount)
 13942  0BDC  087D               	movf	(_RXBufferIndex),w
 13943  0BDD  022F               	subwf	(_RXByteCount),w
 13944  0BDE  1803               	skipnc
 13945  0BDF  2BE1               	goto	u725_21
 13946  0BE0  2BE2               	goto	u725_20
 13947  0BE1                     u725_21:
 13948  0BE1  2BE3               	goto	i1l5856
 13949  0BE2                     u725_20:
 13950  0BE2  2BD9               	goto	i1l5850
 13951                           	line	242
 13952                           	
 13953  0BE3                     i1l5856:	
 13954                           ;slavenode.c: 242: else if(RXBufferIndex == RXByteCount)
 13955  0BE3  087D               	movf	(_RXBufferIndex),w
 13956  0BE4  062F               	xorwf	(_RXByteCount),w
 13957  0BE5  1D03               	skipz
 13958  0BE6  2BE8               	goto	u726_21
 13959  0BE7  2BE9               	goto	u726_20
 13960  0BE8                     u726_21:
 13961  0BE8  2C3F               	goto	i1l5888
 13962  0BE9                     u726_20:
 13963                           	line	245
 13964                           	
 13965  0BE9                     i1l5858:	
 13966                           ;slavenode.c: 243: {
 13967                           ;slavenode.c: 245: us_CRC = us_CalculerCRCSurTrame(RXBuffer+1,RXBufferIndex-2);
 13968  0BE9  302D               	movlw	(_RXBuffer+01h&0ffh)
 13969  0BEA  00F3               	movwf	(us_CalculerCRCSurTrame@uc_Buffer)
 13970  0BEB  3001               	movlw	(0x2/2)
 13971  0BEC  00F4               	movwf	(us_CalculerCRCSurTrame@uc_Buffer+1)
 13972  0BED  087D               	movf	(_RXBufferIndex),w
 13973  0BEE  3EFE               	addlw	0FEh
 13974  0BEF  00F5               	movwf	(us_CalculerCRCSurTrame@uc_NbOctets)
 13975  0BF0  160A  118A  20E0   	fcall	_us_CalculerCRCSurTrame
              120A  158A         
 13976  0BF5  0874               	movf	(1+(?_us_CalculerCRCSurTrame)),w
 13977  0BF6  00A9               	movwf	(_us_CRC+1)
 13978  0BF7  0873               	movf	(0+(?_us_CalculerCRCSurTrame)),w
 13979  0BF8  00A8               	movwf	(_us_CRC)
 13980                           	line	246
 13981                           	
 13982  0BF9                     i1l5860:	
 13983                           ;slavenode.c: 246: l_us_CRCRecu = (RXBuffer[RXBufferIndex] << 8) + RXBuffer[RXBufferInde
                                 x-1];
 13984  0BF9  087D               	movf	(_RXBufferIndex),w
 13985  0BFA  3E2B               	addlw	_RXBuffer+0FFh&0ffh
 13986  0BFB  0084               	movwf	fsr
 13987  0BFC  1783               	bsf	status, 7	;select IRP bank2
 13988  0BFD  0800               	movf	indf,w
 13989  0BFE  00F8               	movwf	(??_SSP_Handler+0)+0
 13990  0BFF  087D               	movf	(_RXBufferIndex),w
 13991  0C00  3E2C               	addlw	_RXBuffer&0ffh
 13992  0C01  0084               	movwf	fsr0
 13993  0C02  0800               	movf	indf,w
 13994  0C03  00D1               	movwf	(SSP_Handler@l_us_CRCRecu+1)
 13995  0C04  0878               	movf	(??_SSP_Handler+0)+0,w
 13996  0C05  00D0               	movwf	(SSP_Handler@l_us_CRCRecu)
 13997                           	line	247
 13998                           	
 13999  0C06                     i1l5862:	
 14000                           ;slavenode.c: 247: if(us_CRC != l_us_CRCRecu)
 14001  0C06  0851               	movf	(SSP_Handler@l_us_CRCRecu+1),w
 14002  0C07  0629               	xorwf	(_us_CRC+1),w
 14003  0C08  1D03               	skipz
 14004  0C09  2C0C               	goto	u727_25
 14005  0C0A  0850               	movf	(SSP_Handler@l_us_CRCRecu),w
 14006  0C0B  0628               	xorwf	(_us_CRC),w
 14007  0C0C                     u727_25:
 14008                           
 14009  0C0C  1903               	skipnz
 14010  0C0D  2C0F               	goto	u727_21
 14011  0C0E  2C10               	goto	u727_20
 14012  0C0F                     u727_21:
 14013  0C0F  2C17               	goto	i1l959
 14014  0C10                     u727_20:
 14015                           	line	249
 14016                           	
 14017  0C10                     i1l5864:	
 14018                           ;slavenode.c: 248: {
 14019                           ;slavenode.c: 249: us_CRC = 0;
 14020  0C10  01A8               	clrf	(_us_CRC)
 14021  0C11  01A9               	clrf	(_us_CRC+1)
 14022                           	line	250
 14023                           	
 14024  0C12                     i1l5866:	
 14025                           ;slavenode.c: 250: TxBuf.comm_stat.chkfail = 1;
 14026  0C12  144D               	bsf	0+(_TxBuf)+01h,0
 14027                           	line	251
 14028                           	
 14029  0C13                     i1l5868:	
 14030                           ;slavenode.c: 251: TxBuf.comm_stat.rxerror = 1;
 14031  0C13  1283               	bcf	status, 5	;RP0=0, select bank0
 14032  0C14  1303               	bcf	status, 6	;RP1=0, select bank0
 14033  0C15  14CD               	bsf	0+(_TxBuf)+01h,1
 14034                           	line	252
 14035                           ;slavenode.c: 252: }
 14036  0C16  2C3F               	goto	i1l5888
 14037                           	line	253
 14038                           	
 14039  0C17                     i1l959:	
 14040                           	line	256
 14041                           ;slavenode.c: 253: else
 14042                           ;slavenode.c: 254: {
 14043                           ;slavenode.c: 256: TxBuf.comm_stat.chkfail = 0;
 14044  0C17  104D               	bcf	0+(_TxBuf)+01h,0
 14045                           	line	258
 14046                           	
 14047  0C18                     i1l5870:	
 14048                           ;slavenode.c: 258: if (CmdBuf[0] == 0)
 14049  0C18  1683               	bsf	status, 5	;RP0=1, select bank3
 14050  0C19  1703               	bsf	status, 6	;RP1=1, select bank3
 14051  0C1A  08BA               	movf	(_CmdBuf)^0180h,f
 14052  0C1B  1D03               	skipz
 14053  0C1C  2C1E               	goto	u728_21
 14054  0C1D  2C1F               	goto	u728_20
 14055  0C1E                     u728_21:
 14056  0C1E  2C13               	goto	i1l5868
 14057  0C1F                     u728_20:
 14058                           	line	262
 14059                           	
 14060  0C1F                     i1l5872:	
 14061                           ;slavenode.c: 259: {
 14062                           ;slavenode.c: 262: for(i=1, j = 0; i <= RXBufferIndex; i++,j++)
 14063  0C1F  1283               	bcf	status, 5	;RP0=0, select bank0
 14064  0C20  1303               	bcf	status, 6	;RP1=0, select bank0
 14065  0C21  01D2               	clrf	(SSP_Handler@i)
 14066  0C22  0AD2               	incf	(SSP_Handler@i),f
 14067                           	
 14068  0C23                     i1l5874:	
 14069  0C23  01D3               	clrf	(SSP_Handler@j)
 14070  0C24  2C38               	goto	i1l5886
 14071                           	line	264
 14072                           	
 14073  0C25                     i1l5876:	
 14074                           ;slavenode.c: 263: {
 14075                           ;slavenode.c: 264: if(j == 25) j--;
 14076  0C25  0853               	movf	(SSP_Handler@j),w
 14077  0C26  3A19               	xorlw	019h
 14078  0C27  1D03               	skipz
 14079  0C28  2C2A               	goto	u729_21
 14080  0C29  2C2B               	goto	u729_20
 14081  0C2A                     u729_21:
 14082  0C2A  2C2C               	goto	i1l5880
 14083  0C2B                     u729_20:
 14084                           	
 14085  0C2B                     i1l5878:	
 14086  0C2B  03D3               	decf	(SSP_Handler@j),f
 14087                           	line	265
 14088                           	
 14089  0C2C                     i1l5880:	
 14090                           ;slavenode.c: 265: CmdBuf[j] = RXBuffer[i];
 14091  0C2C  0852               	movf	(SSP_Handler@i),w
 14092  0C2D  3E2C               	addlw	_RXBuffer&0ffh
 14093  0C2E  0084               	movwf	fsr0
 14094  0C2F  0800               	movf	indf,w
 14095  0C30  00F8               	movwf	(??_SSP_Handler+0)+0
 14096  0C31  0853               	movf	(SSP_Handler@j),w
 14097  0C32  3EBA               	addlw	_CmdBuf&0ffh
 14098  0C33  0084               	movwf	fsr0
 14099  0C34  0878               	movf	(??_SSP_Handler+0)+0,w
 14100  0C35  0080               	movwf	indf
 14101                           	line	262
 14102                           	
 14103  0C36                     i1l5882:	
 14104  0C36  0AD2               	incf	(SSP_Handler@i),f
 14105                           	
 14106  0C37                     i1l5884:	
 14107  0C37  0AD3               	incf	(SSP_Handler@j),f
 14108                           	
 14109  0C38                     i1l5886:	
 14110  0C38  0852               	movf	(SSP_Handler@i),w
 14111  0C39  027D               	subwf	(_RXBufferIndex),w
 14112  0C3A  1803               	skipnc
 14113  0C3B  2C3D               	goto	u730_21
 14114  0C3C  2C3E               	goto	u730_20
 14115  0C3D                     u730_21:
 14116  0C3D  2C25               	goto	i1l5876
 14117  0C3E                     u730_20:
 14118                           	
 14119  0C3E                     i1l965:	
 14120                           	line	267
 14121                           ;slavenode.c: 266: }
 14122                           ;slavenode.c: 267: TxBuf.comm_stat.rxerror = 0;
 14123  0C3E  10CD               	bcf	0+(_TxBuf)+01h,1
 14124                           	line	280
 14125                           ;slavenode.c: 269: }
 14126                           	
 14127  0C3F                     i1l5888:	
 14128                           ;slavenode.c: 280: RXBufferIndex++;
 14129  0C3F  0AFD               	incf	(_RXBufferIndex),f
 14130                           	line	281
 14131                           ;slavenode.c: 281: }
 14132  0C40  2CBA               	goto	i1l982
 14133                           	line	286
 14134                           	
 14135  0C41                     i1l942:	
 14136                           ;slavenode.c: 286: else if(!I2CStat.b_stat.D_nA && I2CStat.b_stat.R_nW && !I2CStat.b_sta
                                 t.BF && I2CStat.b_stat.S)
 14137  0C41  1AFC               	btfsc	(_I2CStat),5
 14138  0C42  2C44               	goto	u731_21
 14139  0C43  2C45               	goto	u731_20
 14140  0C44                     u731_21:
 14141  0C44  2C59               	goto	i1l969
 14142  0C45                     u731_20:
 14143                           	
 14144  0C45                     i1l5890:	
 14145  0C45  1D7C               	btfss	(_I2CStat),2
 14146  0C46  2C48               	goto	u732_21
 14147  0C47  2C49               	goto	u732_20
 14148  0C48                     u732_21:
 14149  0C48  2C59               	goto	i1l969
 14150  0C49                     u732_20:
 14151                           	
 14152  0C49                     i1l5892:	
 14153  0C49  187C               	btfsc	(_I2CStat),0
 14154  0C4A  2C4C               	goto	u733_21
 14155  0C4B  2C4D               	goto	u733_20
 14156  0C4C                     u733_21:
 14157  0C4C  2C59               	goto	i1l969
 14158  0C4D                     u733_20:
 14159                           	
 14160  0C4D                     i1l5894:	
 14161  0C4D  1DFC               	btfss	(_I2CStat),3
 14162  0C4E  2C50               	goto	u734_21
 14163  0C4F  2C51               	goto	u734_20
 14164  0C50                     u734_21:
 14165  0C50  2C59               	goto	i1l969
 14166  0C51                     u734_20:
 14167                           	line	289
 14168                           	
 14169  0C51                     i1l5896:	
 14170                           ;slavenode.c: 287: {
 14171                           ;slavenode.c: 289: SensBufIndex = 0;
 14172  0C51  01B0               	clrf	(_SensBufIndex)
 14173                           	line	293
 14174                           	
 14175  0C52                     i1l5898:	
 14176                           ;slavenode.c: 293: WriteI2C(TxBuf.b[0]);
 14177  0C52  084C               	movf	(_TxBuf),w
 14178  0C53  120A  118A  27F5   	fcall	_WriteI2C
              120A  158A         
 14179                           	line	294
 14180                           ;slavenode.c: 294: }
 14181  0C58  2CBA               	goto	i1l982
 14182                           	line	299
 14183                           	
 14184  0C59                     i1l969:	
 14185                           ;slavenode.c: 299: else if(I2CStat.b_stat.D_nA && I2CStat.b_stat.R_nW && !I2CStat.b_stat
                                 .BF)
 14186  0C59  1EFC               	btfss	(_I2CStat),5
 14187  0C5A  2C5C               	goto	u735_21
 14188  0C5B  2C5D               	goto	u735_20
 14189  0C5C                     u735_21:
 14190  0C5C  2CAC               	goto	i1l971
 14191  0C5D                     u735_20:
 14192                           	
 14193  0C5D                     i1l5900:	
 14194  0C5D  1D7C               	btfss	(_I2CStat),2
 14195  0C5E  2C60               	goto	u736_21
 14196  0C5F  2C61               	goto	u736_20
 14197  0C60                     u736_21:
 14198  0C60  2CAC               	goto	i1l971
 14199  0C61                     u736_20:
 14200                           	
 14201  0C61                     i1l5902:	
 14202  0C61  187C               	btfsc	(_I2CStat),0
 14203  0C62  2C64               	goto	u737_21
 14204  0C63  2C65               	goto	u737_20
 14205  0C64                     u737_21:
 14206  0C64  2CAC               	goto	i1l971
 14207  0C65                     u737_20:
 14208  0C65  2C9E               	goto	i1l5932
 14209                           	line	309
 14210                           	
 14211  0C66                     i1l5906:	
 14212                           ;slavenode.c: 309: TxBuf.b[1] = (us_CRC & 0xFF);
 14213  0C66  0828               	movf	(_us_CRC),w
 14214  0C67  00CD               	movwf	0+(_TxBuf)+01h
 14215                           	line	310
 14216                           	
 14217  0C68                     i1l5908:	
 14218                           ;slavenode.c: 310: WriteI2C(TxBuf.b[1]);
 14219  0C68  084D               	movf	0+(_TxBuf)+01h,w
 14220  0C69  120A  118A  27F5   	fcall	_WriteI2C
              120A  158A         
 14221                           	line	312
 14222                           	
 14223  0C6E                     i1l5910:	
 14224                           ;slavenode.c: 312: SensBufIndex++;
 14225  0C6E  0AB0               	incf	(_SensBufIndex),f
 14226                           	line	313
 14227                           ;slavenode.c: 313: break;
 14228  0C6F  2CBA               	goto	i1l982
 14229                           	line	317
 14230                           	
 14231  0C70                     i1l5912:	
 14232                           ;slavenode.c: 317: TxBuf.b[2] = ((us_CRC>>8) & 0xFF);
 14233  0C70  0829               	movf	(_us_CRC+1),w
 14234  0C71  00CE               	movwf	0+(_TxBuf)+02h
 14235                           	line	318
 14236                           	
 14237  0C72                     i1l5914:	
 14238                           ;slavenode.c: 318: WriteI2C(TxBuf.b[2]);
 14239  0C72  084E               	movf	0+(_TxBuf)+02h,w
 14240  0C73  120A  118A  27F5   	fcall	_WriteI2C
              120A  158A         
 14241  0C78  2C6E               	goto	i1l5910
 14242                           	line	328
 14243                           	
 14244  0C79                     i1l5918:	
 14245                           ;slavenode.c: 328: us_CRC = us_CalculerCRCSurTrame(TxBuf.b,3);
 14246  0C79  304C               	movlw	(_TxBuf&0ffh)
 14247  0C7A  00F3               	movwf	(us_CalculerCRCSurTrame@uc_Buffer)
 14248  0C7B  3000               	movlw	(0x0/2)
 14249  0C7C  00F4               	movwf	(us_CalculerCRCSurTrame@uc_Buffer+1)
 14250  0C7D  3003               	movlw	(03h)
 14251  0C7E  00F5               	movwf	(us_CalculerCRCSurTrame@uc_NbOctets)
 14252  0C7F  160A  118A  20E0   	fcall	_us_CalculerCRCSurTrame
              120A  158A         
 14253  0C84  0874               	movf	(1+(?_us_CalculerCRCSurTrame)),w
 14254  0C85  00A9               	movwf	(_us_CRC+1)
 14255  0C86  0873               	movf	(0+(?_us_CalculerCRCSurTrame)),w
 14256  0C87  00A8               	movwf	(_us_CRC)
 14257                           	line	329
 14258                           	
 14259  0C88                     i1l5920:	
 14260                           ;slavenode.c: 329: WriteI2C((us_CRC & 0xFF));
 14261  0C88  0828               	movf	(_us_CRC),w
 14262  0C89  120A  118A  27F5   	fcall	_WriteI2C
              120A  158A         
 14263  0C8E  2C6E               	goto	i1l5910
 14264                           	line	338
 14265                           	
 14266  0C8F                     i1l5924:	
 14267                           ;slavenode.c: 338: WriteI2C(((us_CRC>>8) & 0xFF));
 14268  0C8F  0829               	movf	(_us_CRC+1),w
 14269  0C90  120A  118A  27F5   	fcall	_WriteI2C
              120A  158A         
 14270  0C95  2C6E               	goto	i1l5910
 14271                           	line	342
 14272                           ;slavenode.c: 342: default :
 14273                           	
 14274  0C96                     i1l978:	
 14275                           	line	344
 14276                           ;slavenode.c: 344: TxBuf.comm_stat.r_w = 1;
 14277  0C96  17CD               	bsf	0+(_TxBuf)+01h,7
 14278                           	line	345
 14279                           	
 14280  0C97                     i1l5928:	
 14281                           ;slavenode.c: 345: WriteI2C(0x55);
 14282  0C97  3055               	movlw	(055h)
 14283  0C98  120A  118A  27F5   	fcall	_WriteI2C
              120A  158A         
 14284                           	line	346
 14285                           ;slavenode.c: 346: break;
 14286  0C9D  2CBA               	goto	i1l982
 14287                           	line	305
 14288                           	
 14289  0C9E                     i1l5932:	
 14290  0C9E  0830               	movf	(_SensBufIndex),w
 14291                           	; Switch size 1, requested type "space"
 14292                           ; Number of cases is 4, Range of values is 0 to 3
 14293                           ; switch strategies available:
 14294                           ; Name         Instructions Cycles
 14295                           ; simple_byte           13     7 (average)
 14296                           ; direct_byte           20     8 (fixed)
 14297                           ; jumptable            260     6 (fixed)
 14298                           ;	Chosen strategy is simple_byte
 14299                           
 14300                           	opt asmopt_off
 14301  0C9F  3A00               	xorlw	0^0	; case 0
 14302  0CA0  1903               	skipnz
 14303  0CA1  2C66               	goto	i1l5906
 14304  0CA2  3A01               	xorlw	1^0	; case 1
 14305  0CA3  1903               	skipnz
 14306  0CA4  2C70               	goto	i1l5912
 14307  0CA5  3A03               	xorlw	2^1	; case 2
 14308  0CA6  1903               	skipnz
 14309  0CA7  2C79               	goto	i1l5918
 14310  0CA8  3A01               	xorlw	3^2	; case 3
 14311  0CA9  1903               	skipnz
 14312  0CAA  2C8F               	goto	i1l5924
 14313  0CAB  2C96               	goto	i1l978
 14314                           	opt asmopt_on
 14315                           
 14316                           	line	356
 14317                           	
 14318  0CAC                     i1l971:	
 14319                           ;slavenode.c: 356: else if(I2CStat.b_stat.D_nA && !I2CStat.b_stat.R_nW && !I2CStat.b_sta
                                 t.BF)
 14320  0CAC  1EFC               	btfss	(_I2CStat),5
 14321  0CAD  2CAF               	goto	u738_21
 14322  0CAE  2CB0               	goto	u738_20
 14323  0CAF                     u738_21:
 14324  0CAF  2CBA               	goto	i1l970
 14325  0CB0                     u738_20:
 14326                           	
 14327  0CB0                     i1l5934:	
 14328  0CB0  197C               	btfsc	(_I2CStat),2
 14329  0CB1  2CB3               	goto	u739_21
 14330  0CB2  2CB4               	goto	u739_20
 14331  0CB3                     u739_21:
 14332  0CB3  2CBA               	goto	i1l970
 14333  0CB4                     u739_20:
 14334                           	
 14335  0CB4                     i1l5936:	
 14336                           ;slavenode.c: 357: {
 14337                           ;slavenode.c: 358: stat.wdtdis = 0;
 14338  0CB4  187C               	btfsc	(_I2CStat),0
 14339  0CB5  2CB7               	goto	u740_21
 14340  0CB6  2CB8               	goto	u740_20
 14341  0CB7                     u740_21:
 14342  0CB7  2CBA               	goto	i1l970
 14343  0CB8                     u740_20:
 14344                           	line	359
 14345                           	
 14346  0CB8                     i1l5938:	
 14347                           # 359 "../source/slavenode.c"
 14348  0CB8  0064               clrwdt ;# 
 14349                           psect	text38
 14350                           	line	360
 14351                           ;slavenode.c: 360: }
 14352  0CB9  2CBA               	goto	i1l982
 14353                           	line	361
 14354                           	
 14355  0CBA                     i1l970:	
 14356                           	line	362
 14357                           	
 14358  0CBA                     i1l982:	
 14359  0CBA  0008               	return
 14360                           	opt stack 0
 14361                           GLOBAL	__end_of_SSP_Handler
 14362  0CBB                     	__end_of_SSP_Handler:
 14363                           	signat	_SSP_Handler,88
 14364                           	global	_us_CalculerCRCSurTrame
 14365                           
 14366 ;; *************** function _us_CalculerCRCSurTrame *****************
 14367 ;; Defined at:
 14368 ;;		line 7 in file "../source/crc.c"
 14369 ;; Parameters:    Size  Location     Type
 14370 ;;  uc_Buffer       2    3[COMMON] PTR unsigned char 
 14371 ;;		 -> TxBuf(4), RXBuffer(25), 
 14372 ;;  uc_NbOctets     1    5[COMMON] unsigned char 
 14373 ;; Auto vars:     Size  Location     Type
 14374 ;;		None
 14375 ;; Return value:  Size  Location     Type
 14376 ;;                  2    3[COMMON] unsigned short 
 14377 ;; Registers used:
 14378 ;;		wreg, fsr0l, fsr0h, status,2, status,0, pclath, cstack
 14379 ;; Tracked objects:
 14380 ;;		On entry : 40/100
 14381 ;;		On exit  : 60/0
 14382 ;;		Unchanged: 0/0
 14383 ;; Data sizes:     COMMON   BANK0   BANK3   BANK1   BANK2
 14384 ;;      Params:         3       0       0       0       0
 14385 ;;      Locals:         0       0       0       0       0
 14386 ;;      Temps:          2       0       0       0       0
 14387 ;;      Totals:         5       0       0       0       0
 14388 ;;Total ram usage:        5 bytes
 14389 ;; Hardware stack levels used:    1
 14390 ;; Hardware stack levels required when called:    1
 14391 ;; This function calls:
 14392 ;;		_us_CalculerCRCSurUnOctet
 14393 ;; This function is called by:
 14394 ;;		_SSP_Handler
 14395 ;; This function uses a non-reentrant model
 14396 ;;
 14397                           psect	text39,local,class=CODE,delta=2,merge=1
 14398                           	file	"../source/crc.c"
 14399                           	line	7
 14400                           global __ptext39
 14401  10E0                     __ptext39:	;psect for function _us_CalculerCRCSurTrame
 14402                           psect	text39
 14403                           	file	"../source/crc.c"
 14404                           	line	7
 14405                           	global	__size_of_us_CalculerCRCSurTrame
 14406  002E                     	__size_of_us_CalculerCRCSurTrame	equ	__end_of_us_CalculerCRCSurTrame-_us_CalculerCRCSur
                                 Trame
 14407                           	
 14408  10E0                     _us_CalculerCRCSurTrame:	
 14409                           ;incstack = 0
 14410                           	opt	stack 0
 14411                           ; Regs used in _us_CalculerCRCSurTrame: [wreg-fsr0h+status,2+status,0+pclath+cstack]
 14412                           	line	9
 14413                           	
 14414  10E0                     i1l5770:	
 14415                           ;crc.c: 9: l_us_CRC = 0xFFFF;
 14416  10E0  30FF               	movlw	low(0FFFFh)
 14417  10E1  1283               	bcf	status, 5	;RP0=0, select bank0
 14418  10E2  00A6               	movwf	(_l_us_CRC)
 14419  10E3  30FF               	movlw	high(0FFFFh)
 14420  10E4  00A7               	movwf	((_l_us_CRC))+1
 14421                           	line	11
 14422                           	
 14423  10E5                     i1l5772:	
 14424                           ;crc.c: 11: for(l_uc_Compteur = 0;l_uc_Compteur < uc_NbOctets;l_uc_Compteur++)
 14425  10E5  01B2               	clrf	(_l_uc_Compteur)
 14426  10E6  2903               	goto	i1l5778
 14427                           	line	13
 14428                           	
 14429  10E7                     i1l5774:	
 14430                           ;crc.c: 12: {
 14431                           ;crc.c: 13: l_us_CRC = us_CalculerCRCSurUnOctet(l_us_CRC,(unsigned char)uc_Buffer[l_uc_C
                                 ompteur]);
 14432  10E7  0827               	movf	(_l_us_CRC+1),w
 14433  10E8  00F1               	movwf	(us_CalculerCRCSurUnOctet@l_us_CRC+1)
 14434  10E9  0826               	movf	(_l_us_CRC),w
 14435  10EA  00F0               	movwf	(us_CalculerCRCSurUnOctet@l_us_CRC)
 14436  10EB  0832               	movf	(_l_uc_Compteur),w
 14437  10EC  0773               	addwf	(us_CalculerCRCSurTrame@uc_Buffer),w
 14438  10ED  00F6               	movwf	(??_us_CalculerCRCSurTrame+0)+0
 14439  10EE  0874               	movf	(us_CalculerCRCSurTrame@uc_Buffer+1),w
 14440  10EF  1803               	skipnc
 14441  10F0  3E01               	addlw	1
 14442  10F1  00F7               	movwf	1+((??_us_CalculerCRCSurTrame+0)+0)
 14443  10F2  0876               	movf	0+(??_us_CalculerCRCSurTrame+0)+0,w
 14444  10F3  0084               	movwf	fsr0
 14445  10F4  1783               	bsf	status,7
 14446  10F5  1C77               	btfss	1+(??_us_CalculerCRCSurTrame+0)+0,0
 14447  10F6  1383               	bcf	status,7
 14448  10F7  0800               	movf	indf,w
 14449  10F8  00F2               	movwf	(us_CalculerCRCSurUnOctet@l_uc_Octet)
 14450  10F9  160A  118A  201E   	fcall	_us_CalculerCRCSurUnOctet
              160A  118A         
 14451  10FE  0871               	movf	(1+(?_us_CalculerCRCSurUnOctet)),w
 14452  10FF  00A7               	movwf	(_l_us_CRC+1)
 14453  1100  0870               	movf	(0+(?_us_CalculerCRCSurUnOctet)),w
 14454  1101  00A6               	movwf	(_l_us_CRC)
 14455                           	line	11
 14456                           	
 14457  1102                     i1l5776:	
 14458  1102  0AB2               	incf	(_l_uc_Compteur),f
 14459                           	
 14460  1103                     i1l5778:	
 14461  1103  0875               	movf	(us_CalculerCRCSurTrame@uc_NbOctets),w
 14462  1104  0232               	subwf	(_l_uc_Compteur),w
 14463  1105  1C03               	skipc
 14464  1106  2908               	goto	u712_21
 14465  1107  2909               	goto	u712_20
 14466  1108                     u712_21:
 14467  1108  28E7               	goto	i1l5774
 14468  1109                     u712_20:
 14469                           	line	15
 14470                           	
 14471  1109                     i1l5780:	
 14472                           ;crc.c: 14: }
 14473                           ;crc.c: 15: return l_us_CRC;
 14474  1109  0827               	movf	(_l_us_CRC+1),w
 14475  110A  00F4               	movwf	(?_us_CalculerCRCSurTrame+1)
 14476  110B  0826               	movf	(_l_us_CRC),w
 14477  110C  00F3               	movwf	(?_us_CalculerCRCSurTrame)
 14478                           	line	16
 14479                           	
 14480  110D                     i1l1041:	
 14481  110D  0008               	return
 14482                           	opt stack 0
 14483                           GLOBAL	__end_of_us_CalculerCRCSurTrame
 14484  110E                     	__end_of_us_CalculerCRCSurTrame:
 14485                           	signat	_us_CalculerCRCSurTrame,8314
 14486                           	global	_us_CalculerCRCSurUnOctet
 14487                           
 14488 ;; *************** function _us_CalculerCRCSurUnOctet *****************
 14489 ;; Defined at:
 14490 ;;		line 20 in file "../source/crc.c"
 14491 ;; Parameters:    Size  Location     Type
 14492 ;;  l_us_CRC        2    0[COMMON] unsigned short 
 14493 ;;  l_uc_Octet      1    2[COMMON] unsigned char 
 14494 ;; Auto vars:     Size  Location     Type
 14495 ;;		None
 14496 ;; Return value:  Size  Location     Type
 14497 ;;                  2    0[COMMON] unsigned short 
 14498 ;; Registers used:
 14499 ;;		wreg, status,2, status,0
 14500 ;; Tracked objects:
 14501 ;;		On entry : 60/100
 14502 ;;		On exit  : 60/0
 14503 ;;		Unchanged: 0/0
 14504 ;; Data sizes:     COMMON   BANK0   BANK3   BANK1   BANK2
 14505 ;;      Params:         3       0       0       0       0
 14506 ;;      Locals:         0       0       0       0       0
 14507 ;;      Temps:          0       0       0       0       0
 14508 ;;      Totals:         3       0       0       0       0
 14509 ;;Total ram usage:        3 bytes
 14510 ;; Hardware stack levels used:    1
 14511 ;; This function calls:
 14512 ;;		Nothing
 14513 ;; This function is called by:
 14514 ;;		_us_CalculerCRCSurTrame
 14515 ;; This function uses a non-reentrant model
 14516 ;;
 14517                           psect	text40,local,class=CODE,delta=2,merge=1
 14518                           	line	20
 14519                           global __ptext40
 14520  101E                     __ptext40:	;psect for function _us_CalculerCRCSurUnOctet
 14521                           psect	text40
 14522                           	file	"../source/crc.c"
 14523                           	line	20
 14524                           	global	__size_of_us_CalculerCRCSurUnOctet
 14525  001C                     	__size_of_us_CalculerCRCSurUnOctet	equ	__end_of_us_CalculerCRCSurUnOctet-_us_CalculerCR
                                 CSurUnOctet
 14526                           	
 14527  101E                     _us_CalculerCRCSurUnOctet:	
 14528                           ;incstack = 0
 14529                           	opt	stack 0
 14530                           ; Regs used in _us_CalculerCRCSurUnOctet: [wreg+status,2+status,0]
 14531                           	line	22
 14532                           	
 14533  101E                     i1l5700:	
 14534                           ;crc.c: 22: l_us_CRC = (unsigned short)(l_us_CRC ^ (unsigned short)l_uc_Octet);
 14535  101E  0872               	movf	(us_CalculerCRCSurUnOctet@l_uc_Octet),w
 14536  101F  06F0               	xorwf	(us_CalculerCRCSurUnOctet@l_us_CRC),f
 14537                           	line	23
 14538                           	
 14539  1020                     i1l5702:	
 14540                           ;crc.c: 23: for(l_uc_Compteur2 = 0 ; l_uc_Compteur2 < 8 ; l_uc_Compteur2++)
 14541  1020  01B3               	clrf	(_l_uc_Compteur2)
 14542                           	
 14543  1021                     i1l5704:	
 14544  1021  3008               	movlw	(08h)
 14545  1022  0233               	subwf	(_l_uc_Compteur2),w
 14546  1023  1C03               	skipc
 14547  1024  2826               	goto	u701_21
 14548  1025  2827               	goto	u701_20
 14549  1026                     u701_21:
 14550  1026  2828               	goto	i1l1046
 14551  1027                     u701_20:
 14552  1027  2839               	goto	i1l1047
 14553                           	line	24
 14554                           	
 14555  1028                     i1l1046:	
 14556                           	line	25
 14557                           ;crc.c: 24: {
 14558                           ;crc.c: 25: if((l_us_CRC & 0x0001) != 0)
 14559  1028  1C70               	btfss	(us_CalculerCRCSurUnOctet@l_us_CRC),(0)&7
 14560  1029  282B               	goto	u702_21
 14561  102A  282C               	goto	u702_20
 14562  102B                     u702_21:
 14563  102B  2834               	goto	i1l5712
 14564  102C                     u702_20:
 14565                           	line	27
 14566                           	
 14567  102C                     i1l5708:	
 14568                           ;crc.c: 26: {
 14569                           ;crc.c: 27: l_us_CRC = (unsigned short)(l_us_CRC >> 1);
 14570  102C  1003               	clrc
 14571  102D  0CF1               	rrf	(us_CalculerCRCSurUnOctet@l_us_CRC+1),f
 14572  102E  0CF0               	rrf	(us_CalculerCRCSurUnOctet@l_us_CRC),f
 14573                           	line	28
 14574                           	
 14575  102F                     i1l5710:	
 14576                           ;crc.c: 28: l_us_CRC = (unsigned short)(l_us_CRC ^ (unsigned short)0xA001);
 14577  102F  3001               	movlw	low(0A001h)
 14578  1030  06F0               	xorwf	(us_CalculerCRCSurUnOctet@l_us_CRC),f
 14579  1031  30A0               	movlw	high(0A001h)
 14580  1032  06F1               	xorwf	(us_CalculerCRCSurUnOctet@l_us_CRC+1),f
 14581                           	line	29
 14582                           ;crc.c: 29: }
 14583  1033  2837               	goto	i1l1049
 14584                           	line	32
 14585                           	
 14586  1034                     i1l5712:	
 14587                           ;crc.c: 30: else
 14588                           ;crc.c: 31: {
 14589                           ;crc.c: 32: l_us_CRC = (unsigned short)(l_us_CRC >> 1);
 14590  1034  1003               	clrc
 14591  1035  0CF1               	rrf	(us_CalculerCRCSurUnOctet@l_us_CRC+1),f
 14592  1036  0CF0               	rrf	(us_CalculerCRCSurUnOctet@l_us_CRC),f
 14593                           	line	33
 14594                           	
 14595  1037                     i1l1049:	
 14596                           	line	23
 14597  1037  0AB3               	incf	(_l_uc_Compteur2),f
 14598  1038  2821               	goto	i1l5704
 14599                           	
 14600  1039                     i1l1047:	
 14601                           	line	35
 14602                           ;crc.c: 33: }
 14603                           ;crc.c: 34: }
 14604                           ;crc.c: 35: return l_us_CRC;
 14605                           	line	36
 14606                           	
 14607  1039                     i1l1050:	
 14608  1039  0008               	return
 14609                           	opt stack 0
 14610                           GLOBAL	__end_of_us_CalculerCRCSurUnOctet
 14611  103A                     	__end_of_us_CalculerCRCSurUnOctet:
 14612                           	signat	_us_CalculerCRCSurUnOctet,8314
 14613                           	global	_WriteI2C
 14614                           
 14615 ;; *************** function _WriteI2C *****************
 14616 ;; Defined at:
 14617 ;;		line 368 in file "../source/slavenode.c"
 14618 ;; Parameters:    Size  Location     Type
 14619 ;;  data            1    wreg     unsigned char 
 14620 ;; Auto vars:     Size  Location     Type
 14621 ;;  data            1    0[COMMON] unsigned char 
 14622 ;; Return value:  Size  Location     Type
 14623 ;;		None               void
 14624 ;; Registers used:
 14625 ;;		wreg
 14626 ;; Tracked objects:
 14627 ;;		On entry : 60/0
 14628 ;;		On exit  : 60/0
 14629 ;;		Unchanged: 0/0
 14630 ;; Data sizes:     COMMON   BANK0   BANK3   BANK1   BANK2
 14631 ;;      Params:         0       0       0       0       0
 14632 ;;      Locals:         1       0       0       0       0
 14633 ;;      Temps:          0       0       0       0       0
 14634 ;;      Totals:         1       0       0       0       0
 14635 ;;Total ram usage:        1 bytes
 14636 ;; Hardware stack levels used:    1
 14637 ;; This function calls:
 14638 ;;		Nothing
 14639 ;; This function is called by:
 14640 ;;		_SSP_Handler
 14641 ;; This function uses a non-reentrant model
 14642 ;;
 14643                           psect	text41,local,class=CODE,delta=2,merge=1
 14644                           	file	"../source/slavenode.c"
 14645                           	line	368
 14646                           global __ptext41
 14647  07F5                     __ptext41:	;psect for function _WriteI2C
 14648                           psect	text41
 14649                           	file	"../source/slavenode.c"
 14650                           	line	368
 14651                           	global	__size_of_WriteI2C
 14652  000A                     	__size_of_WriteI2C	equ	__end_of_WriteI2C-_WriteI2C
 14653                           	
 14654  07F5                     _WriteI2C:	
 14655                           ;incstack = 0
 14656                           	opt	stack 1
 14657                           ; Regs used in _WriteI2C: [wreg]
 14658                           ;WriteI2C@data stored from wreg
 14659  07F5  00F0               	movwf	(WriteI2C@data)
 14660                           	line	370
 14661                           ;slavenode.c: 370: do
 14662                           	
 14663  07F6                     i1l985:	
 14664                           	line	372
 14665                           ;slavenode.c: 371: {
 14666                           ;slavenode.c: 372: WCOL = 0;
 14667  07F6  1394               	bcf	(167/8),(167)&7	;volatile
 14668                           	line	373
 14669                           	
 14670  07F7                     i1l5696:	
 14671                           ;slavenode.c: 373: SSPBUF = data;
 14672  07F7  0870               	movf	(WriteI2C@data),w
 14673  07F8  0093               	movwf	(19)	;volatile
 14674                           	line	374
 14675                           	
 14676  07F9                     i1l5698:	
 14677                           ;slavenode.c: 374: } while(WCOL);
 14678  07F9  1B94               	btfsc	(167/8),(167)&7	;volatile
 14679  07FA  2FFC               	goto	u700_21
 14680  07FB  2FFD               	goto	u700_20
 14681  07FC                     u700_21:
 14682  07FC  2FF6               	goto	i1l985
 14683  07FD                     u700_20:
 14684                           	
 14685  07FD                     i1l986:	
 14686                           	line	376
 14687                           ;slavenode.c: 376: CKP = 1;
 14688  07FD  1614               	bsf	(164/8),(164)&7	;volatile
 14689                           	line	377
 14690                           	
 14691  07FE                     i1l987:	
 14692  07FE  0008               	return
 14693                           	opt stack 0
 14694                           GLOBAL	__end_of_WriteI2C
 14695  07FF                     	__end_of_WriteI2C:
 14696                           	signat	_WriteI2C,4216
 14697                           	global	_ReadI2C
 14698                           
 14699 ;; *************** function _ReadI2C *****************
 14700 ;; Defined at:
 14701 ;;		line 383 in file "../source/slavenode.c"
 14702 ;; Parameters:    Size  Location     Type
 14703 ;;		None
 14704 ;; Auto vars:     Size  Location     Type
 14705 ;;		None
 14706 ;; Return value:  Size  Location     Type
 14707 ;;                  1    wreg      unsigned char 
 14708 ;; Registers used:
 14709 ;;		wreg
 14710 ;; Tracked objects:
 14711 ;;		On entry : 60/0
 14712 ;;		On exit  : 60/0
 14713 ;;		Unchanged: 0/0
 14714 ;; Data sizes:     COMMON   BANK0   BANK3   BANK1   BANK2
 14715 ;;      Params:         0       0       0       0       0
 14716 ;;      Locals:         0       0       0       0       0
 14717 ;;      Temps:          0       0       0       0       0
 14718 ;;      Totals:         0       0       0       0       0
 14719 ;;Total ram usage:        0 bytes
 14720 ;; Hardware stack levels used:    1
 14721 ;; This function calls:
 14722 ;;		Nothing
 14723 ;; This function is called by:
 14724 ;;		_SSP_Handler
 14725 ;; This function uses a non-reentrant model
 14726 ;;
 14727                           psect	text42,local,class=CODE,delta=2,merge=1
 14728                           	line	383
 14729                           global __ptext42
 14730  1002                     __ptext42:	;psect for function _ReadI2C
 14731                           psect	text42
 14732                           	file	"../source/slavenode.c"
 14733                           	line	383
 14734                           	global	__size_of_ReadI2C
 14735  0002                     	__size_of_ReadI2C	equ	__end_of_ReadI2C-_ReadI2C
 14736                           	
 14737  1002                     _ReadI2C:	
 14738                           ;incstack = 0
 14739                           	opt	stack 1
 14740                           ; Regs used in _ReadI2C: [wreg]
 14741                           	line	385
 14742                           	
 14743  1002                     i1l5692:	
 14744                           ;slavenode.c: 385: return(SSPBUF);
 14745  1002  0813               	movf	(19),w	;volatile
 14746                           	line	386
 14747                           	
 14748  1003                     i1l990:	
 14749  1003  0008               	return
 14750                           	opt stack 0
 14751                           GLOBAL	__end_of_ReadI2C
 14752  1004                     	__end_of_ReadI2C:
 14753                           	signat	_ReadI2C,89
 14754                           global	___latbits
 14755  0002                     ___latbits	equ	2
 14756                           	global	btemp
 14757  007E                     	btemp set 07Eh
 14758                           
 14759                           	DABS	1,126,2	;btemp
 14760                           	global	wtemp
 14761                           	global	wtemp0
 14762  007E                     	wtemp set btemp
 14763  007E                     	wtemp0 set btemp
 14764                           	global	wtemp1
 14765  0080                     	wtemp1 set btemp+2
 14766                           	global	wtemp2
 14767  0082                     	wtemp2 set btemp+4
 14768                           	global	wtemp3
 14769  0084                     	wtemp3 set btemp+6
 14770                           	global	wtemp4
 14771  0086                     	wtemp4 set btemp+8
 14772                           	global	wtemp5
 14773  0088                     	wtemp5 set btemp+10
 14774                           	global	wtemp6
 14775  007F                     	wtemp6 set btemp+1
 14776                           	global	ttemp
 14777                           	global	ttemp0
 14778  007E                     	ttemp set btemp
 14779  007E                     	ttemp0 set btemp
 14780                           	global	ttemp1
 14781  0081                     	ttemp1 set btemp+3
 14782                           	global	ttemp2
 14783  0084                     	ttemp2 set btemp+6
 14784                           	global	ttemp3
 14785  0087                     	ttemp3 set btemp+9
 14786                           	global	ttemp4
 14787  007F                     	ttemp4 set btemp+1
 14788                           	global	ltemp
 14789                           	global	ltemp0
 14790  007E                     	ltemp set btemp
 14791  007E                     	ltemp0 set btemp
 14792                           	global	ltemp1
 14793  0082                     	ltemp1 set btemp+4
 14794                           	global	ltemp2
 14795  0086                     	ltemp2 set btemp+8
 14796                           	global	ltemp3
 14797  0080                     	ltemp3 set btemp+2


Data Sizes:
    Strings     0
    Constant    0
    Data        1
    BSS         239
    Persistent  0
    Stack       0

Auto Spaces:
    Space          Size  Autos    Used
    COMMON           14     12      14
    BANK0            80     27      76
    BANK3            80      5      78
    BANK1            80      0      79
    BANK2            80      0      37

Pointer List with Targets:

    us_CalculerCRCSurTrame@uc_Buffer	PTR unsigned char  size(2) Largest target is 25
		 -> TxBuf(BANK0[4]), RXBuffer(BANK2[25]), 


Critical Paths under _main in COMMON

    None.

Critical Paths under _IT in COMMON

    _IT->_SSP_Handler
    _vd_PilotageVariateurs->_vd_PiloteSortieVariateur
    _SSP_Handler->_us_CalculerCRCSurTrame
    _us_CalculerCRCSurTrame->_us_CalculerCRCSurUnOctet

Critical Paths under _main in BANK0

    _main->_vd_TraitementApplicatif
    _vd_Verif_Version->_eeprom_write
    _vd_Traitement_I2C->_vd_Sauve_Etat
    _vd_Sauve_Etat->_eeprom_write
    _vd_TraitementApplicatif->_uc_EteintLampe
    _uc_EteintLampe->___lldiv
    _vd_PiloterSorties->_vd_PiloterRelais
    _vd_PiloterRelaisBistables->_vd_PiloterRelaisBistable
    _vd_PiloterRelaisBistable->_vd_PiloterSortie
    _vd_PiloterRelais->_vd_PiloterSortie
    _vd_PiloterLed->_vd_PiloterSortie
    _vd_Lit_Config->_eeprom_write
    _vd_InitVariables2->_us_CodeVariateur
    _vd_ArretPilotageRelaisBist->_vd_PiloterSortie
    _vd_AnalyserEntrees->_vd_AnalyserEntreesTOR
    _vd_AnalyserEntreesVolets->_uc_EntreeVoletEntreeCarte
    _vd_AnalyserEntreesVariateurs->_uc_EntreeVariateurEntreeCarte
    _vd_AnalyserEntreesTOR->_uc_EntreeTOREntreeCarte
    _vd_AcquisitionEntrees->_uc_EtatEntree

Critical Paths under _IT in BANK0

    _IT->_SSP_Handler

Critical Paths under _main in BANK3

    _main->_vd_TraitementApplicatif

Critical Paths under _IT in BANK3

    None.

Critical Paths under _main in BANK1

    None.

Critical Paths under _IT in BANK1

    None.

Critical Paths under _main in BANK2

    None.

Critical Paths under _IT in BANK2

    None.

Call Graph Tables:

 ---------------------------------------------------------------------------------
 (Depth) Function   	        Calls       Base Space   Used Autos Params    Refs
 ---------------------------------------------------------------------------------
 (0) _main                                                 0     0      0   26796
              _vd_AcquisitionEntrees
                 _vd_AnalyserEntrees
         _vd_ArretPilotageRelaisBist
                   _vd_ConfigBornier
                       _vd_I2C_Setup
                       _vd_InitMicro
                   _vd_InitVariables
                  _vd_InitVariables2
                      _vd_Lit_Config
                  _vd_PiloterSorties
            _vd_TraitementApplicatif
                  _vd_Traitement_I2C
                   _vd_Verif_Version
 ---------------------------------------------------------------------------------
 (1) _vd_Verif_Version                                     3     3      0    1271
                                              6 BANK0      3     3      0
                        _eeprom_read
                       _eeprom_write
 ---------------------------------------------------------------------------------
 (1) _vd_Traitement_I2C                                    6     6      0    3441
                                             10 BANK0      6     6      0
                       _eeprom_write
                      _vd_Sauve_Etat
 ---------------------------------------------------------------------------------
 (2) _vd_Sauve_Etat                                        4     4      0    1432
                                              6 BANK0      4     4      0
                        _eeprom_read
                       _eeprom_write
 ---------------------------------------------------------------------------------
 (1) _vd_TraitementApplicatif                              7     7      0    8891
                                             25 BANK0      2     2      0
                                              0 BANK3      5     5      0
                     _uc_EteintLampe
                       _uc_StopVolet
                   _us_CodeVariateur
 ---------------------------------------------------------------------------------
 (2) _uc_StopVolet                                         4     3      1    1127
                                              4 BANK0      4     3      1
 ---------------------------------------------------------------------------------
 (2) _uc_EteintLampe                                       8     6      2    3968
                                             17 BANK0      8     6      2
                            ___lldiv
                             ___lmul
                             ___wmul
 ---------------------------------------------------------------------------------
 (3) ___wmul                                               6     2      4    2786
                                              4 BANK0      6     2      4
 ---------------------------------------------------------------------------------
 (3) ___lmul                                              12     4      8     266
                                              4 BANK0     12     4      8
 ---------------------------------------------------------------------------------
 (3) ___lldiv                                             13     5      8     371
                                              4 BANK0     13     5      8
 ---------------------------------------------------------------------------------
 (1) _vd_PiloterSorties                                    0     0      0    6266
                      _vd_PiloterLed
                   _vd_PiloterRelais
          _vd_PiloterRelaisBistables
 ---------------------------------------------------------------------------------
 (2) _vd_PiloterRelaisBistables                            2     2      0    2492
                                              8 BANK0      2     2      0
           _vd_PiloterRelaisBistable
 ---------------------------------------------------------------------------------
 (3) _vd_PiloterRelaisBistable                             1     1      0    1896
                                              7 BANK0      1     1      0
                   _vd_PiloterSortie
 ---------------------------------------------------------------------------------
 (2) _vd_PiloterRelais                                     5     5      0    1944
                                              7 BANK0      5     5      0
                   _vd_PiloterSortie
 ---------------------------------------------------------------------------------
 (2) _vd_PiloterLed                                        0     0      0    1830
                   _vd_PiloterSortie
 ---------------------------------------------------------------------------------
 (1) _vd_Lit_Config                                        7     7      0    2168
                                              6 BANK0      7     7      0
                        _eeprom_read
                       _eeprom_write
 ---------------------------------------------------------------------------------
 (2) _eeprom_write                                         2     1      1    1157
                                              4 BANK0      2     1      1
 ---------------------------------------------------------------------------------
 (2) _eeprom_read                                          1     1      0      22
                                              4 BANK0      1     1      0
 ---------------------------------------------------------------------------------
 (1) _vd_InitVariables2                                    2     2      0     238
                                             10 BANK0      2     2      0
                   _us_CodeVariateur
 ---------------------------------------------------------------------------------
 (2) _us_CodeVariateur                                     6     3      3      77
                                              4 BANK0      6     3      3
 ---------------------------------------------------------------------------------
 (1) _vd_InitVariables                                     2     2      0     514
                                              4 BANK0      2     2      0
 ---------------------------------------------------------------------------------
 (1) _vd_InitMicro                                         0     0      0       0
 ---------------------------------------------------------------------------------
 (1) _vd_I2C_Setup                                         0     0      0       0
 ---------------------------------------------------------------------------------
 (1) _vd_ConfigBornier                                     0     0      0       0
 ---------------------------------------------------------------------------------
 (1) _vd_ArretPilotageRelaisBist                           1     1      0    1876
                                              7 BANK0      1     1      0
                   _vd_PiloterSortie
 ---------------------------------------------------------------------------------
 (4) _vd_PiloterSortie                                     3     1      2    1830
                                              4 BANK0      3     1      2
 ---------------------------------------------------------------------------------
 (1) _vd_AnalyserEntrees                                   0     0      0    1795
              _vd_AnalyserEntreesTOR
       _vd_AnalyserEntreesVariateurs
           _vd_AnalyserEntreesVolets
 ---------------------------------------------------------------------------------
 (2) _vd_AnalyserEntreesVolets                             5     5      0     476
                                              6 BANK0      5     5      0
          _uc_EntreeVoletEntreeCarte
 ---------------------------------------------------------------------------------
 (3) _uc_EntreeVoletEntreeCarte                            2     2      0      55
                                              4 BANK0      2     2      0
 ---------------------------------------------------------------------------------
 (2) _vd_AnalyserEntreesVariateurs                         5     5      0    1020
                                              6 BANK0      5     5      0
      _uc_EntreeVariateurEntreeCarte
 ---------------------------------------------------------------------------------
 (3) _uc_EntreeVariateurEntreeCarte                        2     2      0      49
                                              4 BANK0      2     2      0
 ---------------------------------------------------------------------------------
 (2) _vd_AnalyserEntreesTOR                                7     7      0     299
                                              6 BANK0      7     7      0
            _uc_EntreeTOREntreeCarte
 ---------------------------------------------------------------------------------
 (3) _uc_EntreeTOREntreeCarte                              2     2      0      52
                                              4 BANK0      2     2      0
 ---------------------------------------------------------------------------------
 (1) _vd_AcquisitionEntrees                                3     3      0     336
                                              6 BANK0      3     3      0
                      _uc_EtatEntree
 ---------------------------------------------------------------------------------
 (2) _uc_EtatEntree                                        2     2      0      91
                                              4 BANK0      2     2      0
 ---------------------------------------------------------------------------------
 Estimated maximum stack depth 4
 ---------------------------------------------------------------------------------
 (Depth) Function   	        Calls       Base Space   Used Autos Params    Refs
 ---------------------------------------------------------------------------------
 (5) _IT                                                   3     3      0     915
                                              9 COMMON     3     3      0
                        _SSP_Handler
              _vd_PilotageVariateurs
 ---------------------------------------------------------------------------------
 (6) _vd_PilotageVariateurs                                2     2      0     216
                                              2 COMMON     2     2      0
           _vd_PiloteSortieVariateur
 ---------------------------------------------------------------------------------
 (7) _vd_PiloteSortieVariateur                             2     1      1     216
                                              0 COMMON     2     1      1
 ---------------------------------------------------------------------------------
 (6) _SSP_Handler                                          5     5      0     699
                                              8 COMMON     1     1      0
                                              0 BANK0      4     4      0
                            _ReadI2C
                           _WriteI2C
             _us_CalculerCRCSurTrame
 ---------------------------------------------------------------------------------
 (7) _us_CalculerCRCSurTrame                               5     2      3     495
                                              3 COMMON     5     2      3
           _us_CalculerCRCSurUnOctet
 ---------------------------------------------------------------------------------
 (8) _us_CalculerCRCSurUnOctet                             3     0      3     235
                                              0 COMMON     3     0      3
 ---------------------------------------------------------------------------------
 (7) _WriteI2C                                             1     1      0      31
                                              0 COMMON     1     1      0
 ---------------------------------------------------------------------------------
 (7) _ReadI2C                                              0     0      0       0
 ---------------------------------------------------------------------------------
 Estimated maximum stack depth 8
 ---------------------------------------------------------------------------------

 Call Graph Graphs:

 _main (ROOT)
   _vd_AcquisitionEntrees
     _uc_EtatEntree
   _vd_AnalyserEntrees
     _vd_AnalyserEntreesTOR
       _uc_EntreeTOREntreeCarte
     _vd_AnalyserEntreesVariateurs
       _uc_EntreeVariateurEntreeCarte
     _vd_AnalyserEntreesVolets
       _uc_EntreeVoletEntreeCarte
   _vd_ArretPilotageRelaisBist
     _vd_PiloterSortie
   _vd_ConfigBornier
   _vd_I2C_Setup
   _vd_InitMicro
   _vd_InitVariables
   _vd_InitVariables2
     _us_CodeVariateur
   _vd_Lit_Config
     _eeprom_read
     _eeprom_write
   _vd_PiloterSorties
     _vd_PiloterLed
       _vd_PiloterSortie
     _vd_PiloterRelais
       _vd_PiloterSortie
     _vd_PiloterRelaisBistables
       _vd_PiloterRelaisBistable
         _vd_PiloterSortie
   _vd_TraitementApplicatif
     _uc_EteintLampe
       ___lldiv
       ___lmul
       ___wmul
     _uc_StopVolet
     _us_CodeVariateur
   _vd_Traitement_I2C
     _eeprom_write
     _vd_Sauve_Etat
       _eeprom_read
       _eeprom_write
   _vd_Verif_Version
     _eeprom_read
     _eeprom_write

 _IT (ROOT)
   _SSP_Handler
     _ReadI2C
     _WriteI2C
     _us_CalculerCRCSurTrame
       _us_CalculerCRCSurUnOctet
   _vd_PilotageVariateurs
     _vd_PiloteSortieVariateur

 Address spaces:
Name               Size   Autos  Total    Cost      Usage
BANK3               50      5      4E       5       97.5%
BITBANK3            50      0       0       9        0.0%
SFR3                 0      0       0       4        0.0%
BITSFR3              0      0       0       4        0.0%
BANK2               50      0      25      11       46.3%
BITBANK2            50      0       0      10        0.0%
SFR2                 0      0       0       5        0.0%
BITSFR2              0      0       0       5        0.0%
BANK1               50      0      4F       8       98.8%
BITBANK1            50      0       0       7        0.0%
SFR1                 0      0       0       2        0.0%
BITSFR1              0      0       0       2        0.0%
BANK0               50     1B      4C       4       95.0%
BITBANK0            50      0       0       3        0.0%
SFR0                 0      0       0       1        0.0%
BITSFR0              0      0       0       1        0.0%
COMMON               E      C       E       1      100.0%
BITCOMMON            E      0       0       0        0.0%
CODE                 0      0       0       0        0.0%
DATA                 0      0     11C      12        0.0%
ABS                  0      0     11C       6        0.0%
NULL                 0      0       0       0        0.0%
STACK                0      0       0       2        0.0%
EEDATA             100      0       0       0        0.0%


Microchip Technology PIC Macro Assembler V1.30 build 55553 
Symbol Table                                                                                   Thu Sep 11 09:24:46 2014

                    vd_TraitementApplicatif@l_us_Masque 01E9  
             vd_AnalyserEntreesVariateurs@l_uc_Compteur 005A  
                                                    l32 1455  
                                                    l44 113D  
                                      _vd_InitVariables 1750  
                                                    l63 1076  
                                                    l91 0624  
                                                    l59 12D7  
                                                    l68 1091  
                                                    l93 0616  
                                                    l78 13B1  
                                                    l98 0687  
                                                    l99 0709  
                                                    _IT 116E  
                                                    _RD 0C60  
                                                    _WR 0C61  
                                                    fsr 0004  
                                   ___wmul@multiplicand 0056  
                            ??_vd_PiloteSortieVariateur 0071  
                                                   ?_IT 0070  
                                                   l104 077A  
                                                   l113 164B  
                                                   l202 1FFF  
                                                   l123 16AA  
                                                   l115 1645  
                                                   l108 07F4  
                                                   l117 1666  
                                                   l126 1FE7  
                                                   l215 0810  
                                                   l400 09A2  
                                                   l410 09BB  
                                                   l402 09A7  
                                                   l163 116D  
                                                   l171 1217  
                                                   l412 09C0  
                                                   l404 09AC  
                                                   l406 09B1  
                                                   l510 0B02  
                                                   l430 0A2E  
                                                   l422 0A18  
                                                   l423 0A1E  
                                                   l416 0A15  
                                                   l408 09B6  
                                                   l520 0B1A  
                                                   l432 0A30  
                                                   l360 1489  
                                                   l176 1255  
                                                   l441 0A48  
                                                   l433 0A36  
                                                   l361 1491  
                                                   l185 087D  
                                                   l514 0B0A  
                                                   l442 0A4E  
                                                   l426 0A20  
                                                   l362 1499  
                                                   l354 1592  
                                                   l523 0B30  
                                                   l435 0A38  
                                                   l427 0A26  
                                                   l363 14A1  
                                                   l187 08D5  
                                                   l380 0964  
                                                   l372 0948  
                                                   l436 0A3E  
                                                   l196 093B  
                                                   l525 0B51  
                                                   l517 0B12  
                                                   l429 0A28  
                                                   l365 14A9  
                                                   l357 1471  
                                                   l390 0987  
                                                   l382 096B  
                                                   l374 094F  
                                                   l438 0A40  
                                                   l358 1479  
                                                   l622 10DF  
                                     _vd_InitVariables2 131D  
                                                   l471 0A8B  
                                                   l439 0A46  
                                                   l359 1481  
                                                   l392 098E  
                                                   l384 0972  
                                                   l376 0956  
                                                   l369 093F  
                                                   l481 0AA3  
                                                   l465 0A79  
                                                   l641 0FFF  
                                                   l394 0993  
                                                   l386 0979  
                                                   l378 095D  
                                                   l490 0ABB  
                                                   l475 0A93  
                                                   l467 0A7B  
                                                   l396 0998  
                                                   l388 0980  
                                                   l484 0AAB  
                                                   l493 0AC3  
                                                   l661 15BD  
                                                   l398 099D  
                                                   l478 0A9B  
                                                   l662 15B9  
                                                   l487 0AB3  
                                                   l496 0ACB  
                                                   l728 17FF  
                                                   l840 035B  
                                                   l648 1516  
                                                   l738 1361  
                                                   l746 174F  
                                                   l762 0831  
                                                   l499 0AD3  
                                                   l851 0441  
                                                   l835 02D7  
                                                   l844 03B7  
                                                   l845 0392  
                                                   l766 0855  
                                                   l854 048D  
                                                   l838 02EC  
                                                   l759 0864  
                                                   l783 00B8  
                                                   l880 101D  
                                                   l873 05AD  
                                                   l798 01AC  
                                                   l993 1FCF  
                                                   _CKP 00A4  
                                                   _GIE 005F  
                                                   _PR2 0092  
                                                   fsr0 0004  
                                                   indf 0000  
                                      _uc_ENTREE_TOR_NB 0040  
                                    ?_vd_InitVariables2 0070  
                                          __CFG_FOSC$HS 0000  
                                                  ??_IT 0079  
                             ??_uc_EntreeTOREntreeCarte 0054  
                                 _vd_AnalyserEntreesTOR 1362  
                                         ?_vd_I2C_Setup 0070  
                                                  l1021 0E12  
                                                  l1027 0E4E  
                                                  l1029 0E4F  
                                                  l1063 103B  
                                                  l1065 1055  
                                                  l1091 10B8  
                                                  l1084 1093  
                                                  l1085 1093  
                                                  l1088 10AB  
                                                  l4000 1219  
                                                  l1440 1402  
                                                  l4010 1230  
                                                  l4002 1220  
                                                  l4020 124B  
                                                  l4004 1228  
                                                  l4012 123B  
                                                  l1461 11A7  
                                                  l4110 1519  
                                                  l4014 1244  
                                                  l4006 122C  
                                                  l4030 0874  
                                                  l4022 0865  
                                                  l1526 1072  
                                                  l4200 1567  
                                                  l4120 152C  
                                                  l4112 151D  
                                                  l4016 1247  
                                                  l4008 122E  
                                                  l4040 08A0  
                                                  l4032 0878  
                                                  l4024 086B  
                                                  l1464 11DC  
                                                  l4210 156C  
                                                  l4202 1568  
                                                  l4130 1538  
                                                  l4122 152E  
                                                  l4114 1525  
                                                  l4018 1249  
                                                  l4050 08CE  
                                                  l4042 08B2  
                                                  l4034 088E  
                                                  l4026 086C  
                                                  l4106 0801  
                                                  l4220 1571  
                                                  l4212 156D  
                                                  l4204 1569  
                                                  l4140 1545  
                                                  l4132 1539  
                                                  l4124 1531  
                                                  l4116 1527  
                                                  l4108 1517  
                                                  l4300 10A2  
                                                  l4060 08FC  
                                                  l4052 08D9  
                                                  l4044 08B5  
                                                  l4036 0892  
                                                  l4028 086E  
                                                  l4230 1577  
                                                  l4222 1572  
                                                  l4214 156E  
                                                  l4206 156A  
                                                  l4150 154D  
                                                  l4142 1547  
                                                  l4134 1540  
                                                  l4126 1534  
                                                  l4118 152A  
                                                  l4310 10B1  
                                                  l4302 10A5  
                                                  l4070 092A  
                                                  l4062 0904  
                                                  l4054 08E0  
                                                  l4046 08BD  
                                                  l4038 0899  
                                                  l3600 1424  
                                                  l4080 1FEA  
                                                  l4240 1580  
                                                  l4232 1579  
                                                  l4224 1573  
                                                  l4216 156F  
                                                  l4208 156B  
                                                  l4160 1552  
                                                  l4152 154E  
                                                  l4144 1548  
                                                  l4136 1542  
                                                  l4128 1537  
                                                  l4312 10B2  
                                                  l4304 10A6  
                                                  l4400 0F3C  
                                                  l4320 0E55  
                                                  l4072 092D  
                                                  l4064 0912  
                                                  l4056 08E7  
                                                  l4048 08CB  
                                                  l3610 093D  
                                                  l3602 1430  
                                                  l4082 1FF3  
                                                  l4250 1587  
                                                  l4242 1581  
                                                  l4234 157A  
                                                  l4226 1575  
                                                  l4218 1570  
                                                  l4170 1558  
                                                  l4162 1553  
                                                  l4154 154F  
                                                  l4146 154A  
                                                  l4138 1543  
                                                  l4314 10B3  
                                                  l4306 10AA  
                                                  l4410 0F5D  
                                                  l4402 0F3E  
                                                  l4330 0E74  
                                                  l4322 0E55  
                                                  l4066 0915  
                                                  l4058 08F9  
                                                  l4074 0934  
                                                  l3612 0943  
                                                  l3604 143E  
                                                  l3700 129E  
                                                  l4084 1FF6  
                                                  l4260 1466  
                                                  l4252 1589  
                                                  l4244 1582  
                                                  l4236 157C  
                                                  l4228 1576  
                                                  l4180 155D  
                                                  l4172 1559  
                                                  l4164 1554  
                                                  l4156 1550  
                                                  l4148 154B  
                                                  l4316 10B7  
                                                  l4308 10AD  
                                                  l4412 0F63  
                                                  l4404 0F45  
                                                  l4420 0F82  
                                                  l4340 0E9C  
                                                  l4332 0E7D  
                                                  l4324 0E5E  
                                                  l4068 091C  
                                                  l4076 0935  
                                                  l4500 14FD  
                                                  l3606 144C  
                                                  l3710 12AD  
                                                  l3702 12A1  
                                                  l4086 1FFC  
                                                  l4078 1FE8  
                                                  l4270 1487  
                                                  l4262 1469  
                                                  l4254 158B  
                                                  l4246 1583  
                                                  l4238 157E  
                                                  l4190 1562  
                                                  l4182 155E  
                                                  l4174 155A  
                                                  l4166 1555  
                                                  l4158 1551  
                                                  l4430 0F8C  
                                                  l4422 0F88  
                                                  l4414 0F6B  
                                                  l4406 0F4A  
                                                  l4350 0EDB  
                                                  l4342 0E9E  
                                                  l4334 0E86  
                                                  l4326 0E61  
                                                  l4318 0E50  
                                                  l4502 14FD  
                                                  l3608 144F  
                                                  l3800 06EC  
                                                  l3712 12B0  
                                                  l3704 12A4  
                                                  l3720 12D6  
                                                  l4088 1FFD  
                                                  l4272 148F  
                                                  l4264 146F  
                                                  l4256 158D  
                                                  l4248 1585  
                                                  l4192 1563  
                                                  l4184 155F  
                                                  l4176 155B  
                                                  l4168 1556  
                                                  l4600 17CE  
                                                  l4440 0FA9  
                                                  l4432 0F92  
                                                  l4424 0F8B  
                                                  l4416 0F70  
                                                  l4408 0F56  
                                                  l4352 0EDE  
                                                  l4344 0EAB  
                                                  l4336 0E89  
                                                  l4328 0E71  
                                                  l4504 1506  
                                                  l4280 10B9  
                                                  l3730 107F  
                                                  l3810 079A  
                                                  l3802 071E  
                                                  l3714 12B3  
                                                  l3706 12A7  
                                                  l4274 1497  
                                                  l4266 1477  
                                                  l4258 1456  
                                                  l4194 1564  
                                                  l4186 1560  
                                                  l4178 155C  
                                                  l4602 17DC  
                                                  l5410 1341  
                                                  l4450 0FB4  
                                                  l4442 0FAC  
                                                  l4434 0F9D  
                                                  l4418 0F81  
                                                  l4370 0EF9  
                                                  l4346 0EAF  
                                                  l4354 0EDF  
                                                  l4338 0E99  
                                                  l4506 150C  
                                                  l4290 10D3  
                                                  l4282 10BC  
                                                  l3660 0A09  
                                                  l3740 1362  
                                                  l3724 1074  
                                                  l3804 074D  
                                                  l3708 12AA  
                                                  l3820 1616  
                                                  l3900 0A7D  
                                                  l4276 149F  
                                                  l4268 147F  
                                                  l4620 1FC8  
                                                  l4196 1565  
                                                  l4188 1561  
                                                  l4612 17E4  
                                                  l4604 17DD  
                                                  l5412 135A  
                                                  l5404 131F  
                                                  l4460 0FC8  
                                                  l4452 0FB9  
                                                  l4436 0FA2  
                                                  l4380 0F03  
                                                  l4372 0EFF  
                                                  l4364 0EE9  
                                                  l4356 0EE5  
                                                  l4348 0EC0  
                                                  l5500 01E5  
                                                  l5420 0048  
                                                  l4508 150E  
                                                  l4292 10D8  
                                                  l4284 10C4  
                                                  l5340 1598  
                                                  l3662 0A10  
                                                  l3670 110F  
                                                  l3750 138C  
                                                  l3742 1364  
                                                  l3726 1079  
                                                  l3734 1082  
                                                  l3806 076D  
                                                  l3814 07D2  
                                                  l3718 12B6  
                                                  l3830 1641  
                                                  l3822 1618  
                                                  l3910 0A95  
                                                  l3902 0A85  
                                                  l4278 14A7  
                                                  l4198 1566  
                                                  l4614 17F1  
                                                  l4606 17E3  
                                                  l5414 135B  
                                                  l5406 1330  
                                                  l4294 1044  
                                                  l4470 0FE0  
                                                  l4462 0FC9  
                                                  l4454 0FBE  
                                                  l4438 0FA3  
                                                  l4390 0F19  
                                                  l4382 0F0E  
                                                  l4374 0F02  
                                                  l4366 0EF4  
                                                  l4358 0EE8  
                                                  l5510 0213  
                                                  l5502 01F2  
                                                  l5430 00A2  
                                                  l5422 0062  
                                                  l4286 10C7  
                                                  l5350 15B1  
                                                  l5342 159D  
                                                  l3664 0A13  
                                                  l3592 1403  
                                                  l3680 111C  
                                                  l3672 1111  
                                                  l3752 1393  
                                                  l3744 1367  
                                                  l3728 107C  
                                                  l3736 1090  
                                                  l3808 078C  
                                                  l3816 07EB  
                                                  l3840 1687  
                                                  l3832 1653  
                                                  l3824 161F  
                                                  l3920 0AA9  
                                                  l3912 0A99  
                                                  l3904 0A89  
                                                  l4616 17F2  
                                                  l4472 0FE5  
                                                  l4464 0FD0  
                                                  l4456 0FBF  
                                                  l4448 0FAD  
                                                  l4384 0F12  
                                                  l4368 0EF8  
                                                  l4392 0F22  
                                                  l5600 0548  
                                                  l5520 0235  
                                                  l5512 021C  
                                                  l5504 01FC  
                                                  l5424 006E  
                                                  l5432 00A5  
                                                  l5416 0041  
                                                  l4480 14AA  
                                                  l4288 10CC  
                                                  l5360 15CC  
                                                  l5352 15B6  
                                                  l5344 15A2  
                                                  l3666 0A14  
                                                  l3658 09C5  
                                                  l3594 1405  
                                                  l3682 111F  
                                                  l3674 1113  
                                                  l3690 113C  
                                                  l3762 13AA  
                                                  l3754 1397  
                                                  l3746 136F  
                                                  l3770 05B8  
                                                  l3818 07EE  
                                                  l3842 1698  
                                                  l3834 165B  
                                                  l3826 1635  
                                                  l3930 0ABD  
                                                  l3922 0AAD  
                                                  l3914 0A9D  
                                                  l3906 0A8D  
                                                  l4618 17F8  
                                                  l4570 1750  
                                                  l4298 1099  
                                                  l4474 0FED  
                                                  l4466 0FD5  
                                                  l4458 0FC5  
                                                  l4394 0F29  
                                                  l4386 0F13  
                                                  l3850 113E  
                                                  l5610 0586  
                                                  l5602 0554  
                                                  l5522 0246  
                                                  l5514 0220  
                                                  l5506 0208  
                                                  l5450 00FC  
                                                  l5442 00CA  
                                                  l5530 026A  
                                                  l5434 00AF  
                                                  l5426 0073  
                                                  l5418 0045  
                                                  l4490 14CB  
                                                  l4482 14AF  
                                                  l5370 15DB  
                                                  l5362 15CE  
                                                  l5354 15B7  
                                                  l5346 15A7  
                                                  l5338 1593  
                                                  l3596 140C  
                                                  l3684 1122  
                                                  l3676 1116  
                                                  l3756 13A2  
                                                  l3748 1376  
                                                  l3764 13AB  
                                                  l3780 0606  
                                                  l3772 05CE  
                                                  l3836 1672  
                                                  l3844 16A3  
                                                  l3828 163C  
                                                  l3940 0AD1  
                                                  l3932 0AC1  
                                                  l3924 0AB1  
                                                  l3916 0AA1  
                                                  l3908 0A91  
                                                  l4580 17B1  
                                                  l5620 100D  
                                                  l4476 0FF2  
                                                  l4468 0FD8  
                                                  l4396 0F2E  
                                                  l4388 0F19  
                                                  l3852 1144  
                                                  l5604 055C  
                                                  l5612 05A0  
                                                  l5540 02CE  
                                                  l5532 0274  
                                                  l5460 012B  
                                                  l5452 0103  
                                                  l5436 00B1  
                                                  l5428 0090  
                                                  l4492 14CD  
                                                  l4484 14B7  
                                                  l4900 0D77  
                                                  l5380 15F1  
                                                  l5372 15DF  
                                                  l5364 15D4  
                                                  l5356 15C1  
                                                  l5348 15AC  
                                                  l3598 1417  
                                                  l3678 1119  
                                                  l3758 13A6  
                                                  l3790 064F  
                                                  l3782 060D  
                                                  l3774 05D5  
                                                  l3766 05AE  
                                                  l3694 1296  
                                                  l3838 167A  
                                                  l3846 16A4  
                                                  l3942 0AD5  
                                                  l3934 0AC5  
                                                  l3926 0AB5  
                                                  l3918 0AA5  
                                                  l3870 0A24  
                                                  l4590 17C6  
                                                  l4582 17B7  
                                                  l5622 1011  
                                                  l4478 0FFA  
                                                  l4398 0F3A  
                                                  l3862 1160  
                                                  l3854 114D  
                                                  l5630 16AE  
                                                  l5606 0571  
                                                  l5550 0369  
                                                  l5542 02E5  
                                                  l5534 0276  
                                                  l5614 05A3  
                                                  l5518 022C  
                                                  l5470 0159  
                                                  l5462 0138  
                                                  l5526 024E  
                                                  l5454 0107  
                                                  l5438 00B9  
                                                  l5446 00DF  
                                                  l4494 14DB  
                                                  l4486 14BC  
                                                  l4910 0DA8  
                                                  l4902 0D8F  
                                                  l5390 1600  
                                                  l5382 15F2  
                                                  l5374 15E5  
                                                  l5366 15D5  
                                                  l5358 15C6  
                                                  l3688 1125  
                                                  l3792 065F  
                                                  l3784 0612  
                                                  l3776 05DA  
                                                  l3768 05B0  
                                                  l3696 1298  
                                                  l3848 1FD8  
                                                  l3960 0B08  
                                                  l3952 0AD6  
                                                  l3936 0AC9  
                                                  l3928 0AB9  
                                                  l3880 0A4C  
                                                  l3872 0A2C  
                                                  l4592 17C7  
                                                  l4576 1751  
                                                  l5624 1015  
                                                  l5616 1007  
                                                  l3864 1169  
                                                  l3856 1151  
                                                  l5720 13BE  
                                                  l5640 16BD  
                                                  l5632 16AF  
                                                  l5560 0409  
                                                  l5552 037F  
                                                  l5544 0324  
                                                  l5536 02A0  
                                                  l5528 0267  
                                                  l5480 017B  
                                                  l5472 0162  
                                                  l5464 0142  
                                                  l5456 0112  
                                                  l5448 00F3  
                                                  l4496 14E0  
                                                  l4488 14BE  
                                                  l4920 0DC7  
                                                  l4904 0D9E  
                                                  l4840 0CBB  
                                                  l5392 1605  
                                                  l5384 15F8  
                                                  l5368 15D6  
                                                  l5376 15EA  
                                                  l3794 066D  
                                                  l3786 062C  
                                                  l3778 05F0  
                                                  l3698 129B  
                                                  l3962 0B0C  
                                                  l3954 0AFC  
                                                  l3938 0ACD  
                                                  l3874 0A34  
                                                  l3866 0A17  
                                                  l4594 17CD  
                                                  l4578 17B0  
                                                  l5626 1019  
                                                  l5618 100A  
                                                  l3858 1157  
                                                  l5730 13E2  
                                                  l5722 13C1  
                                                  l5650 16F2  
                                                  l5642 16C3  
                                                  l5634 16B5  
                                                  l5570 043B  
                                                  l5562 0417  
                                                  l5554 038B  
                                                  l5546 033B  
                                                  l5538 02B7  
                                                  l5490 01B6  
                                                  l5482 018C  
                                                  l5474 0166  
                                                  l5466 014E  
                                                  l5458 011F  
                                                  l4498 14F7  
                                                  l4922 0DD3  
                                                  l4906 0DA1  
                                                  l5394 160A  
                                                  l5386 15F9  
                                                  l5378 15F0  
                                                  l3796 0697  
                                                  l3788 063F  
                                                  l3972 0B1C  
                                                  l3964 0B10  
                                                  l3956 0B00  
                                                  l3876 0A3C  
                                                  l3868 0A1C  
                                                  l3980 0B32  
                                                  l4588 17B8  
                                                  l5732 13F0  
                                                  l5724 13C7  
                                                  l5716 13B2  
                                                  l5652 170A  
                                                  l5644 16CC  
                                                  l5636 16BB  
                                                  l5580 0499  
                                                  l5564 041E  
                                                  l5556 03CA  
                                                  l5548 0352  
                                                  l5492 01BD  
                                                  l4940 0E08  
                                                  l4924 0DD6  
                                                  l4916 0DAB  
                                                  l4860 0D04  
                                                  l4844 0CC0  
                                                  l5396 160F  
                                                  l5388 15FB  
                                                  l3798 06B4  
                                                  l3974 0B2A  
                                                  l3966 0B14  
                                                  l3958 0B04  
                                                  l3878 0A44  
                                                  l3982 0B43  
                                                  l5398 131D  
                                                  l3990 11F6  
                                                  l5734 13F1  
                                                  l5726 13CB  
                                                  l5718 13B6  
                                                  l5750 11D4  
                                                  l5742 11A3  
                                                  l5654 1727  
                                                  l5646 16D8  
                                                  l5662 0814  
                                                  l5590 04E5  
                                                  l5582 04A0  
                                                  l5574 0456  
                                                  l5566 0426  
                                                  l5558 03F5  
                                                  l5494 01C1  
                                                  l5478 0172  
                                                  l5486 0194  
                                                  l4950 0E22  
                                                  l4942 0E0B  
                                                  l4934 0DE0  
                                                  l4918 0DBB  
                                                  l4870 0D1F  
                                                  l4862 0D15  
                                                  l4854 0CDF  
                                                  l4846 0CDC  
                                                  l3976 0B2E  
                                                  l3968 0B18  
                                                  l3896 0A50  
                                                  l3992 11FA  
                                                  l3984 11DD  
                                                  l5736 13F6  
                                                  l5728 13D0  
                                                  l5744 11AB  
                                                  l5760 1062  
                                                  l5656 1744  
                                                  l5648 16EF  
                                                  l5680 084B  
                                                  l5672 0823  
                                                  l5664 0815  
                                                  l5592 04FA  
                                                  l5584 04A6  
                                                  l5568 0434  
                                                  l5576 047C  
                                                  l5496 01CC  
                                                  l5488 01AD  
                                                  l4952 0E28  
                                                  l4936 0DF0  
                                                  l4928 0DDD  
                                                  l4880 0D3A  
                                                  l4864 0D16  
                                                  l4856 0CE9  
                                                  l4848 0CDD  
                                                  l4960 0E2F  
                                                  l3994 1204  
                                                  l3986 11DF  
                                                  l5738 13FA  
                                                  l5746 11C2  
                                                  l5762 1065  
                                                  l5754 1056  
                                                  l5658 174E  
                                                  l5682 0850  
                                                  l5674 082C  
                                                  l5666 081B  
                                                  l5594 050F  
                                                  l5586 04C0  
                                                  l5578 0487  
                                                  l5498 01D9  
                                                  l4946 0E18  
                                                  l4938 0DFC  
                                                  l4890 0D55  
                                                  l4882 0D44  
                                                  l4866 0D18  
                                                  l4858 0CFA  
                                                  l4962 0E40  
                                                  l3996 120E  
                                                  l3988 11E2  
                                                  l5748 11C7  
                                                  l5764 1068  
                                                  l5756 1058  
                                                  l5676 083C  
                                                  l5668 0821  
                                                  l5588 04D7  
                                                  l4964 0E47  
                                                  l4948 0E1E  
                                                  l4892 0D59  
                                                  l4884 0D4C  
                                                  l4876 0D21  
                                                  l4868 0D1E  
                                                  l3998 1211  
                                                  l5766 106E  
                                                  l5758 105C  
                                                  l5678 0842  
                                                  l5686 0858  
                                                  l5598 052C  
                                                  l4966 0E4B  
                                                  l4886 0D4D  
                                                  l4878 0D31  
                                                  l5688 0863  
                                                  l4968 0E4C  
                                                  l4888 0D4F  
                                                  l4898 0D5C  
                              _vd_PiloterRelaisBistable 1218  
                                                  _T0IE 005D  
                                                  _T0IF 005A  
                                                  u3200 1455  
                                                  u4000 1687  
                                                  u3201 1454  
                                                  u4001 1686  
                                                  u3210 0943  
                                                  u4010 16AA  
                                                  u3211 0942  
                                                  u4011 16A9  
                                                  u3300 0986  
                                                  u3220 094E  
                                                  u4100 0A4C  
                                                  u4020 1144  
                                                  u3301 0985  
                                                  u3221 094D  
                                                  u4021 1143  
                                                  u3310 098D  
                                                  u3230 0955  
                                                  u4110 0A89  
                                                  u4030 1157  
                                                  u3311 098C  
                                                  u3231 0954  
                                                  u4031 1156  
                                                  u3400 09BA  
                                                  u3320 0992  
                                                  u3240 095C  
                                                  u3160 1417  
                                                  u4200 0AD1  
                                                  u4120 0A91  
                                                  u4040 0A1C  
                                                  u3401 09B9  
                                                  u3321 0991  
                                                  u3241 095B  
                                                  u3161 1416  
                                                  u3410 09BF  
                                                  u3330 0997  
                                                  u3250 0963  
                                                  u3170 1430  
                                                  u4210 0B00  
                                                  u4130 0A99  
                                                  u4050 0A24  
                                                  u3411 09BE  
                                                  u3331 0996  
                                                  u3251 0962  
                                                  u3171 142F  
                                                  u3420 09C4  
                                                  u3340 099C  
                                                  u3260 096A  
                                                  u3180 144A  
                                                  u4220 0B08  
                                                  u4140 0AA1  
                                                  u4060 0A2C  
                                                  u4300 1220  
                                                  u3421 09C3  
                                                  u3341 099B  
                                                  u3261 0969  
                                                  u3181 1447  
                                                  u4301 121F  
                                                  u3430 0A10  
                                                  u3350 09A1  
                                                  u3270 0971  
                                                  u3510 0606  
                                                  u4230 0B10  
                                                  u4150 0AA9  
                                                  u4070 0A34  
                                                  u4310 086B  
                                                  u3431 0A0F  
                                                  u3351 09A0  
                                                  u3271 0970  
                                                  u3511 0605  
                                                  u4311 086A  
                                                  u3360 09A6  
                                                  u3280 0978  
                                                  u3440 136C  
                                                  u3600 065F  
                                                  u3520 060D  
                                                  u4240 0B18  
                                                  u4160 0AB1  
                                                  u4080 0A3C  
                                                  u4400 08C9  
                                                  u4320 0874  
                                                  u3361 09A5  
                                                  u3281 0977  
                                                  u3601 065E  
                                                  u3521 060C  
                                                  u3505 05E1  
                                                  u4401 08C6  
                                                  u4321 0873  
                                                  u3370 09AB  
                                                  u3290 097F  
                                                  u3194 144C  
                                                  u3450 138C  
                                                  u4250 0B2E  
                                                  u4170 0AB9  
                                                  u4090 0A44  
                                                  u4330 0878  
                                                  u3371 09AA  
                                                  u3291 097E  
                                                  u3451 138B  
                                                  u4331 0877  
                                                  u3380 09B0  
                                                  u3460 1393  
                                                  u3540 062C  
                                                  u4180 0AC1  
                                                  u4260 11E7  
                                                  u4420 08D9  
                                                  u4340 088E  
                                                  u3381 09AF  
                                                  u3461 1392  
                                                  u3445 1369  
                                                  u3541 062B  
                                                  u4421 08D8  
                                                  u4341 088D  
                                                  u3390 09B5  
                                                  u3470 13B1  
                                                  u4190 0AC9  
                                                  u4270 11F6  
                                                  u4510 093B  
                                                  u4430 08E0  
                                                  u4414 08CB  
                                                  u4350 0892  
                                                  u3391 09B4  
                                                  u3471 13B0  
                                                  u3615 0662  
                                                  u3535 0619  
                                                  u4271 11F5  
                                                  u4511 093A  
                                                  u4431 08DF  
                                                  u4351 0891  
                                                  u3560 063F  
                                                  u3480 05CE  
                                                  u4520 1FFC  
                                                  u4600 1487  
                                                  u4280 11FA  
                                                  u4504 092A  
                                                  u4440 08E7  
                                                  u4360 0899  
                                                  u3705 06C7  
                                                  u3625 0670  
                                                  u3561 063E  
                                                  u3481 05CD  
                                                  u4521 1FFB  
                                                  u4601 1486  
                                                  u4281 11F9  
                                                  u4265 11E4  
                                                  u4441 08E6  
                                                  u4361 0898  
                                                  u3650 0697  
                                                  u3490 05D5  
                                                  u4610 148F  
                                                  u4290 1217  
                                                  u4450 08F7  
                                                  u4370 08A0  
                                                  u3715 06D4  
                                                  u3651 0696  
                                                  u3635 067D  
                                                  u3555 062F  
                                                  u3491 05D4  
                                                  u4611 148E  
                                                  u4291 1216  
                                                  u4451 08F4  
                                                  u4371 089F  
                                                  _PEIE 005E  
                                                  u3580 064F  
                                                  u4620 1497  
                                                  u4700 0E7D  
                                                  u4380 08B0  
                                                  u7100 105C  
                                                  u3805 073E  
                                                  u3725 06E1  
                                                  u3645 068A  
                                                  u3581 064E  
                                                  u4621 1496  
                                                  u4701 0E7C  
                                                  u4381 08AD  
                                                  u7101 105B  
                                                  u3814 074C  
                                                  u4630 149F  
                                                  u4470 0910  
                                                  u7030 13BE  
                                                  u7110 106E  
                                                  u5510 0CBF  
                                                  u6310 15C1  
                                                  u3735 06EF  
                                                  u3575 0642  
                                                  u4631 149E  
                                                  u4471 090D  
                                                  u7031 13BD  
                                                  u7111 106D  
                                                  u6311 15C0  
                                                  u3840 076D  
                                                  u3760 071E  
                                                  u3680 06B4  
                                                  u4640 14A7  
                                                  u4720 0EE5  
                                                  u4464 08F9  
                                                  u7040 13CB  
                                                  u6400 004D  
                                                  u4800 150C  
                                                  u5520 0CE9  
                                                  u6320 15CC  
                                                  u3905 07AD  
                                                  u3841 076C  
                                                  u3825 0750  
                                                  u3761 071D  
                                                  u3745 06FF  
                                                  u3681 06B3  
                                                  u3665 069A  
                                                  u4641 14A6  
                                                  u4721 0EE4  
                                                  u7041 13CA  
                                                  u4801 150B  
                                                  u5521 0CE8  
                                                  u6321 15CB  
                                                  u4570 146F  
                                                  u4730 0EFF  
                                                  u4490 0928  
                                                  u4394 08B2  
                                                  u7050 13E2  
                                                  u6410 0062  
                                                  u5610 0D77  
                                                  u4650 10CC  
                                                  u6330 15D4  
                                                  u3915 07BA  
                                                  u3835 075E  
                                                  u3755 070C  
                                                  u3675 06A7  
                                                  u3595 0652  
                                                  u4571 146E  
                                                  u4731 0EFE  
                                                  u4715 0ECC  
                                                  u4491 0925  
                                                  u7051 13E1  
                                                  u6411 0061  
                                                  u5611 0D76  
                                                  u4651 10CB  
                                                  u6331 15D3  
                                                  u3940 07F4  
                                                  u4580 1477  
                                                  u4660 1044  
                                                  u4740 0F19  
                                                  u4484 0912  
                                                  u7060 13FA  
                                                  u6500 01B6  
                                                  u6420 0073  
                                                  u5700 0E47  
                                                  u5540 0D04  
                                                  u6340 15DF  
                                                  u3941 07F3  
                                                  u3925 07C7  
                                                  u4581 1476  
                                                  u4661 1041  
                                                  u4741 0F18  
                                                  u7061 13F9  
                                                  u6501 01B5  
                                                  u6421 0072  
                                                  u6405 004A  
                                                  u5701 0E46  
                                                  u5605 0D5F  
                                                  u5541 0D03  
                                                  u3870 078C  
                                                  u3790 074A  
                                                  u3950 1635  
                                                  u4590 147F  
                                                  u4670 1099  
                                                  u7070 11AB  
                                                  u6510 01BD  
                                                  u6430 0090  
                                                  u5710 0E4B  
                                                  u5630 0DA7  
                                                  u6350 15E5  
                                                  u3935 07D5  
                                                  u3871 078B  
                                                  u3855 0770  
                                                  u3791 0747  
                                                  u3775 0721  
                                                  u3695 06B7  
                                                  u3951 1634  
                                                  u4591 147E  
                                                  u4671 1098  
                                                  u7055 13DE  
                                                  u7071 11AA  
                                                  u6511 01BC  
                                                  u6431 008F  
                                                  u5631 0DA6  
                                                  u5535 0CEC  
                                                  u6351 15E4  
                                                  u3960 163C  
                                                  u4680 10AA  
                                                  u4760 0F88  
                                                  u6520 021C  
                                                  u6440 00AF  
                                                  u5640 0DBB  
                                                  u5560 0D1E  
                                                  u6360 15F0  
                                                  u3865 077D  
                                                  u3785 072F  
                                                  u3961 163B  
                                                  u4905 1771  
                                                  u4681 10A9  
                                                  u4761 0F87  
                                                  u7081 11B4  
                                                  u6521 021B  
                                                  u6441 00AE  
                                                  u5641 0DBA  
                                                  u5625 0D80  
                                                  u5561 0D1D  
                                                  u6361 15EF  
                                                  u3970 1653  
                                                  u4690 10B7  
                                                  u4770 0FA9  
                                                  u7090 11D4  
                                                  u7082 11BB  
                                                  u6610 02CE  
                                                  u6530 0235  
                                                  u6450 00FC  
                                                  u5650 0DDC  
                                                  u5570 0D31  
                                                  u6370 15F8  
                                                  u3971 1652  
                                                  u4915 177E  
                                                  u4691 10B6  
                                                  u4771 0FA8  
                                                  u4755 0F73  
                                                  u7091 11D3  
                                                  u7083 11C2  
                                                  u6611 02CD  
                                                  u6531 0234  
                                                  u6451 00FB  
                                                  u5651 0DDB  
                                                  u5571 0D30  
                                                  u5555 0D07  
                                                  u6371 15F7  
                                                  u3980 165B  
                                                  u4780 0FC5  
                                                  u6620 02E5  
                                                  u6540 0246  
                                                  u6460 0103  
                                                  u5660 0DF0  
                                                  u5580 0D44  
                                                  u3885 078F  
                                                  u3981 165A  
                                                  u4925 178B  
                                                  u4781 0FC4  
                                                  u6621 02E4  
                                                  u6605 02BE  
                                                  u6541 0245  
                                                  u6461 0102  
                                                  u5661 0DEF  
                                                  u5581 0D43  
                                                  u3990 1672  
                                                  u4950 17B7  
                                                  u6390 1361  
                                                  u6710 038B  
                                                  u6550 0274  
                                                  u6470 0162  
                                                  u4790 14FD  
                                                  u5670 0E11  
                                                  u5590 0D55  
                                                  u3895 079D  
                                                  u3991 1671  
                                                  u4951 17B6  
                                                  u4935 1798  
                                                  u6391 1360  
                                                  u6711 038A  
                                                  u6551 0273  
                                                  u6471 0161  
                                                  u4791 14FC  
                                                  u5671 0E10  
                                                  u5591 0D54  
                                                  u4960 17CD  
                                                  u6480 017B  
                                                  u5680 0E18  
                                                  u4961 17CC  
                                                  u4945 17A6  
                                                  u6385 1344  
                                                  u6705 0374  
                                                  u6481 017A  
                                                  u5681 0E17  
                                                  u4970 17E3  
                                                  u6810 0487  
                                                  u6490 018C  
                                                  u5690 0E22  
                                                  u4971 17E2  
                                                  u6811 0486  
                                                  u6635 0307  
                                                  u6491 018B  
                                                  u5691 0E21  
                                                  u4980 17F8  
                                                  u6900 16B5  
                                                  u6820 0499  
                                                  u6660 033B  
                                                  u4981 17F7  
                                                  u4885 1754  
                                                  u6901 16B4  
                                                  u6821 0498  
                                                  u6805 045B  
                                                  u6725 03AD  
                                                  u6661 033A  
                                                  u6645 0318  
                                                  u6565 0283  
                                                  u6910 16BB  
                                                  u6830 04A6  
                                                  u6590 02B7  
                                                  u4895 1764  
                                                  u6911 16BA  
                                                  u6831 04A5  
                                                  u6735 03BE  
                                                  u6655 032B  
                                                  u6591 02B6  
                                                  u6575 0294  
                                   ??_vd_InitVariables2 005A  
                                                  u6920 16C3  
                                                  u6840 04C0  
                                                  u6680 0352  
                                                  u6921 16C2  
                                                  u6841 04BF  
                                                  u6745 03D8  
                                                  u6681 0351  
                                                  u6585 02A7  
                                                  u6930 16D8  
                                                  u6850 04E5  
                                                  u6770 0409  
                                                  u6690 0369  
                                                  u6931 16D7  
                                                  u6851 04E4  
                                                  u6771 0408  
                                                  u6755 03E9  
                                                  u6691 0368  
                                                  u6675 0342  
                                                  u6940 16EF  
                                                  u6780 0417  
                                                  u6941 16EE  
                                                  u6781 0416  
                                                  u6765 03FC  
                                                  u6950 081B  
                                                  u6870 0554  
                                                  u6790 0434  
                                                  u6951 081A  
                                                  u6871 0553  
                                                  u6791 0433  
                                                  u6960 0821  
                                                  u6961 0820  
                                                  u6865 0533  
                                                  u6970 082C  
                                                  u6890 05AD  
                                                  u6971 082B  
                                                  u6891 05AC  
                                                  u6980 084B  
                                                  u6981 084A  
                                                  u6885 058B  
                                                  u6990 0850  
                                                  u6991 084F  
                                                  _TMR0 0001  
                                                  _WCOL 00A7  
                                           _SSP_Handler 0B52  
                                                  _WREN 0C62  
                                        ??_eeprom_write 0055  
               vd_PiloteSortieVariateur@uc_NumeroSortie 0071  
                                ?_vd_PilotageVariateurs 0070  
                                                  _main 1593  
                       vd_PiloterSortie@uc_NumeroSortie 0054  
                                                  btemp 007E  
                                                  ltemp 007E  
                                                  start 000E  
                                                  ttemp 007E  
                      __end_of_us_CalculerCRCSurUnOctet 103A  
                                                  wtemp 007E  
       vd_PiloterRelaisBistable@uc_NumeroRelaisBistable 0057  
                                       __end_of_ReadI2C 1004  
                             __end_of_vd_InitVariables2 1362  
                           _uc_compteur_ecriture_eeprom 0049  
                           ??_uc_EntreeVoletEntreeCarte 0054  
                                                 ?_main 0070  
                                                 _EEADR 010D  
                                         __CFG_WDTE$OFF 0000  
                                                 _CARRY 0018  
                                                 _ANSEL 0091  
                                       __end_of___lldiv 1403  
                                                 _T2CON 0012  
                                                 i1l212 131C  
                                                 i1l530 125E  
                                                 i1l540 1276  
                                                 i1l533 1260  
                                                 i1l542 1294  
                                                 i1l534 1266  
                                                 i1l536 1268  
                                                 i1l537 126E  
                                                 i1l529 1258  
                                                 i1l539 1270  
                                                 i1l658 119A  
                                                 i1l942 0C41  
                                                 i1l953 0BB6  
                                                 i1l970 0CBA  
                                                 i1l971 0CAC  
                                                 i1l939 0B80  
                                                 i1l965 0C3E  
                                                 i1l990 1003  
                                                 i1l982 0CBA  
                                                 i1l959 0C17  
                                                 i1l985 07F6  
                                                 i1l969 0C59  
                                                 i1l986 07FD  
                                                 i1l978 0C96  
                                                 i1l987 07FE  
                                                 _PORTA 0005  
                                                 _PORTB 0006  
                                                 _PORTC 0007  
                                                 _PORTD 0008  
                                                 _PORTE 0009  
                                                 _PORTF 0188  
                                                 _PORTG 0189  
                                  vd_Sauve_Etat@address 0058  
                                                 _TRISA 0085  
                                                 _TRISB 0086  
                                                 _TRISC 0087  
                                                 _TRISD 0088  
                                                 _SSPIE 0463  
                                                 _TRISE 0089  
                                                 _TRISF 0185  
                                                 _SSPIF 0063  
                                                 _TRISG 0187  
                           vd_PiloterRelais@l_us_Masque 0059  
                                                 _SSPOV 00A6  
                                   ___lmul@multiplicand 0058  
                                                 _TxBuf 004C  
                            __size_of_vd_PiloterSorties 0010  
                                        ??_vd_I2C_Setup 0054  
                                           _RXByteCount 002F  
                                                 pclath 000A  
                                    _uc_ENTREE_VOLET_NB 0042  
                                                 ltemp0 007E  
                                                 ltemp1 0082  
                                                 ltemp2 0086  
                                                 ltemp3 0080  
                                                 ttemp0 007E  
                                                 ttemp1 0081  
                                                 ttemp2 0084  
                                                 ttemp3 0087  
                                                 ttemp4 007F  
                            vd_Lit_Config@l_uc_Compteur 005A  
                                                 status 0003  
                                                 wtemp0 007E  
                                                 wtemp1 0080  
                                                 wtemp2 0082  
                                                 wtemp3 0084  
                                                 wtemp4 0086  
                                                 wtemp5 0088  
                                                 wtemp6 007F  
                                       __initialization 0011  
                       __end_of_uc_EntreeTOREntreeCarte 113E  
                                          __end_of_main 1616  
                           __size_of_vd_AnalyserEntrees 0010  
                        __size_of_vd_AcquisitionEntrees 0053  
                                __size_of_uc_EtatEntree 00DA  
                         __end_of_vd_AcquisitionEntrees 1456  
                       vd_PiloteSortieVariateur@uc_Etat 0070  
                                                ??_main 006B  
                                     ?_vd_ConfigBornier 0070  
                                ?_vd_AnalyserEntreesTOR 0070  
                                    ??_vd_ConfigBornier 0054  
                 vd_AnalyserEntreesVolets@l_uc_Compteur 005A  
                              ??_us_CalculerCRCSurTrame 0076  
                                                _EEDATA 010C  
                                                _CCPR2L 001B  
                                                _EECON1 018C  
                                                _EECON2 018D  
                                      __end_of_WriteI2C 07FF  
                                                _LCDCON 0107  
                                                i1l1041 110D  
                                                i1l1050 1039  
                                                i1l1046 1028  
                                                i1l1047 1039  
                                                i1l1049 1037  
                                                i1l4102 1278  
                             _uc_EntreeVoletEntreeCarte 1295  
                                                i1l4104 1286  
                                                i1l4090 1257  
                                                i1l5130 12EB  
                                                i1l4092 125C  
                                                i1l5132 12F3  
                                                i1l5124 12D8  
                                                i1l4094 1264  
                                                i1l5134 12FC  
                                                i1l5126 12DE  
                                                i1l4096 126C  
                                                i1l5136 1303  
                                                i1l5128 12DF  
                                                i1l4098 1274  
                                                i1l5138 131B  
                                                i1l5700 101E  
                                                i1l5710 102F  
                                                i1l5702 1020  
                                                i1l5712 1034  
                                                i1l5704 1021  
                                                i1l5800 0B73  
                                                i1l5810 0B84  
                                                i1l5802 0B75  
                                                i1l5708 102C  
                                                i1l5900 0C5D  
                                                i1l5820 0B96  
                                                i1l5812 0B88  
                                                i1l5804 0B77  
                                                i1l5910 0C6E  
                                                i1l5902 0C61  
                                                i1l5830 0BAD  
                                                i1l5822 0B9A  
                                                i1l5814 0B8C  
                                                i1l5806 0B78  
                                                i1l5920 0C88  
                                                i1l5912 0C70  
                                                i1l5824 0B9D  
                                                i1l5816 0B92  
                                                i1l5808 0B7C  
                                                i1l5770 10E0  
                                                i1l5914 0C72  
                                                i1l5906 0C66  
                                                i1l5850 0BD9  
                                                i1l5834 0BB0  
                                                i1l5842 0BB9  
                                                i1l5826 0BA7  
                                                i1l5818 0B94  
                                                i1l5692 1002  
                                                i1l5780 1109  
                                                i1l5772 10E5  
                                                i1l5924 0C8F  
                                                i1l5908 0C68  
                                                i1l5932 0C9E  
                                                i1l5860 0BF9  
                                                i1l5844 0BCD  
                                                i1l5852 0BDC  
                                                i1l5940 116E  
                                                i1l5774 10E7  
                                                i1l5934 0CB0  
                                                i1l5918 0C79  
                                                i1l5870 0C18  
                                                i1l5862 0C06  
                                                i1l5846 0BD2  
                                                i1l5838 0BB3  
                                                i1l5790 0B5F  
                                                i1l5950 1181  
                                                i1l5942 1172  
                                                i1l5696 07F7  
                                                i1l5776 1102  
                                                i1l5936 0CB4  
                                                i1l5928 0C97  
                                                i1l5880 0C2C  
                                                i1l5872 0C1F  
                                                i1l5864 0C10  
                                                i1l5856 0BE3  
                                                i1l5848 0BD3  
                                                i1l5792 0B63  
                                                i1l5784 0B52  
                                                i1l5960 1195  
                                                i1l5952 1186  
                                                i1l5944 1176  
                                                i1l5698 07F9  
                                                i1l5778 1103  
                                                i1l5938 0CB8  
                                                i1l5890 0C45  
                                                i1l5882 0C36  
                                                i1l5874 0C23  
                                                i1l5866 0C12  
                                                i1l5858 0BE9  
                                                i1l5794 0B67  
                                                i1l5786 0B57  
                                                i1l5954 1188  
                                                i1l5946 1179  
                                                i1l5892 0C49  
                                                i1l5884 0C37  
                                                i1l5876 0C25  
                                                i1l5868 0C13  
                                                i1l5796 0B68  
                                                i1l5788 0B5B  
                                                i1l5948 117F  
                                                i1l5956 1189  
                                                i1l5894 0C4D  
                                                i1l5878 0C2B  
                                                i1l5886 0C38  
                                                i1l5798 0B6C  
                                                i1l5958 118F  
                                                i1l5896 0C51  
                                                i1l5888 0C3F  
                                                i1l5898 0C52  
                                                u700_20 07FD  
                                                u700_21 07FC  
                                                u701_20 1027  
                                                u453_20 125C  
                                                _LVDCON 0109  
                                                u701_21 1026  
                                                u702_20 102C  
                                                u454_20 1264  
                                                u702_21 102B  
                                                u455_20 126C  
                                                u712_20 1109  
                                                u720_20 0B8C  
                                                u456_20 1274  
                                                u712_21 1108  
                                                u720_21 0B8B  
                                                u721_20 0B92  
                                                u713_20 0B5B  
                                                u721_21 0B91  
                                                u713_21 0B5A  
                                                u730_20 0C3E  
                                                u722_20 0B9A  
                                                u714_20 0B5F  
                                                _OSCCON 008F  
                                                u730_21 0C3D  
                                                u722_21 0B99  
                                                u714_21 0B5E  
                                                u731_20 0C45  
                                                u723_20 0BAC  
                                                u715_20 0B63  
                                                u731_21 0C44  
                                                u723_21 0BAB  
                                                u715_21 0B62  
                                                u740_20 0CB8  
                                                u732_20 0C49  
                                                u724_20 0BD9  
                                                u716_20 0B67  
                                                u740_21 0CB7  
                                                u732_21 0C48  
                                                u724_21 0BD8  
                                                u716_21 0B66  
                                                u733_20 0C4D  
                                                u725_20 0BE2  
                                                u717_20 0B7C  
                                                u741_20 1172  
                                                u733_21 0C4C  
                                                u725_21 0BE1  
                                                u717_21 0B7B  
                                                u741_21 1171  
                                                u734_20 0C51  
                                                u726_20 0BE9  
                                                u718_20 0B84  
                                                u742_20 1176  
                                                u734_21 0C50  
                                                u726_21 0BE8  
                                                u718_21 0B83  
                                                u742_21 1175  
                                                u735_20 0C5D  
                                                u727_20 0C10  
                                                u719_20 0B88  
                                                u743_20 117F  
                                                u735_21 0C5C  
                                                u727_21 0C0F  
                                                u719_21 0B87  
                                                u743_21 117E  
                                                u727_25 0C0C  
                                                u736_20 0C61  
                                                u728_20 0C1F  
                                                u744_20 118F  
                                                u736_21 0C60  
                                                u728_21 0C1E  
                                                u744_21 118E  
                                                u737_20 0C65  
                                                u729_20 0C2B  
                                                u745_20 1195  
                                                u737_21 0C64  
                                                u729_21 0C2A  
                                                u745_21 1194  
                                                u738_20 0CB0  
                                                u594_20 12DE  
                                                u738_21 0CAF  
                                                u594_21 12DD  
                                                u739_20 0CB4  
                                                u595_20 12EB  
                                                u739_21 0CB3  
                                                u595_21 12EA  
                                                u596_20 12F3  
                                                u596_21 12F2  
                                                _TMR2IE 0461  
                                                _TMR2IF 0061  
                              __end_of_us_CodeVariateur 101E  
                                                _SSPADD 0093  
                                                _SSPCON 0014  
                                                _SSPBUF 0013  
                                     ?_vd_Verif_Version 0070  
                                             ??_ReadI2C 0070  
                                                _CmdBuf 01BA  
                                    ??_vd_Verif_Version 0056  
                                  __size_of_eeprom_read 001C  
                                                ___lmul 11A3  
                                                ___wmul 1056  
                                             ??___lldiv 005C  
                              ?_vd_TraitementApplicatif 0070  
                            __size_of_vd_InitVariables2 0045  
                                                _us_CRC 0028  
                      __end_of_vd_PiloteSortieVariateur 1295  
                                  __end_of_eeprom_write 10B9  
                                         ?_vd_InitMicro 0070  
                                          WriteI2C@data 0070  
                     __size_of_us_CalculerCRCSurUnOctet 001C  
                             ?_us_CalculerCRCSurUnOctet 0070  
                                         ?_uc_StopVolet 0054  
                                                saved_w 007E  
                  vd_AcquisitionEntrees@l_uc_EtatEntree 0057  
                  __end_of_vd_AnalyserEntreesVariateurs 07F5  
                 __size_of_vd_AnalyserEntreesVariateurs 0247  
                          _vd_AnalyserEntreesVariateurs 05AE  
                        vd_InitVariables2@l_uc_Compteur 005B  
                                         _uc_EtatEntree 093C  
                              __end_of_vd_InitVariables 1800  
                      us_CalculerCRCSurUnOctet@l_us_CRC 0070  
                             __size_of_vd_PiloterRelais 003B  
                               __end_of__initialization 003D  
                                       eeprom_read@addr 0054  
                             __size_of_vd_PiloterSortie 013C  
                                     vd_Sauve_Etat@data 0056  
                                        __pcstackCOMMON 0070  
                                          __pidataBANK0 07FF  
                                  __end_of_vd_I2C_Setup 1FD0  
                                __size_of_vd_Lit_Config 01B0  
                                        ??_vd_InitMicro 0054  
                                            __end_of_IT 11A3  
                            ??_vd_PiloterRelaisBistable 0057  
                                        ??_uc_StopVolet 0055  
                                     eeprom_write@value 0054  
                                        ?_uc_EtatEntree 0070  
                               ??_vd_PilotageVariateurs 0072  
                       __size_of_us_CalculerCRCSurTrame 002E  
                                       _uc_VARIATEUR_NB 0047  
                          uc_EtatEntree@l_uc_EtatEntree 0055  
                                            __pbssBANK0 0020  
                                            __pbssBANK1 00A0  
                                            __pbssBANK2 0120  
                                            __pbssBANK3 01A0  
                                          ?_SSP_Handler 0070  
                            ?_vd_PiloterRelaisBistables 0070  
                         ?_vd_AnalyserEntreesVariateurs 0070  
                               __size_of_uc_EteintLampe 00A5  
                                          SSP_Handler@i 0052  
                                          SSP_Handler@j 0053  
                              _vd_AnalyserEntreesVolets 1616  
                                __size_of_vd_PiloterLed 0030  
                                     IT@s_uc_TempoStart 002E  
       vd_AnalyserEntreesVolets@l_uc_EntreeVoletRoulant 0059  
                                            __pmaintext 1593  
                            vd_Sauve_Etat@l_uc_Compteur 0057  
                                __size_of_vd_Sauve_Etat 006D  
                                               ?___lmul 0054  
                                               ?___wmul 0054  
                                            __pintentry 0004  
                                               _CCP2CON 001D  
                                        ___lmul@product 005C  
                                               _I2CStat 007C  
                                             ?_WriteI2C 0070  
                      uc_EteintLampe@s_us_CompteurLampe 01A0  
                                         _RXBufferIndex 007D  
                     vd_Traitement_I2C@l_uc_RelaisSens1 005D  
                     vd_Traitement_I2C@l_uc_RelaisSens2 005C  
                    vd_AnalyserEntreesTOR@l_uc_Compteur 005B  
                                         _vd_Lit_Config 0E50  
                                               _SSPSTAT 0094  
                                 _uc_CdeRelaisBistables 0120  
                uc_EntreeVoletEntreeCarte@l_uc_Compteur 0055  
                     __size_of_vd_PiloteSortieVariateur 003F  
                             ?_vd_PiloteSortieVariateur 0070  
               vd_ArretPilotageRelaisBist@l_uc_Compteur 0057  
                                               _ReadI2C 1002  
                    __size_of_uc_EntreeVoletEntreeCarte 0043  
                               SSP_Handler@l_us_CRCRecu 0050  
                                 __size_of_eeprom_write 0027  
                                _us_CalculerCRCSurTrame 10E0  
                                       __size_of___lmul 003A  
                                               ___lldiv 13B2  
                                       __size_of___wmul 001D  
                         vd_PiloterRelais@l_uc_Compteur 005B  
                                            ??_WriteI2C 0070  
                                               __ptext1 10B9  
                                               __ptext2 0CBB  
                                               __ptext3 14AA  
                                               __ptext4 0041  
                                               __ptext5 0811  
                                               __ptext6 16AB  
                                               __ptext7 1056  
                                               __ptext8 11A3  
                                               __ptext9 13B2  
                               ??_vd_AnalyserEntreesTOR 0056  
                              ?_uc_EntreeTOREntreeCarte 0070  
                                         _vd_PiloterLed 113E  
                                       ??_uc_EtatEntree 0054  
                                         _vd_Sauve_Etat 14AA  
                                            _s_uc_PortA 0034  
                                            _s_uc_PortB 0035  
                                            _s_uc_PortC 0036  
                                            _s_uc_PortD 0037  
                                            _s_uc_PortE 0038  
                                            _s_uc_PortF 0039  
                                        ?_vd_Lit_Config 0070  
                                               clrloop0 1FD1  
                                  end_of_initialization 003D  
                        ?_uc_EntreeVariateurEntreeCarte 0070  
                                      _vd_PiloterRelais 11DD  
                                  __end_of_vd_InitMicro 1593  
                                          _eeprom_write 1092  
                                      _vd_PiloterSortie 0A16  
                                     ?_us_CodeVariateur 0054  
                             __size_of_vd_ConfigBornier 0054  
                                 __size_of_vd_I2C_Setup 0008  
                                       ___lldiv@divisor 0054  
                            __end_of_vd_AnalyserEntrees 1FE8  
                                    ??_us_CodeVariateur 0057  
                                  __end_of_uc_StopVolet 0865  
                                       ___lldiv@counter 0060  
                                            _st_Entrees 01D3  
                        ??_vd_AnalyserEntreesVariateurs 0056  
                                  vd_Lit_Config@address 005B  
                                   _st_EntreesVariateur 00A0  
                          ??_vd_ArretPilotageRelaisBist 0057  
                     __end_of_uc_EntreeVoletEntreeCarte 12D8  
                                      _us_SortiesRelais 002C  
                      vd_PilotageVariateurs@s_uc_NumVar 004B  
             uc_EntreeTOREntreeCarte@uc_NumeroEntreeTOR 0054  
                      vd_AnalyserEntreesTOR@l_us_Masque 0059  
                             __size_of_vd_Verif_Version 0027  
                      __end_of_vd_PiloterRelaisBistable 1256  
                                 _vd_AcquisitionEntrees 1403  
                                        ?_vd_PiloterLed 0070  
                             uc_EteintLampe@l_ul_Valeur 0064  
                                        _uc_CompteurLED 003F  
                                      uc_StopVolet@mode 0054  
                                        _uc_CompteurAcq 003B  
                                        ?_vd_Sauve_Etat 0070  
                      __size_of_vd_TraitementApplicatif 056D  
                                          _vd_I2C_Setup 1FC8  
                                     ?_vd_InitVariables 0070  
                        uc_StopVolet@s_uc_CompteurVolet 00E9  
                                        _uc_EteintLampe 16AB  
                   __size_of_vd_ArretPilotageRelaisBist 0018  
                                         ??_eeprom_read 0054  
         uc_EntreeVoletEntreeCarte@uc_NumeroEntreeVolet 0054  
                                  __size_of_SSP_Handler 0169  
                                    ??_vd_InitVariables 0054  
                                      _us_CdeVariateurs 00E1  
                                        __end_of___lmul 11DD  
                                        __end_of___wmul 1073  
                                   start_initialization 0011  
                                       ??_vd_Lit_Config 0056  
                    us_CalculerCRCSurUnOctet@l_uc_Octet 0072  
                            ??_vd_AnalyserEntreesVolets 0056  
                                __end_of_uc_EteintLampe 1750  
                        __size_of_vd_PilotageVariateurs 0045  
                           ??_vd_PiloterRelaisBistables 0058  
                         __end_of_vd_PilotageVariateurs 131D  
                                     _vd_Traitement_I2C 0CBB  
                          vd_Traitement_I2C@l_uc_masque 005E  
                                    ?_vd_Traitement_I2C 0070  
                                              ??___lmul 005C  
                                              ??___wmul 0058  
                                   __end_of_eeprom_read 1056  
                                _uc_ENTREE_VARIATEUR_NB 0041  
                                           __pdataBANK0 006B  
                                   ??_vd_Traitement_I2C 005A  
                                ?_vd_AcquisitionEntrees 0070  
                              _us_CalculerCRCSurUnOctet 101E  
                                       ??_vd_PiloterLed 0057  
                                       ??_vd_Sauve_Etat 0056  
                                     __size_of_WriteI2C 000A  
                                           __pbssCOMMON 007C  
                                             ___latbits 0002  
                                         __pcstackBANK0 0050  
                                         __pcstackBANK3 01E9  
                         vd_PiloterSortie@uc_TypeSortie 0056  
                                 __size_of_vd_InitMicro 007C  
                       us_CalculerCRCSurTrame@uc_Buffer 0073  
                                       ?_uc_EteintLampe 0061  
                             __end_of_vd_Traitement_I2C 0E50  
                                      eeprom_write@addr 0055  
                                 __size_of_uc_StopVolet 0054  
                     __size_of_vd_PiloterRelaisBistable 003E  
                                              ?_ReadI2C 0070  
                                      _vd_ConfigBornier 1456  
                             ?_vd_PiloterRelaisBistable 0070  
                               ?_us_CalculerCRCSurTrame 0073  
                    vd_AcquisitionEntrees@l_uc_Compteur 0058  
                    __end_of_vd_ArretPilotageRelaisBist 2000  
                            _vd_ArretPilotageRelaisBist 1FE8  
                                              ?___lldiv 0054  
                             _vd_PiloterRelaisBistables 0865  
                              __end_of_vd_PiloterRelais 1218  
                                      _vd_Verif_Version 10B9  
                                          _vd_InitMicro 1517  
                              __end_of_vd_PiloterSortie 0B52  
                        __size_of_vd_AnalyserEntreesTOR 0050  
                         __end_of_vd_AnalyserEntreesTOR 13B2  
                               _vd_TraitementApplicatif 0041  
                                          _uc_StopVolet 0811  
                            uc_EteintLampe@uc_Num_Lampe 0068  
                                       _uc_I2C_activity 0043  
                                      _uc_TempsCdeLampe 00B0  
                vd_PiloterRelaisBistables@l_uc_Compteur 0059  
                                           __size_of_IT 0035  
                                      _uc_TempsCdeVolet 0020  
                                     interrupt_function 0004  
                                        ___wmul@product 0058  
                      __size_of_uc_EntreeTOREntreeCarte 0030  
                        __end_of_us_CalculerCRCSurTrame 110E  
                                             clear_ram0 1FD0  
                                           _eeprom_read 103A  
               vd_TraitementApplicatif@l_uc_RelaisSens1 01EC  
               vd_TraitementApplicatif@l_uc_RelaisSens2 01EB  
                               uc_StopVolet@uc_NumVolet 0057  
            uc_EntreeVariateurEntreeCarte@l_uc_Compteur 0055  
                             vd_Verif_Version@l_uc_Data 0056  
                     us_CalculerCRCSurTrame@uc_NbOctets 0075  
                                          _SensBufIndex 0030  
                       ??_uc_EntreeVariateurEntreeCarte 0054  
                                              _b1_BT_1S 0031  
                   vd_AnalyserEntreesTOR@l_uc_EntreeTOR 005C  
                             __size_of_us_CodeVariateur 001A  
                                     ___wmul@multiplier 0054  
                                    _vd_AnalyserEntrees 1FD8  
                                              _RXBuffer 012C  
                          uc_EtatEntree@uc_NumeroEntree 0054  
                      __end_of_vd_AnalyserEntreesVolets 16AB  
                            _uc_compteur_lecture_eeprom 004A  
                             _st_SortiesRelaisBistables 00C9  
                                   ?_vd_AnalyserEntrees 0070  
                              us_CodeVariateur@c_valeur 0057  
                              _vd_PiloteSortieVariateur 1256  
                                 __end_of_uc_EtatEntree 0A16  
                                     ___lmul@multiplier 0054  
                               vd_Verif_Version@address 0057  
                            __size_of_vd_Traitement_I2C 0195  
                                           _uc_VOLET_NB 0048  
                                         _st_Variateurs 00D5  
                                      __size_of_ReadI2C 0002  
vd_PiloterRelaisBistables@s_uc_CompteurCommandeMaintenu 006B  
                                  ??_vd_AnalyserEntrees 005D  
                                         _us_EntreesTOR 002A  
                             __size_of_vd_InitVariables 00B0  
                                      __size_of___lldiv 0051  
                            ?_uc_EntreeVoletEntreeCarte 0070  
                                              _WriteI2C 07F5  
                             ??_vd_TraitementApplicatif 0069  
 uc_EntreeVariateurEntreeCarte@uc_NumeroEntreeVariateur 0054  
      vd_AnalyserEntreesVariateurs@l_uc_EntreeVariateur 0059  
                                              __ptext10 0801  
                                              __ptext11 0865  
                                              __ptext20 1750  
                                              __ptext12 1218  
                                              __ptext21 1517  
                                              __ptext13 11DD  
                                              __ptext30 1073  
                                              __ptext22 1FC8  
                                              __ptext14 113E  
                                              __ptext31 1362  
                                              __ptext23 1456  
                                              __ptext15 0E50  
                                              __ptext40 101E  
                                              __ptext32 110E  
                                              __ptext24 1FE8  
                                              __ptext16 1092  
                                              __ptext41 07F5  
                                              __ptext33 1403  
                                              __ptext25 0A16  
                                              __ptext17 103A  
                                              __ptext42 1002  
                                              __ptext34 093C  
                                              __ptext26 1FD8  
                                              __ptext18 131D  
                                              __ptext35 116E  
                                              __ptext27 1616  
                                              __ptext19 1004  
                                              __ptext36 12D8  
                                              __ptext28 1295  
                                              __ptext37 1256  
                                              __ptext29 05AE  
                                              __ptext38 0B52  
                                              __ptext39 10E0  
                                          _st_Commandes 003A  
                                  uc_EteintLampe@l_stop 0063  
                                         ??_SSP_Handler 0078  
                                              _uc_NB_ES 0044  
                                              _l_us_CRC 0026  
                                              _uc_RB_NB 0045  
                                              _uc_RM_NB 0046  
                                         __size_of_main 0083  
                           uc_EteintLampe@us_Etat_Lampe 0061  
                            ??_us_CalculerCRCSurUnOctet 0073  
                               ??_vd_AcquisitionEntrees 0056  
                               vd_PiloterSortie@uc_Etat 0055  
                  vd_TraitementApplicatif@l_uc_Compteur 01ED  
                           us_CodeVariateur@l_us_valeur 0058  
                 __end_of_uc_EntreeVariateurEntreeCarte 1092  
                __size_of_uc_EntreeVariateurEntreeCarte 001F  
                         _uc_EntreeVariateurEntreeCarte 1073  
                        vd_Traitement_I2C@l_uc_Compteur 005F  
                              __end_of_vd_ConfigBornier 14AA  
                                      ??_uc_EteintLampe 0063  
                                _st_EntreesVoletRoulant 00BD  
                    __size_of_vd_PiloterRelaisBistables 00D7  
                                 __end_of_vd_Lit_Config 1000  
                                vd_Lit_Config@l_us_Test 0058  
                                     _vd_PiloterSorties 0801  
                                              intlevel1 0000  
                               _uc_EntreeTOREntreeCarte 110E  
                                    ?_vd_PiloterSorties 0070  
                              __end_of_vd_Verif_Version 10E0  
                       __end_of_vd_TraitementApplicatif 05AE  
                                      ___lldiv@dividend 0058  
                                 _vd_PilotageVariateurs 12D8  
                                   __end_of_SSP_Handler 0CBB  
                                   ??_vd_PiloterSorties 005C  
                           ?_vd_ArretPilotageRelaisBist 0070  
                     __size_of_vd_AnalyserEntreesVolets 0095  
                             ?_vd_AnalyserEntreesVolets 0070  
                                      _us_CodeVariateur 1004  
                         vd_InitVariables@l_uc_Compteur 0055  
                                     ?_vd_PiloterRelais 0070  
                                            _OPTION_REG 0081  
                                     ?_vd_PiloterSortie 0054  
                                   _uc_CompteurBiStable 003D  
                                 __end_of_vd_PiloterLed 116E  
                                      ___lldiv@quotient 005C  
                                    ??_vd_PiloterRelais 0057  
                                 __end_of_vd_Sauve_Etat 1517  
                                    ??_vd_PiloterSortie 0056  
                             __end_of_vd_PiloterSorties 0811  
                  uc_EntreeTOREntreeCarte@l_uc_Compteur 0055  
                     __end_of_vd_PiloterRelaisBistables 093C  
                                        _l_uc_Compteur2 0033  
                                         ?_eeprom_write 0054  
                                     _uc_CompteurBase1S 003C  
                                          ?_eeprom_read 0070  
                                         _l_uc_Compteur 0032  
                                    uc_StopVolet@l_stop 0056  
                                      _uc_CompteurCycle 003E  
